

Microchip Technology PIC18 LITE Macro Assembler V2.00 build -1524193055 
                                                                                               Fri Jul 12 21:51:07 2019

Microchip Technology Omniscient Code Generator v2.00 (Free mode) build 20180527130849
     1  0000                     
     2                           ; Version 2.00
     3                           ; Generated 27/05/2018 GMT
     4                           
     5                           ; 
     6                           ; Copyright © 2018, Microchip Technology Inc. and its subsidiaries ("Microchip")
     7                           ; All rights reserved.
     8                           ; 
     9                           ; This software is developed by Microchip Technology Inc. and its subsidiaries ("Microch
                                 ip").
    10                           ; 
    11                           ; Redistribution and use in source and binary forms, with or without modification, are
    12                           ; permitted provided that the following conditions are met:
    13                           ; 
    14                           ;     1. Redistributions of source code must retain the above copyright notice, this lis
                                 t of
    15                           ;        conditions and the following disclaimer.
    16                           ; 
    17                           ;     2. Redistributions in binary form must reproduce the above copyright notice, this 
                                 list
    18                           ;        of conditions and the following disclaimer in the documentation and/or other
    19                           ;        materials provided with the distribution.
    20                           ; 
    21                           ;     3. Microchip's name may not be used to endorse or promote products derived from th
                                 is
    22                           ;        software without specific prior written permission.
    23                           ; 
    24                           ; THIS SOFTWARE IS PROVIDED BY MICROCHIP "AS IS" AND ANY EXPRESS OR IMPLIED WARRANTIES,

    25                           ; INCLUDING, BUT NOT LIMITED TO, THE IMPLIED WARRANTIES OF MERCHANTABILITY AND FITNESS F
                                 OR
    26                           ; PURPOSE ARE DISCLAIMED.  IN NO EVENT SHALL MICROCHIP BE LIABLE FOR ANY DIRECT, INDIREC
                                 T,
    27                           ; INCIDENTAL, SPECIAL, EXEMPLARY, OR CONSEQUENTIAL DAMAGES (INCLUDING BUT NOT LIMITED TO
                                 
    28                           ; PROCUREMENT OF SUBSTITUTE GOODS OR SERVICES; LOSS OF USE, DATA OR PROFITS; OR BUSINESS
                                 
    29                           ; INTERRUPTION) HOWSOEVER CAUSED AND ON ANY THEORY OF LIABILITY, WHETHER IN CONTRACT, ST
                                 RICT
    30                           ; LIABILITY, OR TORT (INCLUDING NEGLIGENCE OR OTHERWISE) ARISING IN ANY WAY OUT OF THE U
                                 SE OF
    31                           ; THIS SOFTWARE, EVEN IF ADVISED OF THE POSSIBILITY OF SUCH DAMAGE.
    32                           ; 
    33                           
    34                           
    35                           ; 
    36                           ; Code-generator required, PIC18F45K50 Definitions
    37                           ; 
    38  0000                     fsr0 equ 0FE9h
    39  0000                     fsr0h equ 0FEAh
    40  0000                     fsr0l equ 0FE9h
    41  0000                     fsr1 equ 0FE1h
    42  0000                     fsr1h equ 0FE2h
    43  0000                     fsr1l equ 0FE1h
    44  0000                     fsr2 equ 0FD9h
    45  0000                     fsr2h equ 0FDAh
    46  0000                     fsr2l equ 0FD9h
    47  0000                     indf0 equ 0FEFh
    48  0000                     indf1 equ 0FE7h
    49  0000                     indf2 equ 0FDFh
    50  0000                     intcon equ 0FF2h
    51  0000                     nvmcon equ 00h
    52  0000                     pcl equ 0FF9h
    53  0000                     pclath equ 0FFAh
    54  0000                     pclatu equ 0FFBh
    55  0000                     plusw0 equ 0FEBh
    56  0000                     plusw1 equ 0FE3h
    57  0000                     plusw2 equ 0FDBh
    58  0000                     postdec0 equ 0FEDh
    59  0000                     postdec1 equ 0FE5h
    60  0000                     postdec2 equ 0FDDh
    61  0000                     postinc0 equ 0FEEh
    62  0000                     postinc1 equ 0FE6h
    63  0000                     postinc2 equ 0FDEh
    64  0000                     preinc0 equ 0FECh
    65  0000                     preinc1 equ 0FE4h
    66  0000                     preinc2 equ 0FDCh
    67  0000                     prod equ 0FF3h
    68  0000                     prodh equ 0FF4h
    69  0000                     prodl equ 0FF3h
    70  0000                     status equ 0FD8h
    71  0000                     tablat equ 0FF5h
    72  0000                     tblptr equ 0FF6h
    73  0000                     tblptrh equ 0FF7h
    74  0000                     tblptrl equ 0FF6h
    75  0000                     tblptru equ 0FF8h
    76  0000                     tosl equ 0FFDh
    77  0000                     wreg equ 0FE8h
    78  0000                     
     2                           opt pagewidth 120
     3  0000                     byte0	macro	val
     4                           	(getbyte(val,0))
     5                           endm
     6  0000                     byte1	macro	val
     7                           	(getbyte(val,1))
     8                           endm
     9  0000                     byte2	macro	val
    10                           	(getbyte(val,2))
    11                           endm
    12  0000                     byte3	macro	val
    13                           	(getbyte(val,3))
    14                           endm
    15  0000                     byte4	macro	val
    16                           	(getbyte(val,4))
    17                           endm
    18  0000                     byte5	macro	val
    19                           	(getbyte(val,5))
    20                           endm
    21  0000                     byte6	macro	val
    22                           	(getbyte(val,6))
    23                           endm
    24  0000                     byte7	macro	val
    25                           	(getbyte(val,7))
    26                           endm
    27  0000                     getword	macro	val,pos
    28                           	(((val) >> (8 * pos)) and 0xffff)
    29                           endm
    30  0000                     word0	macro	val
    31                           	(getword(val,0))
    32                           endm
    33  0000                     word1	macro	val
    34                           	(getword(val,2))
    35                           endm
    36  0000                     word2	macro	val
    37                           	(getword(val,4))
    38                           endm
    39  0000                     word3	macro	val
    40                           	(getword(val,6))
    41                           endm
    42  0000                     gettword	macro	val,pos
    43                           	(((val) >> (8 * pos)) and 0xffffff)
    44                           endm
    45  0000                     tword0	macro	val
    46                           	(gettword(val,0))
    47                           endm
    48  0000                     tword1	macro	val
    49                           	(gettword(val,3))
    50                           endm
    51  0000                     tword2	macro	val
    52                           	(gettword(val,6))
    53                           endm
    54  0000                     getdword	macro	val,pos
    55                           	(((val) >> (8 * pos)) and 0xffffffff)
    56                           endm
    57  0000                     dword0	macro	val
    58                           	(getdword(val,0))
    59                           endm
    60  0000                     dword1	macro	val
    61                           	(getdword(val,4))
    62                           endm
    63  0000                     clrc   macro
    64                           	bcf	status,0
    65                           endm
    66  0000                     setc   macro
    67                           	bsf	status,0
    68                           endm
    69  0000                     clrz   macro
    70                           	bcf	status,2
    71                           endm
    72  0000                     setz   macro
    73                           	bsf	status,2
    74                           endm
    75  0000                     skipnz macro
    76                           	btfsc	status,2
    77                           endm
    78  0000                     skipz  macro
    79                           	btfss	status,2
    80                           endm
    81  0000                     skipnc macro
    82                           	btfsc	status,0
    83                           endm
    84  0000                     skipc  macro
    85                           	btfss	status,0
    86                           endm
    87  0000                     pushw macro
    88                           	movwf postinc1
    89                           endm
    90  0000                     pushf macro arg1
    91                           	movff arg1, postinc1
    92                           endm
    93  0000                     popw macro
    94                           	movf postdec1,f
    95                           	movf indf1,w
    96                           endm
    97  0000                     popf macro arg1
    98                           	movf postdec1,f
    99                           	movff indf1,arg1
   100                           endm
   101  0000                     popfc macro arg1
   102                           	movff plusw1,arg1
   103                           	decfsz fsr1,f
   104                           endm
   105  0000                     	global	__ramtop
   106                           	global	__accesstop
   107                           # 54 "/opt/microchip/xc8/v2.00/pic/include/pic18f45k50.h"
   108                           SRCON1 equ 0F57h ;# 
   109  0000                     # 116 "/opt/microchip/xc8/v2.00/pic/include/pic18f45k50.h"
   110                           SRCON0 equ 0F58h ;# 
   111  0000                     # 187 "/opt/microchip/xc8/v2.00/pic/include/pic18f45k50.h"
   112                           CCPTMRS equ 0F59h ;# 
   113  0000                     # 214 "/opt/microchip/xc8/v2.00/pic/include/pic18f45k50.h"
   114                           VREGCON equ 0F5Ah ;# 
   115  0000                     # 234 "/opt/microchip/xc8/v2.00/pic/include/pic18f45k50.h"
   116                           ANSELA equ 0F5Bh ;# 
   117  0000                     # 279 "/opt/microchip/xc8/v2.00/pic/include/pic18f45k50.h"
   118                           ANSELB equ 0F5Ch ;# 
   119  0000                     # 329 "/opt/microchip/xc8/v2.00/pic/include/pic18f45k50.h"
   120                           ANSELC equ 0F5Dh ;# 
   121  0000                     # 363 "/opt/microchip/xc8/v2.00/pic/include/pic18f45k50.h"
   122                           ANSELD equ 0F5Eh ;# 
   123  0000                     # 425 "/opt/microchip/xc8/v2.00/pic/include/pic18f45k50.h"
   124                           ANSELE equ 0F5Fh ;# 
   125  0000                     # 457 "/opt/microchip/xc8/v2.00/pic/include/pic18f45k50.h"
   126                           UCON equ 0F60h ;# 
   127  0000                     # 508 "/opt/microchip/xc8/v2.00/pic/include/pic18f45k50.h"
   128                           USTAT equ 0F61h ;# 
   129  0000                     # 568 "/opt/microchip/xc8/v2.00/pic/include/pic18f45k50.h"
   130                           UCFG equ 0F62h ;# 
   131  0000                     # 647 "/opt/microchip/xc8/v2.00/pic/include/pic18f45k50.h"
   132                           UADDR equ 0F63h ;# 
   133  0000                     # 711 "/opt/microchip/xc8/v2.00/pic/include/pic18f45k50.h"
   134                           UIE equ 0F64h ;# 
   135  0000                     # 767 "/opt/microchip/xc8/v2.00/pic/include/pic18f45k50.h"
   136                           UIR equ 0F65h ;# 
   137  0000                     # 823 "/opt/microchip/xc8/v2.00/pic/include/pic18f45k50.h"
   138                           UEIE equ 0F66h ;# 
   139  0000                     # 874 "/opt/microchip/xc8/v2.00/pic/include/pic18f45k50.h"
   140                           UEIR equ 0F67h ;# 
   141  0000                     # 925 "/opt/microchip/xc8/v2.00/pic/include/pic18f45k50.h"
   142                           UFRM equ 0F68h ;# 
   143  0000                     # 932 "/opt/microchip/xc8/v2.00/pic/include/pic18f45k50.h"
   144                           UFRML equ 0F68h ;# 
   145  0000                     # 1010 "/opt/microchip/xc8/v2.00/pic/include/pic18f45k50.h"
   146                           UFRMH equ 0F69h ;# 
   147  0000                     # 1050 "/opt/microchip/xc8/v2.00/pic/include/pic18f45k50.h"
   148                           UEP0 equ 0F6Ah ;# 
   149  0000                     # 1158 "/opt/microchip/xc8/v2.00/pic/include/pic18f45k50.h"
   150                           UEP1 equ 0F6Bh ;# 
   151  0000                     # 1266 "/opt/microchip/xc8/v2.00/pic/include/pic18f45k50.h"
   152                           UEP2 equ 0F6Ch ;# 
   153  0000                     # 1374 "/opt/microchip/xc8/v2.00/pic/include/pic18f45k50.h"
   154                           UEP3 equ 0F6Dh ;# 
   155  0000                     # 1482 "/opt/microchip/xc8/v2.00/pic/include/pic18f45k50.h"
   156                           UEP4 equ 0F6Eh ;# 
   157  0000                     # 1590 "/opt/microchip/xc8/v2.00/pic/include/pic18f45k50.h"
   158                           UEP5 equ 0F6Fh ;# 
   159  0000                     # 1698 "/opt/microchip/xc8/v2.00/pic/include/pic18f45k50.h"
   160                           UEP6 equ 0F70h ;# 
   161  0000                     # 1806 "/opt/microchip/xc8/v2.00/pic/include/pic18f45k50.h"
   162                           UEP7 equ 0F71h ;# 
   163  0000                     # 1914 "/opt/microchip/xc8/v2.00/pic/include/pic18f45k50.h"
   164                           UEP8 equ 0F72h ;# 
   165  0000                     # 1990 "/opt/microchip/xc8/v2.00/pic/include/pic18f45k50.h"
   166                           UEP9 equ 0F73h ;# 
   167  0000                     # 2066 "/opt/microchip/xc8/v2.00/pic/include/pic18f45k50.h"
   168                           UEP10 equ 0F74h ;# 
   169  0000                     # 2142 "/opt/microchip/xc8/v2.00/pic/include/pic18f45k50.h"
   170                           UEP11 equ 0F75h ;# 
   171  0000                     # 2218 "/opt/microchip/xc8/v2.00/pic/include/pic18f45k50.h"
   172                           UEP12 equ 0F76h ;# 
   173  0000                     # 2294 "/opt/microchip/xc8/v2.00/pic/include/pic18f45k50.h"
   174                           UEP13 equ 0F77h ;# 
   175  0000                     # 2370 "/opt/microchip/xc8/v2.00/pic/include/pic18f45k50.h"
   176                           UEP14 equ 0F78h ;# 
   177  0000                     # 2446 "/opt/microchip/xc8/v2.00/pic/include/pic18f45k50.h"
   178                           UEP15 equ 0F79h ;# 
   179  0000                     # 2522 "/opt/microchip/xc8/v2.00/pic/include/pic18f45k50.h"
   180                           SLRCON equ 0F7Ah ;# 
   181  0000                     # 2566 "/opt/microchip/xc8/v2.00/pic/include/pic18f45k50.h"
   182                           VREFCON2 equ 0F7Bh ;# 
   183  0000                     # 2618 "/opt/microchip/xc8/v2.00/pic/include/pic18f45k50.h"
   184                           VREFCON1 equ 0F7Ch ;# 
   185  0000                     # 2679 "/opt/microchip/xc8/v2.00/pic/include/pic18f45k50.h"
   186                           VREFCON0 equ 0F7Dh ;# 
   187  0000                     # 2739 "/opt/microchip/xc8/v2.00/pic/include/pic18f45k50.h"
   188                           PMD0 equ 0F7Eh ;# 
   189  0000                     # 2821 "/opt/microchip/xc8/v2.00/pic/include/pic18f45k50.h"
   190                           PMD1 equ 0F7Fh ;# 
   191  0000                     # 2903 "/opt/microchip/xc8/v2.00/pic/include/pic18f45k50.h"
   192                           PORTA equ 0F80h ;# 
   193  0000                     # 3055 "/opt/microchip/xc8/v2.00/pic/include/pic18f45k50.h"
   194                           PORTB equ 0F81h ;# 
   195  0000                     # 3165 "/opt/microchip/xc8/v2.00/pic/include/pic18f45k50.h"
   196                           PORTC equ 0F82h ;# 
   197  0000                     # 3307 "/opt/microchip/xc8/v2.00/pic/include/pic18f45k50.h"
   198                           PORTD equ 0F83h ;# 
   199  0000                     # 3428 "/opt/microchip/xc8/v2.00/pic/include/pic18f45k50.h"
   200                           PORTE equ 0F84h ;# 
   201  0000                     # 3547 "/opt/microchip/xc8/v2.00/pic/include/pic18f45k50.h"
   202                           WPUB equ 0F85h ;# 
   203  0000                     # 3609 "/opt/microchip/xc8/v2.00/pic/include/pic18f45k50.h"
   204                           IOCB equ 0F86h ;# 
   205  0000                     # 3648 "/opt/microchip/xc8/v2.00/pic/include/pic18f45k50.h"
   206                           IOCC equ 0F87h ;# 
   207  0000                     # 3705 "/opt/microchip/xc8/v2.00/pic/include/pic18f45k50.h"
   208                           CTMUICON equ 0F88h ;# 
   209  0000                     # 3781 "/opt/microchip/xc8/v2.00/pic/include/pic18f45k50.h"
   210                           LATA equ 0F89h ;# 
   211  0000                     # 3893 "/opt/microchip/xc8/v2.00/pic/include/pic18f45k50.h"
   212                           LATB equ 0F8Ah ;# 
   213  0000                     # 4005 "/opt/microchip/xc8/v2.00/pic/include/pic18f45k50.h"
   214                           LATC equ 0F8Bh ;# 
   215  0000                     # 4107 "/opt/microchip/xc8/v2.00/pic/include/pic18f45k50.h"
   216                           LATD equ 0F8Ch ;# 
   217  0000                     # 4219 "/opt/microchip/xc8/v2.00/pic/include/pic18f45k50.h"
   218                           LATE equ 0F8Dh ;# 
   219  0000                     # 4271 "/opt/microchip/xc8/v2.00/pic/include/pic18f45k50.h"
   220                           CTMUCONL equ 0F8Eh ;# 
   221  0000                     # 4276 "/opt/microchip/xc8/v2.00/pic/include/pic18f45k50.h"
   222                           CTMUCON1 equ 0F8Eh ;# 
   223  0000                     # 4425 "/opt/microchip/xc8/v2.00/pic/include/pic18f45k50.h"
   224                           CTMUCONH equ 0F8Fh ;# 
   225  0000                     # 4430 "/opt/microchip/xc8/v2.00/pic/include/pic18f45k50.h"
   226                           CTMUCON0 equ 0F8Fh ;# 
   227  0000                     # 4581 "/opt/microchip/xc8/v2.00/pic/include/pic18f45k50.h"
   228                           CCPR2 equ 0F90h ;# 
   229  0000                     # 4588 "/opt/microchip/xc8/v2.00/pic/include/pic18f45k50.h"
   230                           CCPR2L equ 0F90h ;# 
   231  0000                     # 4608 "/opt/microchip/xc8/v2.00/pic/include/pic18f45k50.h"
   232                           CCPR2H equ 0F91h ;# 
   233  0000                     # 4628 "/opt/microchip/xc8/v2.00/pic/include/pic18f45k50.h"
   234                           TRISA equ 0F92h ;# 
   235  0000                     # 4633 "/opt/microchip/xc8/v2.00/pic/include/pic18f45k50.h"
   236                           DDRA equ 0F92h ;# 
   237  0000                     # 4850 "/opt/microchip/xc8/v2.00/pic/include/pic18f45k50.h"
   238                           TRISB equ 0F93h ;# 
   239  0000                     # 4855 "/opt/microchip/xc8/v2.00/pic/include/pic18f45k50.h"
   240                           DDRB equ 0F93h ;# 
   241  0000                     # 5072 "/opt/microchip/xc8/v2.00/pic/include/pic18f45k50.h"
   242                           TRISC equ 0F94h ;# 
   243  0000                     # 5077 "/opt/microchip/xc8/v2.00/pic/include/pic18f45k50.h"
   244                           DDRC equ 0F94h ;# 
   245  0000                     # 5250 "/opt/microchip/xc8/v2.00/pic/include/pic18f45k50.h"
   246                           TRISD equ 0F95h ;# 
   247  0000                     # 5255 "/opt/microchip/xc8/v2.00/pic/include/pic18f45k50.h"
   248                           DDRD equ 0F95h ;# 
   249  0000                     # 5472 "/opt/microchip/xc8/v2.00/pic/include/pic18f45k50.h"
   250                           TRISE equ 0F96h ;# 
   251  0000                     # 5477 "/opt/microchip/xc8/v2.00/pic/include/pic18f45k50.h"
   252                           DDRE equ 0F96h ;# 
   253  0000                     # 5588 "/opt/microchip/xc8/v2.00/pic/include/pic18f45k50.h"
   254                           CCP2CON equ 0F97h ;# 
   255  0000                     # 5593 "/opt/microchip/xc8/v2.00/pic/include/pic18f45k50.h"
   256                           ECCP2CON equ 0F97h ;# 
   257  0000                     # 5744 "/opt/microchip/xc8/v2.00/pic/include/pic18f45k50.h"
   258                           CM1CON0 equ 0F98h ;# 
   259  0000                     # 5867 "/opt/microchip/xc8/v2.00/pic/include/pic18f45k50.h"
   260                           CM2CON0 equ 0F99h ;# 
   261  0000                     # 5990 "/opt/microchip/xc8/v2.00/pic/include/pic18f45k50.h"
   262                           CM2CON1 equ 0F9Ah ;# 
   263  0000                     # 6052 "/opt/microchip/xc8/v2.00/pic/include/pic18f45k50.h"
   264                           OSCTUNE equ 0F9Bh ;# 
   265  0000                     # 6122 "/opt/microchip/xc8/v2.00/pic/include/pic18f45k50.h"
   266                           HLVDCON equ 0F9Ch ;# 
   267  0000                     # 6192 "/opt/microchip/xc8/v2.00/pic/include/pic18f45k50.h"
   268                           PIE1 equ 0F9Dh ;# 
   269  0000                     # 6291 "/opt/microchip/xc8/v2.00/pic/include/pic18f45k50.h"
   270                           PIR1 equ 0F9Eh ;# 
   271  0000                     # 6390 "/opt/microchip/xc8/v2.00/pic/include/pic18f45k50.h"
   272                           IPR1 equ 0F9Fh ;# 
   273  0000                     # 6489 "/opt/microchip/xc8/v2.00/pic/include/pic18f45k50.h"
   274                           PIE2 equ 0FA0h ;# 
   275  0000                     # 6588 "/opt/microchip/xc8/v2.00/pic/include/pic18f45k50.h"
   276                           PIR2 equ 0FA1h ;# 
   277  0000                     # 6687 "/opt/microchip/xc8/v2.00/pic/include/pic18f45k50.h"
   278                           IPR2 equ 0FA2h ;# 
   279  0000                     # 6786 "/opt/microchip/xc8/v2.00/pic/include/pic18f45k50.h"
   280                           PIE3 equ 0FA3h ;# 
   281  0000                     # 6859 "/opt/microchip/xc8/v2.00/pic/include/pic18f45k50.h"
   282                           PIR3 equ 0FA4h ;# 
   283  0000                     # 6906 "/opt/microchip/xc8/v2.00/pic/include/pic18f45k50.h"
   284                           IPR3 equ 0FA5h ;# 
   285  0000                     # 6953 "/opt/microchip/xc8/v2.00/pic/include/pic18f45k50.h"
   286                           EECON1 equ 0FA6h ;# 
   287  0000                     # 7019 "/opt/microchip/xc8/v2.00/pic/include/pic18f45k50.h"
   288                           EECON2 equ 0FA7h ;# 
   289  0000                     # 7039 "/opt/microchip/xc8/v2.00/pic/include/pic18f45k50.h"
   290                           EEDATA equ 0FA8h ;# 
   291  0000                     # 7046 "/opt/microchip/xc8/v2.00/pic/include/pic18f45k50.h"
   292                           EEADR equ 0FA9h ;# 
   293  0000                     # 7053 "/opt/microchip/xc8/v2.00/pic/include/pic18f45k50.h"
   294                           RCSTA1 equ 0FABh ;# 
   295  0000                     # 7058 "/opt/microchip/xc8/v2.00/pic/include/pic18f45k50.h"
   296                           RCSTA equ 0FABh ;# 
   297  0000                     # 7259 "/opt/microchip/xc8/v2.00/pic/include/pic18f45k50.h"
   298                           TXSTA1 equ 0FACh ;# 
   299  0000                     # 7264 "/opt/microchip/xc8/v2.00/pic/include/pic18f45k50.h"
   300                           TXSTA equ 0FACh ;# 
   301  0000                     # 7553 "/opt/microchip/xc8/v2.00/pic/include/pic18f45k50.h"
   302                           TXREG1 equ 0FADh ;# 
   303  0000                     # 7558 "/opt/microchip/xc8/v2.00/pic/include/pic18f45k50.h"
   304                           TXREG equ 0FADh ;# 
   305  0000                     # 7591 "/opt/microchip/xc8/v2.00/pic/include/pic18f45k50.h"
   306                           RCREG1 equ 0FAEh ;# 
   307  0000                     # 7596 "/opt/microchip/xc8/v2.00/pic/include/pic18f45k50.h"
   308                           RCREG equ 0FAEh ;# 
   309  0000                     # 7629 "/opt/microchip/xc8/v2.00/pic/include/pic18f45k50.h"
   310                           SPBRG1 equ 0FAFh ;# 
   311  0000                     # 7634 "/opt/microchip/xc8/v2.00/pic/include/pic18f45k50.h"
   312                           SPBRG equ 0FAFh ;# 
   313  0000                     # 7767 "/opt/microchip/xc8/v2.00/pic/include/pic18f45k50.h"
   314                           SPBRGH1 equ 0FB0h ;# 
   315  0000                     # 7772 "/opt/microchip/xc8/v2.00/pic/include/pic18f45k50.h"
   316                           SPBRGH equ 0FB0h ;# 
   317  0000                     # 7905 "/opt/microchip/xc8/v2.00/pic/include/pic18f45k50.h"
   318                           T3CON equ 0FB1h ;# 
   319  0000                     # 8034 "/opt/microchip/xc8/v2.00/pic/include/pic18f45k50.h"
   320                           TMR3 equ 0FB2h ;# 
   321  0000                     # 8041 "/opt/microchip/xc8/v2.00/pic/include/pic18f45k50.h"
   322                           TMR3L equ 0FB2h ;# 
   323  0000                     # 8061 "/opt/microchip/xc8/v2.00/pic/include/pic18f45k50.h"
   324                           TMR3H equ 0FB3h ;# 
   325  0000                     # 8081 "/opt/microchip/xc8/v2.00/pic/include/pic18f45k50.h"
   326                           T3GCON equ 0FB4h ;# 
   327  0000                     # 8212 "/opt/microchip/xc8/v2.00/pic/include/pic18f45k50.h"
   328                           ACTCON equ 0FB5h ;# 
   329  0000                     # 8217 "/opt/microchip/xc8/v2.00/pic/include/pic18f45k50.h"
   330                           STCON equ 0FB5h ;# 
   331  0000                     # 8418 "/opt/microchip/xc8/v2.00/pic/include/pic18f45k50.h"
   332                           ECCP1AS equ 0FB6h ;# 
   333  0000                     # 8552 "/opt/microchip/xc8/v2.00/pic/include/pic18f45k50.h"
   334                           PWM1CON equ 0FB7h ;# 
   335  0000                     # 8557 "/opt/microchip/xc8/v2.00/pic/include/pic18f45k50.h"
   336                           ECCP1DEL equ 0FB7h ;# 
   337  0000                     # 8702 "/opt/microchip/xc8/v2.00/pic/include/pic18f45k50.h"
   338                           BAUDCON1 equ 0FB8h ;# 
   339  0000                     # 8707 "/opt/microchip/xc8/v2.00/pic/include/pic18f45k50.h"
   340                           BAUDCON equ 0FB8h ;# 
   341  0000                     # 8711 "/opt/microchip/xc8/v2.00/pic/include/pic18f45k50.h"
   342                           BAUDCTL equ 0FB8h ;# 
   343  0000                     # 9212 "/opt/microchip/xc8/v2.00/pic/include/pic18f45k50.h"
   344                           PSTR1CON equ 0FB9h ;# 
   345  0000                     # 9288 "/opt/microchip/xc8/v2.00/pic/include/pic18f45k50.h"
   346                           T2CON equ 0FBAh ;# 
   347  0000                     # 9359 "/opt/microchip/xc8/v2.00/pic/include/pic18f45k50.h"
   348                           PR2 equ 0FBBh ;# 
   349  0000                     # 9379 "/opt/microchip/xc8/v2.00/pic/include/pic18f45k50.h"
   350                           TMR2 equ 0FBCh ;# 
   351  0000                     # 9399 "/opt/microchip/xc8/v2.00/pic/include/pic18f45k50.h"
   352                           CCP1CON equ 0FBDh ;# 
   353  0000                     # 9404 "/opt/microchip/xc8/v2.00/pic/include/pic18f45k50.h"
   354                           ECCP1CON equ 0FBDh ;# 
   355  0000                     # 9591 "/opt/microchip/xc8/v2.00/pic/include/pic18f45k50.h"
   356                           CCPR1 equ 0FBEh ;# 
   357  0000                     # 9598 "/opt/microchip/xc8/v2.00/pic/include/pic18f45k50.h"
   358                           CCPR1L equ 0FBEh ;# 
   359  0000                     # 9618 "/opt/microchip/xc8/v2.00/pic/include/pic18f45k50.h"
   360                           CCPR1H equ 0FBFh ;# 
   361  0000                     # 9638 "/opt/microchip/xc8/v2.00/pic/include/pic18f45k50.h"
   362                           ADCON2 equ 0FC0h ;# 
   363  0000                     # 9709 "/opt/microchip/xc8/v2.00/pic/include/pic18f45k50.h"
   364                           ADCON1 equ 0FC1h ;# 
   365  0000                     # 9777 "/opt/microchip/xc8/v2.00/pic/include/pic18f45k50.h"
   366                           ADCON0 equ 0FC2h ;# 
   367  0000                     # 9872 "/opt/microchip/xc8/v2.00/pic/include/pic18f45k50.h"
   368                           ADRESL equ 0FC3h ;# 
   369  0000                     # 9879 "/opt/microchip/xc8/v2.00/pic/include/pic18f45k50.h"
   370                           ADRESH equ 0FC4h ;# 
   371  0000                     # 9886 "/opt/microchip/xc8/v2.00/pic/include/pic18f45k50.h"
   372                           SSP1CON2 equ 0FC5h ;# 
   373  0000                     # 9891 "/opt/microchip/xc8/v2.00/pic/include/pic18f45k50.h"
   374                           SSPCON2 equ 0FC5h ;# 
   375  0000                     # 10240 "/opt/microchip/xc8/v2.00/pic/include/pic18f45k50.h"
   376                           SSP1CON1 equ 0FC6h ;# 
   377  0000                     # 10245 "/opt/microchip/xc8/v2.00/pic/include/pic18f45k50.h"
   378                           SSPCON equ 0FC6h ;# 
   379  0000                     # 10249 "/opt/microchip/xc8/v2.00/pic/include/pic18f45k50.h"
   380                           SSPCON1 equ 0FC6h ;# 
   381  0000                     # 10594 "/opt/microchip/xc8/v2.00/pic/include/pic18f45k50.h"
   382                           SSP1STAT equ 0FC7h ;# 
   383  0000                     # 10599 "/opt/microchip/xc8/v2.00/pic/include/pic18f45k50.h"
   384                           SSPSTAT equ 0FC7h ;# 
   385  0000                     # 11192 "/opt/microchip/xc8/v2.00/pic/include/pic18f45k50.h"
   386                           SSP1ADD equ 0FC8h ;# 
   387  0000                     # 11197 "/opt/microchip/xc8/v2.00/pic/include/pic18f45k50.h"
   388                           SSPADD equ 0FC8h ;# 
   389  0000                     # 11530 "/opt/microchip/xc8/v2.00/pic/include/pic18f45k50.h"
   390                           SSP1BUF equ 0FC9h ;# 
   391  0000                     # 11535 "/opt/microchip/xc8/v2.00/pic/include/pic18f45k50.h"
   392                           SSPBUF equ 0FC9h ;# 
   393  0000                     # 11568 "/opt/microchip/xc8/v2.00/pic/include/pic18f45k50.h"
   394                           SSP1MSK equ 0FCAh ;# 
   395  0000                     # 11573 "/opt/microchip/xc8/v2.00/pic/include/pic18f45k50.h"
   396                           SSPMSK equ 0FCAh ;# 
   397  0000                     # 11706 "/opt/microchip/xc8/v2.00/pic/include/pic18f45k50.h"
   398                           SSP1CON3 equ 0FCBh ;# 
   399  0000                     # 11711 "/opt/microchip/xc8/v2.00/pic/include/pic18f45k50.h"
   400                           SSPCON3 equ 0FCBh ;# 
   401  0000                     # 11828 "/opt/microchip/xc8/v2.00/pic/include/pic18f45k50.h"
   402                           T1GCON equ 0FCCh ;# 
   403  0000                     # 11959 "/opt/microchip/xc8/v2.00/pic/include/pic18f45k50.h"
   404                           T1CON equ 0FCDh ;# 
   405  0000                     # 12088 "/opt/microchip/xc8/v2.00/pic/include/pic18f45k50.h"
   406                           TMR1 equ 0FCEh ;# 
   407  0000                     # 12095 "/opt/microchip/xc8/v2.00/pic/include/pic18f45k50.h"
   408                           TMR1L equ 0FCEh ;# 
   409  0000                     # 12115 "/opt/microchip/xc8/v2.00/pic/include/pic18f45k50.h"
   410                           TMR1H equ 0FCFh ;# 
   411  0000                     # 12135 "/opt/microchip/xc8/v2.00/pic/include/pic18f45k50.h"
   412                           RCON equ 0FD0h ;# 
   413  0000                     # 12268 "/opt/microchip/xc8/v2.00/pic/include/pic18f45k50.h"
   414                           WDTCON equ 0FD1h ;# 
   415  0000                     # 12296 "/opt/microchip/xc8/v2.00/pic/include/pic18f45k50.h"
   416                           OSCCON2 equ 0FD2h ;# 
   417  0000                     # 12358 "/opt/microchip/xc8/v2.00/pic/include/pic18f45k50.h"
   418                           OSCCON equ 0FD3h ;# 
   419  0000                     # 12441 "/opt/microchip/xc8/v2.00/pic/include/pic18f45k50.h"
   420                           T0CON equ 0FD5h ;# 
   421  0000                     # 12511 "/opt/microchip/xc8/v2.00/pic/include/pic18f45k50.h"
   422                           TMR0 equ 0FD6h ;# 
   423  0000                     # 12518 "/opt/microchip/xc8/v2.00/pic/include/pic18f45k50.h"
   424                           TMR0L equ 0FD6h ;# 
   425  0000                     # 12538 "/opt/microchip/xc8/v2.00/pic/include/pic18f45k50.h"
   426                           TMR0H equ 0FD7h ;# 
   427  0000                     # 12558 "/opt/microchip/xc8/v2.00/pic/include/pic18f45k50.h"
   428                           STATUS equ 0FD8h ;# 
   429  0000                     # 12629 "/opt/microchip/xc8/v2.00/pic/include/pic18f45k50.h"
   430                           FSR2 equ 0FD9h ;# 
   431  0000                     # 12636 "/opt/microchip/xc8/v2.00/pic/include/pic18f45k50.h"
   432                           FSR2L equ 0FD9h ;# 
   433  0000                     # 12656 "/opt/microchip/xc8/v2.00/pic/include/pic18f45k50.h"
   434                           FSR2H equ 0FDAh ;# 
   435  0000                     # 12663 "/opt/microchip/xc8/v2.00/pic/include/pic18f45k50.h"
   436                           PLUSW2 equ 0FDBh ;# 
   437  0000                     # 12683 "/opt/microchip/xc8/v2.00/pic/include/pic18f45k50.h"
   438                           PREINC2 equ 0FDCh ;# 
   439  0000                     # 12703 "/opt/microchip/xc8/v2.00/pic/include/pic18f45k50.h"
   440                           POSTDEC2 equ 0FDDh ;# 
   441  0000                     # 12723 "/opt/microchip/xc8/v2.00/pic/include/pic18f45k50.h"
   442                           POSTINC2 equ 0FDEh ;# 
   443  0000                     # 12743 "/opt/microchip/xc8/v2.00/pic/include/pic18f45k50.h"
   444                           INDF2 equ 0FDFh ;# 
   445  0000                     # 12763 "/opt/microchip/xc8/v2.00/pic/include/pic18f45k50.h"
   446                           BSR equ 0FE0h ;# 
   447  0000                     # 12770 "/opt/microchip/xc8/v2.00/pic/include/pic18f45k50.h"
   448                           FSR1 equ 0FE1h ;# 
   449  0000                     # 12777 "/opt/microchip/xc8/v2.00/pic/include/pic18f45k50.h"
   450                           FSR1L equ 0FE1h ;# 
   451  0000                     # 12797 "/opt/microchip/xc8/v2.00/pic/include/pic18f45k50.h"
   452                           FSR1H equ 0FE2h ;# 
   453  0000                     # 12804 "/opt/microchip/xc8/v2.00/pic/include/pic18f45k50.h"
   454                           PLUSW1 equ 0FE3h ;# 
   455  0000                     # 12824 "/opt/microchip/xc8/v2.00/pic/include/pic18f45k50.h"
   456                           PREINC1 equ 0FE4h ;# 
   457  0000                     # 12844 "/opt/microchip/xc8/v2.00/pic/include/pic18f45k50.h"
   458                           POSTDEC1 equ 0FE5h ;# 
   459  0000                     # 12864 "/opt/microchip/xc8/v2.00/pic/include/pic18f45k50.h"
   460                           POSTINC1 equ 0FE6h ;# 
   461  0000                     # 12884 "/opt/microchip/xc8/v2.00/pic/include/pic18f45k50.h"
   462                           INDF1 equ 0FE7h ;# 
   463  0000                     # 12904 "/opt/microchip/xc8/v2.00/pic/include/pic18f45k50.h"
   464                           WREG equ 0FE8h ;# 
   465  0000                     # 12924 "/opt/microchip/xc8/v2.00/pic/include/pic18f45k50.h"
   466                           FSR0 equ 0FE9h ;# 
   467  0000                     # 12931 "/opt/microchip/xc8/v2.00/pic/include/pic18f45k50.h"
   468                           FSR0L equ 0FE9h ;# 
   469  0000                     # 12951 "/opt/microchip/xc8/v2.00/pic/include/pic18f45k50.h"
   470                           FSR0H equ 0FEAh ;# 
   471  0000                     # 12958 "/opt/microchip/xc8/v2.00/pic/include/pic18f45k50.h"
   472                           PLUSW0 equ 0FEBh ;# 
   473  0000                     # 12978 "/opt/microchip/xc8/v2.00/pic/include/pic18f45k50.h"
   474                           PREINC0 equ 0FECh ;# 
   475  0000                     # 12998 "/opt/microchip/xc8/v2.00/pic/include/pic18f45k50.h"
   476                           POSTDEC0 equ 0FEDh ;# 
   477  0000                     # 13018 "/opt/microchip/xc8/v2.00/pic/include/pic18f45k50.h"
   478                           POSTINC0 equ 0FEEh ;# 
   479  0000                     # 13038 "/opt/microchip/xc8/v2.00/pic/include/pic18f45k50.h"
   480                           INDF0 equ 0FEFh ;# 
   481  0000                     # 13058 "/opt/microchip/xc8/v2.00/pic/include/pic18f45k50.h"
   482                           INTCON3 equ 0FF0h ;# 
   483  0000                     # 13150 "/opt/microchip/xc8/v2.00/pic/include/pic18f45k50.h"
   484                           INTCON2 equ 0FF1h ;# 
   485  0000                     # 13227 "/opt/microchip/xc8/v2.00/pic/include/pic18f45k50.h"
   486                           INTCON equ 0FF2h ;# 
   487  0000                     # 13344 "/opt/microchip/xc8/v2.00/pic/include/pic18f45k50.h"
   488                           PROD equ 0FF3h ;# 
   489  0000                     # 13351 "/opt/microchip/xc8/v2.00/pic/include/pic18f45k50.h"
   490                           PRODL equ 0FF3h ;# 
   491  0000                     # 13371 "/opt/microchip/xc8/v2.00/pic/include/pic18f45k50.h"
   492                           PRODH equ 0FF4h ;# 
   493  0000                     # 13391 "/opt/microchip/xc8/v2.00/pic/include/pic18f45k50.h"
   494                           TABLAT equ 0FF5h ;# 
   495  0000                     # 13413 "/opt/microchip/xc8/v2.00/pic/include/pic18f45k50.h"
   496                           TBLPTR equ 0FF6h ;# 
   497  0000                     # 13420 "/opt/microchip/xc8/v2.00/pic/include/pic18f45k50.h"
   498                           TBLPTRL equ 0FF6h ;# 
   499  0000                     # 13440 "/opt/microchip/xc8/v2.00/pic/include/pic18f45k50.h"
   500                           TBLPTRH equ 0FF7h ;# 
   501  0000                     # 13460 "/opt/microchip/xc8/v2.00/pic/include/pic18f45k50.h"
   502                           TBLPTRU equ 0FF8h ;# 
   503  0000                     # 13469 "/opt/microchip/xc8/v2.00/pic/include/pic18f45k50.h"
   504                           PCLAT equ 0FF9h ;# 
   505  0000                     # 13476 "/opt/microchip/xc8/v2.00/pic/include/pic18f45k50.h"
   506                           PC equ 0FF9h ;# 
   507  0000                     # 13483 "/opt/microchip/xc8/v2.00/pic/include/pic18f45k50.h"
   508                           PCL equ 0FF9h ;# 
   509  0000                     # 13503 "/opt/microchip/xc8/v2.00/pic/include/pic18f45k50.h"
   510                           PCLATH equ 0FFAh ;# 
   511  0000                     # 13523 "/opt/microchip/xc8/v2.00/pic/include/pic18f45k50.h"
   512                           PCLATU equ 0FFBh ;# 
   513  0000                     # 13530 "/opt/microchip/xc8/v2.00/pic/include/pic18f45k50.h"
   514                           STKPTR equ 0FFCh ;# 
   515  0000                     # 13604 "/opt/microchip/xc8/v2.00/pic/include/pic18f45k50.h"
   516                           TOS equ 0FFDh ;# 
   517  0000                     # 13611 "/opt/microchip/xc8/v2.00/pic/include/pic18f45k50.h"
   518                           TOSL equ 0FFDh ;# 
   519  0000                     # 13631 "/opt/microchip/xc8/v2.00/pic/include/pic18f45k50.h"
   520                           TOSH equ 0FFEh ;# 
   521  0000                     # 13651 "/opt/microchip/xc8/v2.00/pic/include/pic18f45k50.h"
   522                           TOSU equ 0FFFh ;# 
   523  0000                     	FNCALL	_main,_ADC_Init
   524                           	FNCALL	_main,_ADC_Read
   525                           	FNCALL	_main,_Buzzer1
   526                           	FNCALL	_main,_Lcd_Cmd
   527                           	FNCALL	_main,_Lcd_Init
   528                           	FNCALL	_main,_Lcd_Out
   529                           	FNCALL	_main,_Lcd_Out2
   530                           	FNCALL	_main,___fleq
   531                           	FNCALL	_main,___flmul
   532                           	FNCALL	_main,___xxtofl
   533                           	FNCALL	_main,_sprintf
   534                           	FNCALL	_main,_strcat
   535                           	FNCALL	_strcat,_strcpy
   536                           	FNCALL	_strcat,_strlen
   537                           	FNCALL	_sprintf,_vfprintf
   538                           	FNCALL	_vfprintf,_vfpfcnvrt
   539                           	FNCALL	_vfpfcnvrt,_atoi
   540                           	FNCALL	_vfpfcnvrt,_efgtoa
   541                           	FNCALL	_vfpfcnvrt,_fputc
   542                           	FNCALL	_vfpfcnvrt,_isdigit
   543                           	FNCALL	_vfpfcnvrt,_isupper
   544                           	FNCALL	_vfpfcnvrt,_strncmp
   545                           	FNCALL	_vfpfcnvrt,_tolower
   546                           	FNCALL	_efgtoa,___awdiv
   547                           	FNCALL	_efgtoa,___awmod
   548                           	FNCALL	_efgtoa,___fladd
   549                           	FNCALL	_efgtoa,___fldiv
   550                           	FNCALL	_efgtoa,___fleq
   551                           	FNCALL	_efgtoa,___flge
   552                           	FNCALL	_efgtoa,___flmul
   553                           	FNCALL	_efgtoa,___flneg
   554                           	FNCALL	_efgtoa,___flsub
   555                           	FNCALL	_efgtoa,___fltol
   556                           	FNCALL	_efgtoa,___fpclassifyf
   557                           	FNCALL	_efgtoa,_floorf
   558                           	FNCALL	_efgtoa,_isupper
   559                           	FNCALL	_efgtoa,_pad
   560                           	FNCALL	_efgtoa,_strcpy
   561                           	FNCALL	_efgtoa,_tolower
   562                           	FNCALL	_tolower,_isupper
   563                           	FNCALL	_pad,_fputc
   564                           	FNCALL	_pad,_fputs
   565                           	FNCALL	_pad,_strlen
   566                           	FNCALL	_fputs,_fputc
   567                           	FNCALL	_fputc,_putch
   568                           	FNCALL	___flsub,___fladd
   569                           	FNCALL	_atoi,___wmul
   570                           	FNCALL	_atoi,_isdigit
   571                           	FNCALL	_atoi,_isspace
   572                           	FNCALL	_Lcd_Out2,_Lcd_Chr_CP
   573                           	FNCALL	_Lcd_Out2,_Lcd_Cmd
   574                           	FNCALL	_Lcd_Out,_Lcd_Chr_CP
   575                           	FNCALL	_Lcd_Out,_Lcd_Cmd
   576                           	FNCALL	_Lcd_Init,_Lcd_Cmd
   577                           	FNROOT	_main
   578                           	global	floorf@F520
   579                           	global	___fpclassifyf@F459
   580                           	global	_nout
   581                           	global	_width
   582                           	global	_prec
   583                           	global	_flags
   584                           	global	_dbuf
   585                           	global	_ANSELEbits
   586                           _ANSELEbits	set	0xF5F
   587  0000                     	global	_ANSELA
   588                           _ANSELA	set	0xF5B
   589  0000                     	global	_ANSELD
   590                           _ANSELD	set	0xF5E
   591  0000                     	global	_LATEbits
   592                           _LATEbits	set	0xF8D
   593  0000                     	global	_ADCON0bits
   594                           _ADCON0bits	set	0xFC2
   595  0000                     	global	_ADCON0
   596                           _ADCON0	set	0xFC2
   597  0000                     	global	_ADRESL
   598                           _ADRESL	set	0xFC3
   599  0000                     	global	_ADRESH
   600                           _ADRESH	set	0xFC4
   601  0000                     	global	_ADCON2
   602                           _ADCON2	set	0xFC0
   603  0000                     	global	_ADCON1
   604                           _ADCON1	set	0xFC1
   605  0000                     	global	_TRISEbits
   606                           _TRISEbits	set	0xF96
   607  0000                     	global	_TRISA
   608                           _TRISA	set	0xF92
   609  0000                     	global	_PORTA
   610                           _PORTA	set	0xF80
   611  0000                     	global	_OSCCON
   612                           _OSCCON	set	0xFD3
   613  0000                     	global	_PORTDbits
   614                           _PORTDbits	set	0xF83
   615  0000                     	global	_TRISDbits
   616                           _TRISDbits	set	0xF95
   617  0000                     	global	_GO
   618                           _GO	set	0x7E11
   619  0000                     	global	_ADON
   620                           _ADON	set	0x7E10
   621  0000                     psect	smallconst,class=SMALLCONST,space=0,reloc=2,noexec
   622                           global __psmallconst
   623                           __psmallconst:
   624  000800                     	db	0
   625  000800  00                 	
   626                           STR_1:
   627  000801                     	db	86	;'V'
   628  000801  56                 	db	111	;'o'
   629  000802  6F                 	db	108	;'l'
   630  000803  6C                 	db	116	;'t'
   631  000804  74                 	db	97	;'a'
   632  000805  61                 	db	103	;'g'
   633  000806  67                 	db	101	;'e'
   634  000807  65                 	db	32
   635  000808  20                 	db	105	;'i'
   636  000809  69                 	db	115	;'s'
   637  00080A  73                 	db	46
   638  00080B  2E                 	db	46
   639  00080C  2E                 	db	46
   640  00080D  2E                 	db	0
   641  00080E  00                 	
   642                           STR_2:
   643  00080F                     	db	37
   644  00080F  25                 	db	46
   645  000810  2E                 	db	50	;'2'
   646  000811  32                 	db	102	;'f'
   647  000812  66                 	db	0
   648  000813  00                 	
   649                           STR_4:
   650  000814                     	db	73	;'I'
   651  000814  49                 	db	78	;'N'
   652  000815  4E                 	db	70	;'F'
   653  000816  46                 	db	0
   654  000817  00                 	
   655                           STR_8:
   656  000818                     	db	78	;'N'
   657  000818  4E                 	db	65	;'A'
   658  000819  41                 	db	78	;'N'
   659  00081A  4E                 	db	0
   660  00081B  00                 	
   661                           STR_5:
   662  00081C                     	db	105	;'i'
   663  00081C  69                 	db	110	;'n'
   664  00081D  6E                 	db	102	;'f'
   665  00081E  66                 	db	0
   666  00081F  00                 	
   667                           STR_9:
   668  000820                     	db	110	;'n'
   669  000820  6E                 	db	97	;'a'
   670  000821  61                 	db	110	;'n'
   671  000822  6E                 	db	0
   672  000823  00                 	
   673                           STR_3:
   674  000824                     	db	32
   675  000824  20                 	db	109	;'m'
   676  000825  6D                 	db	86	;'V'
   677  000826  56                 	db	0
   678  000827  00                 	
   679                           STR_12:
   680  000828                     	db	108	;'l'
   681  000828  6C                 	db	102	;'f'
   682  000829  66                 	db	0
   683  00082A  00                 STR_6	equ	STR_5+0
   684  0000                     STR_7	equ	STR_5+0
   685  0000                     STR_10	equ	STR_5+0
   686  0000                     STR_11	equ	STR_5+0
   687  0000                     STR_13	equ	STR_12+0
   688  0000                     STR_14	equ	STR_12+0
   689  0000                     STR_15	equ	STR_12+0
   690  0000                     STR_16	equ	STR_12+0
   691  0000                     ; #config settings
   692                           global __CFG_PLLSEL$PLL4X
   693                           __CFG_PLLSEL$PLL4X equ 0x0
   694  0000                     global __CFG_CFGPLLEN$OFF
   695                           __CFG_CFGPLLEN$OFF equ 0x0
   696  0000                     global __CFG_CPUDIV$NOCLKDIV
   697                           __CFG_CPUDIV$NOCLKDIV equ 0x0
   698  0000                     global __CFG_LS48MHZ$SYS24X4
   699                           __CFG_LS48MHZ$SYS24X4 equ 0x0
   700  0000                     global __CFG_FOSC$INTOSCIO
   701                           __CFG_FOSC$INTOSCIO equ 0x0
   702  0000                     global __CFG_PCLKEN$OFF
   703                           __CFG_PCLKEN$OFF equ 0x0
   704  0000                     global __CFG_FCMEN$OFF
   705                           __CFG_FCMEN$OFF equ 0x0
   706  0000                     global __CFG_IESO$OFF
   707                           __CFG_IESO$OFF equ 0x0
   708  0000                     global __CFG_nPWRTEN$ON
   709                           __CFG_nPWRTEN$ON equ 0x0
   710  0000                     global __CFG_BOREN$SBORDIS
   711                           __CFG_BOREN$SBORDIS equ 0x0
   712  0000                     global __CFG_BORV$190
   713                           __CFG_BORV$190 equ 0x0
   714  0000                     global __CFG_nLPBOR$OFF
   715                           __CFG_nLPBOR$OFF equ 0x0
   716  0000                     global __CFG_WDTEN$OFF
   717                           __CFG_WDTEN$OFF equ 0x0
   718  0000                     global __CFG_WDTPS$32768
   719                           __CFG_WDTPS$32768 equ 0x0
   720  0000                     global __CFG_CCP2MX$RC1
   721                           __CFG_CCP2MX$RC1 equ 0x0
   722  0000                     global __CFG_PBADEN$ON
   723                           __CFG_PBADEN$ON equ 0x0
   724  0000                     global __CFG_T3CMX$RC0
   725                           __CFG_T3CMX$RC0 equ 0x0
   726  0000                     global __CFG_SDOMX$RB3
   727                           __CFG_SDOMX$RB3 equ 0x0
   728  0000                     global __CFG_MCLRE$ON
   729                           __CFG_MCLRE$ON equ 0x0
   730  0000                     global __CFG_STVREN$ON
   731                           __CFG_STVREN$ON equ 0x0
   732  0000                     global __CFG_LVP$OFF
   733                           __CFG_LVP$OFF equ 0x0
   734  0000                     global __CFG_ICPRT$OFF
   735                           __CFG_ICPRT$OFF equ 0x0
   736  0000                     global __CFG_XINST$OFF
   737                           __CFG_XINST$OFF equ 0x0
   738  0000                     global __CFG_CP0$OFF
   739                           __CFG_CP0$OFF equ 0x0
   740  0000                     global __CFG_CP1$OFF
   741                           __CFG_CP1$OFF equ 0x0
   742  0000                     global __CFG_CP2$OFF
   743                           __CFG_CP2$OFF equ 0x0
   744  0000                     global __CFG_CP3$OFF
   745                           __CFG_CP3$OFF equ 0x0
   746  0000                     global __CFG_CPB$OFF
   747                           __CFG_CPB$OFF equ 0x0
   748  0000                     global __CFG_CPD$OFF
   749                           __CFG_CPD$OFF equ 0x0
   750  0000                     global __CFG_WRT0$OFF
   751                           __CFG_WRT0$OFF equ 0x0
   752  0000                     global __CFG_WRT1$OFF
   753                           __CFG_WRT1$OFF equ 0x0
   754  0000                     global __CFG_WRT2$OFF
   755                           __CFG_WRT2$OFF equ 0x0
   756  0000                     global __CFG_WRT3$OFF
   757                           __CFG_WRT3$OFF equ 0x0
   758  0000                     global __CFG_WRTC$OFF
   759                           __CFG_WRTC$OFF equ 0x0
   760  0000                     global __CFG_WRTB$OFF
   761                           __CFG_WRTB$OFF equ 0x0
   762  0000                     global __CFG_WRTD$OFF
   763                           __CFG_WRTD$OFF equ 0x0
   764  0000                     global __CFG_EBTR0$OFF
   765                           __CFG_EBTR0$OFF equ 0x0
   766  0000                     global __CFG_EBTR1$OFF
   767                           __CFG_EBTR1$OFF equ 0x0
   768  0000                     global __CFG_EBTR2$OFF
   769                           __CFG_EBTR2$OFF equ 0x0
   770  0000                     global __CFG_EBTR3$OFF
   771                           __CFG_EBTR3$OFF equ 0x0
   772  0000                     global __CFG_EBTRB$OFF
   773                           __CFG_EBTRB$OFF equ 0x0
   774  0000                     	file	"/tmp/xcXP367fR"
   775                           	line	#
   776                           psect	cinit,class=CODE,delta=1,reloc=2
   777                           global __pcinit
   778                           __pcinit:
   779  0042A2                     global start_initialization
   780                           start_initialization:
   781  0042A2                     
   782                           global __initialization
   783                           __initialization:
   784  0042A2                     psect	bssBANK0,class=BANK0,space=1,noexec,lowdata
   785                           global __pbssBANK0
   786                           __pbssBANK0:
   787  0000BA                     floorf@F520:
   788  0000BA                            ds      4
   789  0000BA                     ___fpclassifyf@F459:
   790  0000BE                            ds      4
   791  0000BE                     _nout:
   792  0000C2                            ds      2
   793  0000C2                     _width:
   794  0000C4                            ds      2
   795  0000C4                     _prec:
   796  0000C6                            ds      2
   797  0000C6                     _flags:
   798  0000C8                            ds      2
   799  0000C8                     psect	bssBANK1,class=BANK1,space=1,noexec,lowdata
   800                           global __pbssBANK1
   801                           __pbssBANK1:
   802  000100                     _dbuf:
   803  000100                            ds      80
   804  000100                     	file	"/tmp/xcXP367fR"
   805                           	line	#
   806                           psect	cinit
   807                           ; Clear objects allocated to BANK1 (80 bytes)
   808                           	global __pbssBANK1
   809                           lfsr	0,__pbssBANK1
   810  0042A2  EE01  F000         movlw	80
   811  0042A6  0E50               clear_0:
   812  0042A8                     clrf	postinc0,c
   813  0042A8  6AEE               decf	wreg
   814  0042AA  06E8               bnz	clear_0
   815  0042AC  E1FD               ; Clear objects allocated to BANK0 (16 bytes)
   816                           	global __pbssBANK0
   817                           lfsr	0,__pbssBANK0
   818  0042AE  EE00  F0BA         movlw	16
   819  0042B2  0E10               clear_1:
   820  0042B4                     clrf	postinc0,c
   821  0042B4  6AEE               decf	wreg
   822  0042B6  06E8               bnz	clear_1
   823  0042B8  E1FD               psect cinit,class=CODE,delta=1
   824                           global end_of_initialization,__end_of__initialization
   825                           
   826                           ;End of C runtime variable initialization code
   827                           
   828                           end_of_initialization:
   829  0042BA                     __end_of__initialization:
   830  0042BA                     	GLOBAL	__Lmediumconst
   831                           	movlw	low highword(__Lmediumconst)
   832  0042BA  0E00               	movwf	tblptru
   833  0042BC  6EF8               movlb 0
   834  0042BE  0100               goto _main	;jump to C main() function
   835  0042C0  EF4A  F019         psect	cstackBANK0,class=BANK0,space=1,noexec
   836                           global __pcstackBANK0
   837                           __pcstackBANK0:
   838  000060                     	global	efgtoa@ou
   839                           efgtoa@ou:	; 4 bytes @ 0x0
   840  000060                     	ds   4
   841  000060                     	global	_efgtoa$445
   842                           _efgtoa$445:	; 2 bytes @ 0x4
   843  000064                     	ds   2
   844  000064                     	global	_efgtoa$446
   845                           _efgtoa$446:	; 2 bytes @ 0x6
   846  000066                     	ds   2
   847  000066                     	global	_efgtoa$451
   848                           _efgtoa$451:	; 2 bytes @ 0x8
   849  000068                     	ds   2
   850  000068                     	global	_efgtoa$455
   851                           _efgtoa$455:	; 2 bytes @ 0xA
   852  00006A                     	ds   2
   853  00006A                     	global	_efgtoa$456
   854                           _efgtoa$456:	; 2 bytes @ 0xC
   855  00006C                     	ds   2
   856  00006C                     	global	_efgtoa$457
   857                           _efgtoa$457:	; 2 bytes @ 0xE
   858  00006E                     	ds   2
   859  00006E                     	global	efgtoa@t
   860                           efgtoa@t:	; 2 bytes @ 0x10
   861  000070                     	ds   2
   862  000070                     	global	efgtoa@pp
   863                           efgtoa@pp:	; 2 bytes @ 0x12
   864  000072                     	ds   2
   865  000072                     	global	efgtoa@m
   866                           efgtoa@m:	; 2 bytes @ 0x14
   867  000074                     	ds   2
   868  000074                     	global	efgtoa@ne
   869                           efgtoa@ne:	; 2 bytes @ 0x16
   870  000076                     	ds   2
   871  000076                     	global	efgtoa@d
   872                           efgtoa@d:	; 2 bytes @ 0x18
   873  000078                     	ds   2
   874  000078                     	global	efgtoa@sign
   875                           efgtoa@sign:	; 2 bytes @ 0x1A
   876  00007A                     	ds   2
   877  00007A                     	global	efgtoa@p
   878                           efgtoa@p:	; 2 bytes @ 0x1C
   879  00007C                     	ds   2
   880  00007C                     	global	efgtoa@nmode
   881                           efgtoa@nmode:	; 1 bytes @ 0x1E
   882  00007E                     	ds   1
   883  00007E                     	global	efgtoa@w
   884                           efgtoa@w:	; 2 bytes @ 0x1F
   885  00007F                     	ds   2
   886  00007F                     	global	efgtoa@mode
   887                           efgtoa@mode:	; 1 bytes @ 0x21
   888  000081                     	ds   1
   889  000081                     	global	efgtoa@h
   890                           efgtoa@h:	; 4 bytes @ 0x22
   891  000082                     	ds   4
   892  000082                     	global	efgtoa@l
   893                           efgtoa@l:	; 4 bytes @ 0x26
   894  000086                     	ds   4
   895  000086                     	global	efgtoa@i
   896                           efgtoa@i:	; 2 bytes @ 0x2A
   897  00008A                     	ds   2
   898  00008A                     	global	efgtoa@g
   899                           efgtoa@g:	; 4 bytes @ 0x2C
   900  00008C                     	ds   4
   901  00008C                     	global	efgtoa@e
   902                           efgtoa@e:	; 2 bytes @ 0x30
   903  000090                     	ds   2
   904  000090                     	global	efgtoa@n
   905                           efgtoa@n:	; 2 bytes @ 0x32
   906  000092                     	ds   2
   907  000092                     	global	efgtoa@u
   908                           efgtoa@u:	; 4 bytes @ 0x34
   909  000094                     	ds   4
   910  000094                     	global	?_sprintf
   911                           ?_sprintf:	; 2 bytes @ 0x38
   912  000098                     	global	sprintf@s
   913                           sprintf@s:	; 2 bytes @ 0x38
   914  000098                     	ds   2
   915  000098                     	global	sprintf@fmt
   916                           sprintf@fmt:	; 2 bytes @ 0x3A
   917  00009A                     	ds   6
   918  00009A                     	global	sprintf@ret
   919                           sprintf@ret:	; 2 bytes @ 0x40
   920  0000A0                     	ds   2
   921  0000A0                     	global	sprintf@ap
   922                           sprintf@ap:	; 2 bytes @ 0x42
   923  0000A2                     	ds   2
   924  0000A2                     	global	sprintf@f
   925                           sprintf@f:	; 6 bytes @ 0x44
   926  0000A4                     	ds   6
   927  0000A4                     	global	main@data
   928                           main@data:	; 10 bytes @ 0x4A
   929  0000AA                     	ds   10
   930  0000AA                     	global	main@digital
   931                           main@digital:	; 2 bytes @ 0x54
   932  0000B4                     	ds   2
   933  0000B4                     	global	main@voltage
   934                           main@voltage:	; 4 bytes @ 0x56
   935  0000B6                     	ds   4
   936  0000B6                     psect	cstackCOMRAM,class=COMRAM,space=1,noexec
   937                           global __pcstackCOMRAM
   938                           __pcstackCOMRAM:
   939  000001                     ?___fleq:	; 1 bit 
   940  000001                     ?_Lcd_Cmd:	; 1 bytes @ 0x0
   941  000001                     ??_Lcd_Cmd:	; 1 bytes @ 0x0
   942  000001                     ?_Lcd_Chr_CP:	; 1 bytes @ 0x0
   943  000001                     ??_Lcd_Chr_CP:	; 1 bytes @ 0x0
   944  000001                     ?_ADC_Init:	; 1 bytes @ 0x0
   945  000001                     ??_ADC_Init:	; 1 bytes @ 0x0
   946  000001                     ?_Buzzer1:	; 1 bytes @ 0x0
   947  000001                     ??_Buzzer1:	; 1 bytes @ 0x0
   948  000001                     ?_putch:	; 1 bytes @ 0x0
   949  000001                     ??_putch:	; 1 bytes @ 0x0
   950  000001                     ?_Lcd_Init:	; 1 bytes @ 0x0
   951  000001                     ?_main:	; 1 bytes @ 0x0
   952  000001                     	global	?_ADC_Read
   953                           ?_ADC_Read:	; 2 bytes @ 0x0
   954  000001                     ?_fputc:	; 2 bytes @ 0x0
   955  000001                     	global	?_strlen
   956                           ?_strlen:	; 2 bytes @ 0x0
   957  000001                     	global	?___fpclassifyf
   958                           ?___fpclassifyf:	; 2 bytes @ 0x0
   959  000001                     	global	?_isupper
   960                           ?_isupper:	; 2 bytes @ 0x0
   961  000001                     	global	?_isdigit
   962                           ?_isdigit:	; 2 bytes @ 0x0
   963  000001                     	global	?_strncmp
   964                           ?_strncmp:	; 2 bytes @ 0x0
   965  000001                     	global	?_isspace
   966                           ?_isspace:	; 2 bytes @ 0x0
   967  000001                     	global	?___wmul
   968                           ?___wmul:	; 2 bytes @ 0x0
   969  000001                     	global	?___awdiv
   970                           ?___awdiv:	; 2 bytes @ 0x0
   971  000001                     	global	?___awmod
   972                           ?___awmod:	; 2 bytes @ 0x0
   973  000001                     	global	?___fladd
   974                           ?___fladd:	; 4 bytes @ 0x0
   975  000001                     	global	?___fldiv
   976                           ?___fldiv:	; 4 bytes @ 0x0
   977  000001                     	global	?___flneg
   978                           ?___flneg:	; 4 bytes @ 0x0
   979  000001                     	global	?___fltol
   980                           ?___fltol:	; 4 bytes @ 0x0
   981  000001                     	global	?___xxtofl
   982                           ?___xxtofl:	; 4 bytes @ 0x0
   983  000001                     putch@c:	; 1 bytes @ 0x0
   984  000001                     	global	ADC_Read@channel
   985                           ADC_Read@channel:	; 2 bytes @ 0x0
   986  000001                     	global	___wmul@multiplier
   987                           ___wmul@multiplier:	; 2 bytes @ 0x0
   988  000001                     	global	___awdiv@dividend
   989                           ___awdiv@dividend:	; 2 bytes @ 0x0
   990  000001                     	global	___awmod@dividend
   991                           ___awmod@dividend:	; 2 bytes @ 0x0
   992  000001                     	global	isdigit@c
   993                           isdigit@c:	; 2 bytes @ 0x0
   994  000001                     	global	isspace@c
   995                           isspace@c:	; 2 bytes @ 0x0
   996  000001                     	global	isupper@c
   997                           isupper@c:	; 2 bytes @ 0x0
   998  000001                     	global	fputc@c
   999                           fputc@c:	; 2 bytes @ 0x0
  1000  000001                     	global	strlen@s
  1001                           strlen@s:	; 2 bytes @ 0x0
  1002  000001                     	global	strncmp@_l
  1003                           strncmp@_l:	; 2 bytes @ 0x0
  1004  000001                     	global	___fleq@ff1
  1005                           ___fleq@ff1:	; 4 bytes @ 0x0
  1006  000001                     	global	___flneg@f1
  1007                           ___flneg@f1:	; 4 bytes @ 0x0
  1008  000001                     	global	___fltol@f1
  1009                           ___fltol@f1:	; 4 bytes @ 0x0
  1010  000001                     	global	___fladd@b
  1011                           ___fladd@b:	; 4 bytes @ 0x0
  1012  000001                     	global	___fldiv@b
  1013                           ___fldiv@b:	; 4 bytes @ 0x0
  1014  000001                     	global	___xxtofl@val
  1015                           ___xxtofl@val:	; 4 bytes @ 0x0
  1016  000001                     	global	___fpclassifyf@x
  1017                           ___fpclassifyf@x:	; 4 bytes @ 0x0
  1018  000001                     	ds   2
  1019  000001                     ??_ADC_Read:	; 1 bytes @ 0x2
  1020  000003                     ??_strlen:	; 1 bytes @ 0x2
  1021  000003                     ??_isupper:	; 1 bytes @ 0x2
  1022  000003                     ??_isdigit:	; 1 bytes @ 0x2
  1023  000003                     ??_isspace:	; 1 bytes @ 0x2
  1024  000003                     	global	Lcd_Chr_CP@data
  1025                           Lcd_Chr_CP@data:	; 1 bytes @ 0x2
  1026  000003                     	global	Lcd_Cmd@data
  1027                           Lcd_Cmd@data:	; 1 bytes @ 0x2
  1028  000003                     	global	___wmul@multiplicand
  1029                           ___wmul@multiplicand:	; 2 bytes @ 0x2
  1030  000003                     	global	___awdiv@divisor
  1031                           ___awdiv@divisor:	; 2 bytes @ 0x2
  1032  000003                     	global	___awmod@divisor
  1033                           ___awmod@divisor:	; 2 bytes @ 0x2
  1034  000003                     	global	fputc@fp
  1035                           fputc@fp:	; 2 bytes @ 0x2
  1036  000003                     	global	strncmp@_r
  1037                           strncmp@_r:	; 2 bytes @ 0x2
  1038  000003                     	ds   1
  1039  000003                     ??_Lcd_Init:	; 1 bytes @ 0x3
  1040  000004                     ?_Lcd_Out:	; 1 bytes @ 0x3
  1041  000004                     ?_Lcd_Out2:	; 1 bytes @ 0x3
  1042  000004                     	global	Lcd_Out@x
  1043                           Lcd_Out@x:	; 1 bytes @ 0x3
  1044  000004                     	global	Lcd_Out2@x
  1045                           Lcd_Out2@x:	; 1 bytes @ 0x3
  1046  000004                     	ds   1
  1047  000004                     ??_fputc:	; 1 bytes @ 0x4
  1048  000005                     ??___fpclassifyf:	; 1 bytes @ 0x4
  1049  000005                     ??___wmul:	; 1 bytes @ 0x4
  1050  000005                     ??___awdiv:	; 1 bytes @ 0x4
  1051  000005                     ??___awmod:	; 1 bytes @ 0x4
  1052  000005                     ??___flneg:	; 1 bytes @ 0x4
  1053  000005                     ??___fltol:	; 1 bytes @ 0x4
  1054  000005                     ??___xxtofl:	; 1 bytes @ 0x4
  1055  000005                     	global	Lcd_Init@data
  1056                           Lcd_Init@data:	; 1 bytes @ 0x4
  1057  000005                     	global	___awdiv@counter
  1058                           ___awdiv@counter:	; 1 bytes @ 0x4
  1059  000005                     	global	___awmod@counter
  1060                           ___awmod@counter:	; 1 bytes @ 0x4
  1061  000005                     	global	Lcd_Out@buffer
  1062                           Lcd_Out@buffer:	; 2 bytes @ 0x4
  1063  000005                     	global	Lcd_Out2@buffer
  1064                           Lcd_Out2@buffer:	; 2 bytes @ 0x4
  1065  000005                     	global	___wmul@product
  1066                           ___wmul@product:	; 2 bytes @ 0x4
  1067  000005                     	global	strlen@a
  1068                           strlen@a:	; 2 bytes @ 0x4
  1069  000005                     	global	strncmp@n
  1070                           strncmp@n:	; 2 bytes @ 0x4
  1071  000005                     	global	___fleq@ff2
  1072                           ___fleq@ff2:	; 4 bytes @ 0x4
  1073  000005                     	global	___fladd@a
  1074                           ___fladd@a:	; 4 bytes @ 0x4
  1075  000005                     	global	___fldiv@a
  1076                           ___fldiv@a:	; 4 bytes @ 0x4
  1077  000005                     	ds   1
  1078  000005                     	global	___awdiv@sign
  1079                           ___awdiv@sign:	; 1 bytes @ 0x5
  1080  000006                     	global	___awmod@sign
  1081                           ___awmod@sign:	; 1 bytes @ 0x5
  1082  000006                     	ds   1
  1083  000006                     ??_strncmp:	; 1 bytes @ 0x6
  1084  000007                     ??_Lcd_Out:	; 1 bytes @ 0x6
  1085  000007                     ??_Lcd_Out2:	; 1 bytes @ 0x6
  1086  000007                     ?_strcpy:	; 2 bytes @ 0x6
  1087  000007                     	global	?_tolower
  1088                           ?_tolower:	; 2 bytes @ 0x6
  1089  000007                     	global	_isspace$977
  1090                           _isspace$977:	; 1 bytes @ 0x6
  1091  000007                     	global	ADC_Read@digital
  1092                           ADC_Read@digital:	; 2 bytes @ 0x6
  1093  000007                     	global	___awdiv@quotient
  1094                           ___awdiv@quotient:	; 2 bytes @ 0x6
  1095  000007                     	global	strcpy@dest
  1096                           strcpy@dest:	; 2 bytes @ 0x6
  1097  000007                     	global	tolower@c
  1098                           tolower@c:	; 2 bytes @ 0x6
  1099  000007                     	ds   1
  1100  000007                     	global	?_atoi
  1101                           ?_atoi:	; 2 bytes @ 0x7
  1102  000008                     	global	atoi@s
  1103                           atoi@s:	; 2 bytes @ 0x7
  1104  000008                     	ds   1
  1105  000008                     ??_tolower:	; 1 bytes @ 0x8
  1106  000009                     ??___fladd:	; 1 bytes @ 0x8
  1107  000009                     ??___fldiv:	; 1 bytes @ 0x8
  1108  000009                     ??___fleq:	; 1 bytes @ 0x8
  1109  000009                     	global	Lcd_Out@y
  1110                           Lcd_Out@y:	; 1 bytes @ 0x8
  1111  000009                     	global	Lcd_Out2@y
  1112                           Lcd_Out2@y:	; 1 bytes @ 0x8
  1113  000009                     	global	___fltol@sign1
  1114                           ___fltol@sign1:	; 1 bytes @ 0x8
  1115  000009                     	global	___xxtofl@sign
  1116                           ___xxtofl@sign:	; 1 bytes @ 0x8
  1117  000009                     	global	___fpclassifyf@e
  1118                           ___fpclassifyf@e:	; 2 bytes @ 0x8
  1119  000009                     	global	strcpy@src
  1120                           strcpy@src:	; 2 bytes @ 0x8
  1121  000009                     	ds   1
  1122  000009                     ??_atoi:	; 1 bytes @ 0x9
  1123  00000A                     ?_fputs:	; 2 bytes @ 0x9
  1124  00000A                     	global	Lcd_Out@data
  1125                           Lcd_Out@data:	; 1 bytes @ 0x9
  1126  00000A                     	global	Lcd_Out2@data
  1127                           Lcd_Out2@data:	; 1 bytes @ 0x9
  1128  00000A                     	global	___fltol@exp1
  1129                           ___fltol@exp1:	; 1 bytes @ 0x9
  1130  00000A                     	global	___xxtofl@exp
  1131                           ___xxtofl@exp:	; 1 bytes @ 0x9
  1132  00000A                     	global	fputs@s
  1133                           fputs@s:	; 2 bytes @ 0x9
  1134  00000A                     	global	strncmp@l
  1135                           strncmp@l:	; 2 bytes @ 0x9
  1136  00000A                     	ds   1
  1137  00000A                     ??_strcpy:	; 1 bytes @ 0xA
  1138  00000B                     	global	___xxtofl@arg
  1139                           ___xxtofl@arg:	; 4 bytes @ 0xA
  1140  00000B                     	global	___fpclassifyf@u
  1141                           ___fpclassifyf@u:	; 4 bytes @ 0xA
  1142  00000B                     	ds   1
  1143  00000B                     	global	fputs@fp
  1144                           fputs@fp:	; 2 bytes @ 0xB
  1145  00000C                     	global	strncmp@r
  1146                           strncmp@r:	; 2 bytes @ 0xB
  1147  00000C                     	ds   1
  1148  00000C                     	global	strcpy@s
  1149                           strcpy@s:	; 2 bytes @ 0xC
  1150  00000D                     	global	_tolower$1069
  1151                           _tolower$1069:	; 2 bytes @ 0xC
  1152  00000D                     	global	___fldiv@rem
  1153                           ___fldiv@rem:	; 4 bytes @ 0xC
  1154  00000D                     	ds   1
  1155  00000D                     ??_fputs:	; 1 bytes @ 0xD
  1156  00000E                     	global	fputs@c
  1157                           fputs@c:	; 1 bytes @ 0xD
  1158  00000E                     	global	atoi@neg
  1159                           atoi@neg:	; 2 bytes @ 0xD
  1160  00000E                     	ds   1
  1161  00000E                     	global	?___flmul
  1162                           ?___flmul:	; 4 bytes @ 0xE
  1163  00000F                     	global	fputs@i
  1164                           fputs@i:	; 2 bytes @ 0xE
  1165  00000F                     	global	strcpy@d
  1166                           strcpy@d:	; 2 bytes @ 0xE
  1167  00000F                     	global	___flmul@b
  1168                           ___flmul@b:	; 4 bytes @ 0xE
  1169  00000F                     	ds   1
  1170  00000F                     	global	_atoi$946
  1171                           _atoi$946:	; 2 bytes @ 0xF
  1172  000010                     	ds   1
  1173  000010                     ?_strcat:	; 2 bytes @ 0x10
  1174  000011                     	global	?_pad
  1175                           ?_pad:	; 2 bytes @ 0x10
  1176  000011                     	global	___fladd@signs
  1177                           ___fladd@signs:	; 1 bytes @ 0x10
  1178  000011                     	global	___fldiv@sign
  1179                           ___fldiv@sign:	; 1 bytes @ 0x10
  1180  000011                     	global	pad@fp
  1181                           pad@fp:	; 2 bytes @ 0x10
  1182  000011                     	global	strcat@dest
  1183                           strcat@dest:	; 2 bytes @ 0x10
  1184  000011                     	ds   1
  1185  000011                     	global	___fladd@aexp
  1186                           ___fladd@aexp:	; 1 bytes @ 0x11
  1187  000012                     	global	___fldiv@new_exp
  1188                           ___fldiv@new_exp:	; 2 bytes @ 0x11
  1189  000012                     	global	_atoi$948
  1190                           _atoi$948:	; 2 bytes @ 0x11
  1191  000012                     	ds   1
  1192  000012                     	global	___fladd@bexp
  1193                           ___fladd@bexp:	; 1 bytes @ 0x12
  1194  000013                     	global	pad@buf
  1195                           pad@buf:	; 2 bytes @ 0x12
  1196  000013                     	global	strcat@src
  1197                           strcat@src:	; 2 bytes @ 0x12
  1198  000013                     	global	___flmul@a
  1199                           ___flmul@a:	; 4 bytes @ 0x12
  1200  000013                     	ds   1
  1201  000013                     	global	___fladd@grs
  1202                           ___fladd@grs:	; 1 bytes @ 0x13
  1203  000014                     	global	_atoi$947
  1204                           _atoi$947:	; 1 bytes @ 0x13
  1205  000014                     	global	___fldiv@grs
  1206                           ___fldiv@grs:	; 4 bytes @ 0x13
  1207  000014                     	ds   1
  1208  000014                     ??_strcat:	; 1 bytes @ 0x14
  1209  000015                     	global	pad@p
  1210                           pad@p:	; 2 bytes @ 0x14
  1211  000015                     	global	atoi@n
  1212                           atoi@n:	; 2 bytes @ 0x14
  1213  000015                     	ds   2
  1214  000015                     ??___flmul:	; 1 bytes @ 0x16
  1215  000017                     ??_pad:	; 1 bytes @ 0x16
  1216  000017                     	ds   1
  1217  000017                     	global	___fldiv@bexp
  1218                           ___fldiv@bexp:	; 1 bytes @ 0x17
  1219  000018                     	global	pad@i
  1220                           pad@i:	; 2 bytes @ 0x17
  1221  000018                     	ds   1
  1222  000018                     	global	___fldiv@aexp
  1223                           ___fldiv@aexp:	; 1 bytes @ 0x18
  1224  000019                     	ds   1
  1225  000019                     	global	?_floorf
  1226                           ?_floorf:	; 4 bytes @ 0x19
  1227  00001A                     	global	pad@w
  1228                           pad@w:	; 2 bytes @ 0x19
  1229  00001A                     	global	floorf@x
  1230                           floorf@x:	; 4 bytes @ 0x19
  1231  00001A                     	ds   1
  1232  00001A                     	global	___flmul@sign
  1233                           ___flmul@sign:	; 1 bytes @ 0x1A
  1234  00001B                     	ds   1
  1235  00001B                     	global	___flmul@grs
  1236                           ___flmul@grs:	; 4 bytes @ 0x1B
  1237  00001C                     	ds   2
  1238  00001C                     ??_floorf:	; 1 bytes @ 0x1D
  1239  00001E                     	ds   2
  1240  00001E                     	global	___flmul@aexp
  1241                           ___flmul@aexp:	; 1 bytes @ 0x1F
  1242  000020                     	ds   1
  1243  000020                     	global	___flmul@bexp
  1244                           ___flmul@bexp:	; 1 bytes @ 0x20
  1245  000021                     	ds   1
  1246  000021                     	global	___flmul@prod
  1247                           ___flmul@prod:	; 4 bytes @ 0x21
  1248  000022                     	ds   2
  1249  000022                     	global	floorf@m
  1250                           floorf@m:	; 4 bytes @ 0x23
  1251  000024                     	ds   2
  1252  000024                     	global	___flmul@temp
  1253                           ___flmul@temp:	; 2 bytes @ 0x25
  1254  000026                     	ds   2
  1255  000026                     ?___flge:	; 1 bit 
  1256  000028                     	global	?___flsub
  1257                           ?___flsub:	; 4 bytes @ 0x27
  1258  000028                     	global	floorf@e
  1259                           floorf@e:	; 2 bytes @ 0x27
  1260  000028                     	global	___flge@ff1
  1261                           ___flge@ff1:	; 4 bytes @ 0x27
  1262  000028                     	global	___flsub@b
  1263                           ___flsub@b:	; 4 bytes @ 0x27
  1264  000028                     	ds   2
  1265  000028                     	global	floorf@u
  1266                           floorf@u:	; 4 bytes @ 0x29
  1267  00002A                     	ds   2
  1268  00002A                     	global	___flge@ff2
  1269                           ___flge@ff2:	; 4 bytes @ 0x2B
  1270  00002C                     	global	___flsub@a
  1271                           ___flsub@a:	; 4 bytes @ 0x2B
  1272  00002C                     	ds   4
  1273  00002C                     ??___flsub:	; 1 bytes @ 0x2F
  1274  000030                     ??___flge:	; 1 bytes @ 0x2F
  1275  000030                     	ds   4
  1276  000030                     	global	?_efgtoa
  1277                           ?_efgtoa:	; 2 bytes @ 0x33
  1278  000034                     	global	efgtoa@fp
  1279                           efgtoa@fp:	; 2 bytes @ 0x33
  1280  000034                     	ds   2
  1281  000034                     	global	efgtoa@f
  1282                           efgtoa@f:	; 4 bytes @ 0x35
  1283  000036                     	ds   4
  1284  000036                     	global	efgtoa@c
  1285                           efgtoa@c:	; 1 bytes @ 0x39
  1286  00003A                     	ds   1
  1287  00003A                     ??_efgtoa:	; 1 bytes @ 0x3A
  1288  00003B                     	ds   5
  1289  00003B                     	global	?_vfpfcnvrt
  1290                           ?_vfpfcnvrt:	; 2 bytes @ 0x3F
  1291  000040                     	global	vfpfcnvrt@fp
  1292                           vfpfcnvrt@fp:	; 2 bytes @ 0x3F
  1293  000040                     	ds   2
  1294  000040                     	global	vfpfcnvrt@fmt
  1295                           vfpfcnvrt@fmt:	; 2 bytes @ 0x41
  1296  000042                     	ds   2
  1297  000042                     	global	vfpfcnvrt@ap
  1298                           vfpfcnvrt@ap:	; 2 bytes @ 0x43
  1299  000044                     	ds   2
  1300  000044                     ??_vfpfcnvrt:	; 1 bytes @ 0x45
  1301  000046                     	ds   4
  1302  000046                     	global	_vfpfcnvrt$471
  1303                           _vfpfcnvrt$471:	; 2 bytes @ 0x49
  1304  00004A                     	ds   2
  1305  00004A                     	global	_vfpfcnvrt$475
  1306                           _vfpfcnvrt$475:	; 2 bytes @ 0x4B
  1307  00004C                     	ds   2
  1308  00004C                     	global	vfpfcnvrt@f
  1309                           vfpfcnvrt@f:	; 4 bytes @ 0x4D
  1310  00004E                     	ds   4
  1311  00004E                     	global	vfpfcnvrt@ct
  1312                           vfpfcnvrt@ct:	; 3 bytes @ 0x51
  1313  000052                     	ds   3
  1314  000052                     	global	vfpfcnvrt@c
  1315                           vfpfcnvrt@c:	; 1 bytes @ 0x54
  1316  000055                     	ds   1
  1317  000055                     	global	?_vfprintf
  1318                           ?_vfprintf:	; 2 bytes @ 0x55
  1319  000056                     	global	vfprintf@fp
  1320                           vfprintf@fp:	; 2 bytes @ 0x55
  1321  000056                     	ds   2
  1322  000056                     	global	vfprintf@fmt
  1323                           vfprintf@fmt:	; 2 bytes @ 0x57
  1324  000058                     	ds   2
  1325  000058                     	global	vfprintf@ap
  1326                           vfprintf@ap:	; 2 bytes @ 0x59
  1327  00005A                     	ds   2
  1328  00005A                     ??_vfprintf:	; 1 bytes @ 0x5B
  1329  00005C                     	global	vfprintf@cfmt
  1330                           vfprintf@cfmt:	; 2 bytes @ 0x5B
  1331  00005C                     	ds   2
  1332  00005C                     ??_sprintf:	; 1 bytes @ 0x5D
  1333  00005E                     ??_main:	; 1 bytes @ 0x5D
  1334  00005E                     	ds   2
  1335  00005E                     ;!
  1336                           ;!Data Sizes:
  1337                           ;!    Strings     42
  1338                           ;!    Constant    0
  1339                           ;!    Data        0
  1340                           ;!    BSS         96
  1341                           ;!    Persistent  0
  1342                           ;!    Stack       0
  1343                           ;!
  1344                           ;!Auto Spaces:
  1345                           ;!    Space          Size  Autos    Used
  1346                           ;!    COMRAM           95     95      95
  1347                           ;!    BANK0           160     90     106
  1348                           ;!    BANK1           256      0      80
  1349                           ;!    BANK2           256      0       0
  1350                           ;!    BANK3           256      0       0
  1351                           ;!    BANK4           256      0       0
  1352                           ;!    BANK5           256      0       0
  1353                           ;!    BANK6           256      0       0
  1354                           ;!    BANK7           256      0       0
  1355                           
  1356                           ;!
  1357                           ;!Pointer List with Targets:
  1358                           ;!
  1359                           ;!    strncmp@_r	PTR const unsigned char  size(2) Largest target is 3
  1360                           ;!		 -> STR_14(CODE[3]), 
  1361                           ;!
  1362                           ;!    strncmp@r	PTR const unsigned char  size(2) Largest target is 3
  1363                           ;!		 -> STR_14(CODE[3]), 
  1364                           ;!
  1365                           ;!    strncmp@_l	PTR const unsigned char  size(2) Largest target is 3
  1366                           ;!		 -> vfpfcnvrt@ct(COMRAM[3]), 
  1367                           ;!
  1368                           ;!    strncmp@l	PTR const unsigned char  size(2) Largest target is 3
  1369                           ;!		 -> vfpfcnvrt@ct(COMRAM[3]), 
  1370                           ;!
  1371                           ;!    strlen@s	PTR const unsigned char  size(2) Largest target is 80
  1372                           ;!		 -> dbuf(BANK1[80]), main@data(BANK0[10]), 
  1373                           ;!
  1374                           ;!    strlen@a	PTR const unsigned char  size(2) Largest target is 80
  1375                           ;!		 -> dbuf(BANK1[80]), main@data(BANK0[10]), 
  1376                           ;!
  1377                           ;!    strcpy@dest	PTR unsigned char  size(2) Largest target is 80
  1378                           ;!		 -> dbuf(BANK1[80]), main@data(BANK0[10]), 
  1379                           ;!
  1380                           ;!    strcpy@d	PTR unsigned char  size(2) Largest target is 80
  1381                           ;!		 -> dbuf(BANK1[80]), main@data(BANK0[10]), 
  1382                           ;!
  1383                           ;!    strcpy@src	PTR const unsigned char  size(2) Largest target is 80
  1384                           ;!		 -> STR_9(CODE[4]), STR_8(CODE[4]), STR_5(CODE[4]), STR_4(CODE[4]), 
  1385                           ;!		 -> dbuf(BANK1[80]), STR_3(CODE[4]), 
  1386                           ;!
  1387                           ;!    strcpy@s	PTR const unsigned char  size(2) Largest target is 80
  1388                           ;!		 -> STR_9(CODE[4]), STR_8(CODE[4]), STR_5(CODE[4]), STR_4(CODE[4]), 
  1389                           ;!		 -> dbuf(BANK1[80]), STR_3(CODE[4]), 
  1390                           ;!
  1391                           ;!    strcat@src	PTR const unsigned char  size(2) Largest target is 4
  1392                           ;!		 -> STR_3(CODE[4]), 
  1393                           ;!
  1394                           ;!    strcat@dest	PTR unsigned char  size(2) Largest target is 10
  1395                           ;!		 -> main@data(BANK0[10]), 
  1396                           ;!
  1397                           ;!    sprintf@fmt	PTR const unsigned char  size(2) Largest target is 5
  1398                           ;!		 -> STR_2(CODE[5]), 
  1399                           ;!
  1400                           ;!    sprintf@s	PTR unsigned char  size(2) Largest target is 10
  1401                           ;!		 -> main@data(BANK0[10]), 
  1402                           ;!
  1403                           ;!    sprintf@ap	PTR void [1] size(2) Largest target is 2
  1404                           ;!		 -> ?_sprintf(BANK0[2]), 
  1405                           ;!
  1406                           ;!    f.buffer	PTR unsigned char  size(2) Largest target is 10
  1407                           ;!		 -> main@data(BANK0[10]), 
  1408                           ;!
  1409                           ;!    fputs@s	PTR const unsigned char  size(2) Largest target is 80
  1410                           ;!		 -> dbuf(BANK1[80]), 
  1411                           ;!
  1412                           ;!    fputs@fp	PTR struct _IO_FILE size(2) Largest target is 7
  1413                           ;!		 -> sprintf@f(BANK0[6]), 
  1414                           ;!
  1415                           ;!    S990_IO_FILE$buffer	PTR unsigned char  size(2) Largest target is 10
  1416                           ;!		 -> main@data(BANK0[10]), 
  1417                           ;!
  1418                           ;!    fputc@fp.buffer	PTR unsigned char  size(2) Largest target is 10
  1419                           ;!		 -> main@data(BANK0[10]), 
  1420                           ;!
  1421                           ;!    fputc@fp	PTR struct _IO_FILE size(2) Largest target is 7
  1422                           ;!		 -> sprintf@f(BANK0[6]), 
  1423                           ;!
  1424                           ;!    atoi@s	PTR const unsigned char  size(2) Largest target is 5
  1425                           ;!		 -> STR_2(CODE[5]), 
  1426                           ;!
  1427                           ;!    vfprintf@ap	PTR PTR void  size(2) Largest target is 2
  1428                           ;!		 -> sprintf@ap(BANK0[2]), 
  1429                           ;!
  1430                           ;!    vfprintf@fp	PTR struct _IO_FILE size(2) Largest target is 7
  1431                           ;!		 -> sprintf@f(BANK0[6]), 
  1432                           ;!
  1433                           ;!    vfprintf@fmt	PTR const unsigned char  size(2) Largest target is 5
  1434                           ;!		 -> STR_2(CODE[5]), 
  1435                           ;!
  1436                           ;!    vfprintf@cfmt	PTR unsigned char  size(2) Largest target is 5
  1437                           ;!		 -> STR_2(CODE[5]), 
  1438                           ;!
  1439                           ;!    vfpfcnvrt@fp	PTR struct _IO_FILE size(2) Largest target is 7
  1440                           ;!		 -> sprintf@f(BANK0[6]), 
  1441                           ;!
  1442                           ;!    vfpfcnvrt@ap	PTR PTR void  size(2) Largest target is 2
  1443                           ;!		 -> sprintf@ap(BANK0[2]), 
  1444                           ;!
  1445                           ;!    vfpfcnvrt@fmt	PTR PTR unsigned char  size(2) Largest target is 2
  1446                           ;!		 -> vfprintf@cfmt(COMRAM[2]), 
  1447                           ;!
  1448                           ;!    efgtoa@fp	PTR struct _IO_FILE size(2) Largest target is 7
  1449                           ;!		 -> sprintf@f(BANK0[6]), 
  1450                           ;!
  1451                           ;!    sp__strcpy	PTR unsigned char  size(2) Largest target is 80
  1452                           ;!		 -> dbuf(BANK1[80]), main@data(BANK0[10]), 
  1453                           ;!
  1454                           ;!    pad@fp	PTR struct _IO_FILE size(2) Largest target is 7
  1455                           ;!		 -> sprintf@f(BANK0[6]), 
  1456                           ;!
  1457                           ;!    pad@buf	PTR unsigned char  size(2) Largest target is 80
  1458                           ;!		 -> dbuf(BANK1[80]), 
  1459                           ;!
  1460                           ;!    sp__strcat	PTR unsigned char  size(2) Largest target is 10
  1461                           ;!		 -> main@data(BANK0[10]), 
  1462                           ;!
  1463                           ;!    Lcd_Out2@buffer	PTR unsigned char  size(2) Largest target is 10
  1464                           ;!		 -> main@data(BANK0[10]), 
  1465                           ;!
  1466                           ;!    Lcd_Out@buffer	PTR const unsigned char  size(2) Largest target is 14
  1467                           ;!		 -> STR_1(CODE[14]), 
  1468                           ;!
  1469                           
  1470                           
  1471                           ;!
  1472                           ;!Critical Paths under _main in COMRAM
  1473                           ;!
  1474                           ;!    _strcat->_strcpy
  1475                           ;!    _sprintf->_vfprintf
  1476                           ;!    _vfprintf->_vfpfcnvrt
  1477                           ;!    _vfpfcnvrt->_efgtoa
  1478                           ;!    _efgtoa->___flge
  1479                           ;!    _tolower->_isupper
  1480                           ;!    _strcpy->_strlen
  1481                           ;!    _pad->_fputs
  1482                           ;!    _fputs->_fputc
  1483                           ;!    _floorf->___fldiv
  1484                           ;!    ___flsub->___flmul
  1485                           ;!    ___flmul->___xxtofl
  1486                           ;!    ___flge->___flmul
  1487                           ;!    _atoi->_isspace
  1488                           ;!    _Lcd_Out2->_Lcd_Chr_CP
  1489                           ;!    _Lcd_Out2->_Lcd_Cmd
  1490                           ;!    _Lcd_Out->_Lcd_Chr_CP
  1491                           ;!    _Lcd_Out->_Lcd_Cmd
  1492                           ;!    _Lcd_Init->_Lcd_Cmd
  1493                           ;!
  1494                           ;!Critical Paths under _main in BANK0
  1495                           ;!
  1496                           ;!    _main->_sprintf
  1497                           ;!    _vfpfcnvrt->_efgtoa
  1498                           ;!
  1499                           ;!Critical Paths under _main in BANK1
  1500                           ;!
  1501                           ;!    None.
  1502                           ;!
  1503                           ;!Critical Paths under _main in BANK2
  1504                           ;!
  1505                           ;!    None.
  1506                           ;!
  1507                           ;!Critical Paths under _main in BANK3
  1508                           ;!
  1509                           ;!    None.
  1510                           ;!
  1511                           ;!Critical Paths under _main in BANK4
  1512                           ;!
  1513                           ;!    None.
  1514                           ;!
  1515                           ;!Critical Paths under _main in BANK5
  1516                           ;!
  1517                           ;!    None.
  1518                           ;!
  1519                           ;!Critical Paths under _main in BANK6
  1520                           ;!
  1521                           ;!    None.
  1522                           ;!
  1523                           ;!Critical Paths under _main in BANK7
  1524                           ;!
  1525                           ;!    None.
  1526                           
  1527 ;;
  1528 ;;Main: autosize = 0, tempsize = 2, incstack = 0, save=0
  1529 ;;
  1530                           
  1531                           ;!
  1532                           ;!Call Graph Tables:
  1533                           ;!
  1534                           ;! ---------------------------------------------------------------------------------
  1535                           ;! (Depth) Function   	        Calls       Base Space   Used Autos Params    Refs
  1536                           ;! ---------------------------------------------------------------------------------
  1537                           ;! (0) _main                                                18    18      0   35399
  1538                           ;!                                             93 COMRAM     2     2      0
  1539                           ;!                                             74 BANK0     16    16      0
  1540                           ;!                           _ADC_Init
  1541                           ;!                           _ADC_Read
  1542                           ;!                            _Buzzer1
  1543                           ;!                            _Lcd_Cmd
  1544                           ;!                           _Lcd_Init
  1545                           ;!                            _Lcd_Out
  1546                           ;!                           _Lcd_Out2
  1547                           ;!                             ___fleq
  1548                           ;!                            ___flmul
  1549                           ;!                           ___xxtofl
  1550                           ;!                            _sprintf
  1551                           ;!                             _strcat
  1552                           ;! ---------------------------------------------------------------------------------
  1553                           ;! (1) _strcat                                               4     0      4    1474
  1554                           ;!                                             16 COMRAM     4     0      4
  1555                           ;!                             _strcpy
  1556                           ;!                             _strlen
  1557                           ;! ---------------------------------------------------------------------------------
  1558                           ;! (1) _sprintf                                             18    10      8   28101
  1559                           ;!                                             56 BANK0     18    10      8
  1560                           ;!                           _vfprintf
  1561                           ;! ---------------------------------------------------------------------------------
  1562                           ;! (2) _vfprintf                                             8     2      6   27744
  1563                           ;!                                             85 COMRAM     8     2      6
  1564                           ;!                          _vfpfcnvrt
  1565                           ;! ---------------------------------------------------------------------------------
  1566                           ;! (3) _vfpfcnvrt                                           48    42      6   27372
  1567                           ;!                                             63 COMRAM    22    16      6
  1568                           ;!                               _atoi
  1569                           ;!                             _efgtoa
  1570                           ;!                              _fputc
  1571                           ;!                            _isdigit
  1572                           ;!                            _isupper
  1573                           ;!                            _strncmp
  1574                           ;!                            _tolower
  1575                           ;! ---------------------------------------------------------------------------------
  1576                           ;! (4) _strncmp                                             13     7      6     453
  1577                           ;!                                              0 COMRAM    13     7      6
  1578                           ;! ---------------------------------------------------------------------------------
  1579                           ;! (4) _efgtoa                                              68    61      7   22073
  1580                           ;!                                             51 COMRAM    12     5      7
  1581                           ;!                                              0 BANK0     56    56      0
  1582                           ;!                            ___awdiv
  1583                           ;!                            ___awmod
  1584                           ;!                            ___fladd
  1585                           ;!                            ___fldiv
  1586                           ;!                             ___fleq
  1587                           ;!                             ___flge
  1588                           ;!                            ___flmul
  1589                           ;!                            ___flneg
  1590                           ;!                            ___flsub
  1591                           ;!                            ___fltol
  1592                           ;!                      ___fpclassifyf
  1593                           ;!                             _floorf
  1594                           ;!                            _isupper
  1595                           ;!                                _pad
  1596                           ;!                             _strcpy
  1597                           ;!                            _tolower
  1598                           ;! ---------------------------------------------------------------------------------
  1599                           ;! (4) _tolower                                              8     6      2     944
  1600                           ;!                                              6 COMRAM     8     6      2
  1601                           ;!                            _isupper
  1602                           ;! ---------------------------------------------------------------------------------
  1603                           ;! (5) _isupper                                              6     4      2     465
  1604                           ;!                                              0 COMRAM     6     4      2
  1605                           ;! ---------------------------------------------------------------------------------
  1606                           ;! (2) _strcpy                                              10     6      4    1008
  1607                           ;!                                              6 COMRAM    10     6      4
  1608                           ;!                             _strlen (ARG)
  1609                           ;! ---------------------------------------------------------------------------------
  1610                           ;! (5) _pad                                                 11     5      6    3241
  1611                           ;!                                             16 COMRAM    11     5      6
  1612                           ;!                              _fputc
  1613                           ;!                              _fputs
  1614                           ;!                             _strlen
  1615                           ;! ---------------------------------------------------------------------------------
  1616                           ;! (2) _strlen                                               6     4      2     242
  1617                           ;!                                              0 COMRAM     6     4      2
  1618                           ;! ---------------------------------------------------------------------------------
  1619                           ;! (6) _fputs                                                7     3      4    1235
  1620                           ;!                                              9 COMRAM     7     3      4
  1621                           ;!                              _fputc
  1622                           ;! ---------------------------------------------------------------------------------
  1623                           ;! (4) _fputc                                                9     5      4     834
  1624                           ;!                                              0 COMRAM     9     5      4
  1625                           ;!                              _putch
  1626                           ;! ---------------------------------------------------------------------------------
  1627                           ;! (5) _putch                                                1     1      0       0
  1628                           ;! ---------------------------------------------------------------------------------
  1629                           ;! (5) _floorf                                              20    16      4     490
  1630                           ;!                                             25 COMRAM    20    16      4
  1631                           ;!                            ___fldiv (ARG)
  1632                           ;! ---------------------------------------------------------------------------------
  1633                           ;! (5) ___fpclassifyf                                       14    10      4     287
  1634                           ;!                                              0 COMRAM    14    10      4
  1635                           ;! ---------------------------------------------------------------------------------
  1636                           ;! (5) ___fltol                                             10     6      4     381
  1637                           ;!                                              0 COMRAM    10     6      4
  1638                           ;! ---------------------------------------------------------------------------------
  1639                           ;! (5) ___flsub                                              8     0      8    2889
  1640                           ;!                                             39 COMRAM     8     0      8
  1641                           ;!                            ___fladd
  1642                           ;!                            ___flmul (ARG)
  1643                           ;! ---------------------------------------------------------------------------------
  1644                           ;! (6) ___fladd                                             20    12      8    2414
  1645                           ;!                                              0 COMRAM    20    12      8
  1646                           ;! ---------------------------------------------------------------------------------
  1647                           ;! (5) ___flneg                                              4     0      4     121
  1648                           ;!                                              0 COMRAM     4     0      4
  1649                           ;! ---------------------------------------------------------------------------------
  1650                           ;! (5) ___flmul                                             25    17      8    2504
  1651                           ;!                                             14 COMRAM    25    17      8
  1652                           ;!                           ___xxtofl (ARG)
  1653                           ;! ---------------------------------------------------------------------------------
  1654                           ;! (5) ___flge                                              12     4      8     638
  1655                           ;!                                             39 COMRAM    12     4      8
  1656                           ;!                            ___flmul (ARG)
  1657                           ;! ---------------------------------------------------------------------------------
  1658                           ;! (5) ___fleq                                              12     4      8     798
  1659                           ;!                                              0 COMRAM    12     4      8
  1660                           ;! ---------------------------------------------------------------------------------
  1661                           ;! (5) ___fldiv                                             25    17      8    2007
  1662                           ;!                                              0 COMRAM    25    17      8
  1663                           ;! ---------------------------------------------------------------------------------
  1664                           ;! (5) ___awmod                                              6     2      4     448
  1665                           ;!                                              0 COMRAM     6     2      4
  1666                           ;! ---------------------------------------------------------------------------------
  1667                           ;! (5) ___awdiv                                              8     4      4     452
  1668                           ;!                                              0 COMRAM     8     4      4
  1669                           ;! ---------------------------------------------------------------------------------
  1670                           ;! (4) _atoi                                                15    13      2    1152
  1671                           ;!                                              7 COMRAM    15    13      2
  1672                           ;!                             ___wmul
  1673                           ;!                            _isdigit
  1674                           ;!                            _isspace
  1675                           ;! ---------------------------------------------------------------------------------
  1676                           ;! (5) _isspace                                              7     5      2     207
  1677                           ;!                                              0 COMRAM     7     5      2
  1678                           ;! ---------------------------------------------------------------------------------
  1679                           ;! (4) _isdigit                                              6     4      2     237
  1680                           ;!                                              0 COMRAM     6     4      2
  1681                           ;! ---------------------------------------------------------------------------------
  1682                           ;! (5) ___wmul                                               6     2      4     311
  1683                           ;!                                              0 COMRAM     6     2      4
  1684                           ;! ---------------------------------------------------------------------------------
  1685                           ;! (1) ___xxtofl                                            14    10      4     398
  1686                           ;!                                              0 COMRAM    14    10      4
  1687                           ;! ---------------------------------------------------------------------------------
  1688                           ;! (1) _Lcd_Out2                                             7     4      3     685
  1689                           ;!                                              3 COMRAM     7     4      3
  1690                           ;!                         _Lcd_Chr_CP
  1691                           ;!                            _Lcd_Cmd
  1692                           ;! ---------------------------------------------------------------------------------
  1693                           ;! (1) _Lcd_Out                                              7     4      3     685
  1694                           ;!                                              3 COMRAM     7     4      3
  1695                           ;!                         _Lcd_Chr_CP
  1696                           ;!                            _Lcd_Cmd
  1697                           ;! ---------------------------------------------------------------------------------
  1698                           ;! (2) _Lcd_Chr_CP                                           3     3      0     176
  1699                           ;!                                              0 COMRAM     3     3      0
  1700                           ;! ---------------------------------------------------------------------------------
  1701                           ;! (1) _Lcd_Init                                             2     2      0     314
  1702                           ;!                                              3 COMRAM     2     2      0
  1703                           ;!                            _Lcd_Cmd
  1704                           ;! ---------------------------------------------------------------------------------
  1705                           ;! (2) _Lcd_Cmd                                              3     3      0     176
  1706                           ;!                                              0 COMRAM     3     3      0
  1707                           ;! ---------------------------------------------------------------------------------
  1708                           ;! (1) _Buzzer1                                              2     2      0       0
  1709                           ;!                                              0 COMRAM     2     2      0
  1710                           ;! ---------------------------------------------------------------------------------
  1711                           ;! (1) _ADC_Read                                             8     6      2     121
  1712                           ;!                                              0 COMRAM     8     6      2
  1713                           ;! ---------------------------------------------------------------------------------
  1714                           ;! (1) _ADC_Init                                             0     0      0       0
  1715                           ;! ---------------------------------------------------------------------------------
  1716                           ;! Estimated maximum stack depth 6
  1717                           ;! ---------------------------------------------------------------------------------
  1718                           ;!
  1719                           ;! Call Graph Graphs:
  1720                           ;!
  1721                           ;! _main (ROOT)
  1722                           ;!   _ADC_Init
  1723                           ;!   _ADC_Read
  1724                           ;!   _Buzzer1
  1725                           ;!   _Lcd_Cmd
  1726                           ;!   _Lcd_Init
  1727                           ;!     _Lcd_Cmd
  1728                           ;!   _Lcd_Out
  1729                           ;!     _Lcd_Chr_CP
  1730                           ;!     _Lcd_Cmd
  1731                           ;!   _Lcd_Out2
  1732                           ;!     _Lcd_Chr_CP
  1733                           ;!     _Lcd_Cmd
  1734                           ;!   ___fleq
  1735                           ;!   ___flmul
  1736                           ;!     ___xxtofl (ARG)
  1737                           ;!   ___xxtofl
  1738                           ;!   _sprintf
  1739                           ;!     _vfprintf
  1740                           ;!       _vfpfcnvrt
  1741                           ;!         _atoi
  1742                           ;!           ___wmul
  1743                           ;!           _isdigit
  1744                           ;!           _isspace
  1745                           ;!         _efgtoa
  1746                           ;!           ___awdiv
  1747                           ;!           ___awmod
  1748                           ;!           ___fladd
  1749                           ;!           ___fldiv
  1750                           ;!           ___fleq
  1751                           ;!           ___flge
  1752                           ;!             ___flmul (ARG)
  1753                           ;!               ___xxtofl (ARG)
  1754                           ;!           ___flmul
  1755                           ;!             ___xxtofl (ARG)
  1756                           ;!           ___flneg
  1757                           ;!           ___flsub
  1758                           ;!             ___fladd
  1759                           ;!             ___flmul (ARG)
  1760                           ;!               ___xxtofl (ARG)
  1761                           ;!           ___fltol
  1762                           ;!           ___fpclassifyf
  1763                           ;!           _floorf
  1764                           ;!             ___fldiv (ARG)
  1765                           ;!           _isupper
  1766                           ;!           _pad
  1767                           ;!             _fputc
  1768                           ;!               _putch
  1769                           ;!             _fputs
  1770                           ;!               _fputc
  1771                           ;!                 _putch
  1772                           ;!             _strlen
  1773                           ;!           _strcpy
  1774                           ;!             _strlen (ARG)
  1775                           ;!           _tolower
  1776                           ;!             _isupper
  1777                           ;!         _fputc
  1778                           ;!           _putch
  1779                           ;!         _isdigit
  1780                           ;!         _isupper
  1781                           ;!         _strncmp
  1782                           ;!         _tolower
  1783                           ;!           _isupper
  1784                           ;!   _strcat
  1785                           ;!     _strcpy
  1786                           ;!       _strlen (ARG)
  1787                           ;!     _strlen
  1788                           ;!
  1789                           
  1790                           ;! Address spaces:
  1791                           
  1792                           ;!Name               Size   Autos  Total    Cost      Usage
  1793                           ;!BIGRAM             7FF      0       0      21        0.0%
  1794                           ;!EEDATA             100      0       0       0        0.0%
  1795                           ;!BITBANK7           100      0       0      19        0.0%
  1796                           ;!BANK7              100      0       0      20        0.0%
  1797                           ;!BITBANK6           100      0       0      17        0.0%
  1798                           ;!BANK6              100      0       0      18        0.0%
  1799                           ;!BITBANK5           100      0       0      15        0.0%
  1800                           ;!BANK5              100      0       0      16        0.0%
  1801                           ;!BITBANK4           100      0       0      13        0.0%
  1802                           ;!BANK4              100      0       0      14        0.0%
  1803                           ;!BITBANK3           100      0       0      11        0.0%
  1804                           ;!BANK3              100      0       0      12        0.0%
  1805                           ;!BITBANK2           100      0       0       9        0.0%
  1806                           ;!BANK2              100      0       0      10        0.0%
  1807                           ;!BITBANK1           100      0       0       7        0.0%
  1808                           ;!BANK1              100      0      50       8       31.2%
  1809                           ;!BITBANK0            A0      0       0       4        0.0%
  1810                           ;!BANK0               A0     5A      6A       5       66.2%
  1811                           ;!BITCOMRAM           5F      0       0       0        0.0%
  1812                           ;!COMRAM              5F     5F      5F       1      100.0%
  1813                           ;!BITSFR_1             0      0       0     200        0.0%
  1814                           ;!SFR_1                0      0       0     200        0.0%
  1815                           ;!BITSFR               0      0       0     200        0.0%
  1816                           ;!SFR                  0      0       0     200        0.0%
  1817                           ;!STACK                0      0       0       2        0.0%
  1818                           ;!NULL                 0      0       0       0        0.0%
  1819                           ;!ABS                  0      0     119       6        0.0%
  1820                           ;!DATA                 0      0     119       3        0.0%
  1821                           ;!CODE                 0      0       0       0        0.0%
  1822                           
  1823                           	global	_main
  1824                           
  1825 ;; *************** function _main *****************
  1826 ;; Defined at:
  1827 ;;		line 24 in file "main.c"
  1828 ;; Parameters:    Size  Location     Type
  1829 ;;		None
  1830 ;; Auto vars:     Size  Location     Type
  1831 ;;  data           10   74[BANK0 ] unsigned char [10]
  1832 ;;  voltage         4   86[BANK0 ] float 
  1833 ;;  digital         2   84[BANK0 ] int 
  1834 ;; Return value:  Size  Location     Type
  1835 ;;                  1    wreg      void 
  1836 ;; Registers used:
  1837 ;;		wreg, fsr1l, fsr1h, fsr2l, fsr2h, status,2, status,0, tblptrl, tblptrh, tblptru, prodl, prodh, cstack
  1838 ;; Tracked objects:
  1839 ;;		On entry : 0/0
  1840 ;;		On exit  : 0/0
  1841 ;;		Unchanged: 0/0
  1842 ;; Data sizes:     COMRAM   BANK0   BANK1   BANK2   BANK3   BANK4   BANK5   BANK6   BANK7
  1843 ;;      Params:         0       0       0       0       0       0       0       0       0
  1844 ;;      Locals:         0      16       0       0       0       0       0       0       0
  1845 ;;      Temps:          2       0       0       0       0       0       0       0       0
  1846 ;;      Totals:         2      16       0       0       0       0       0       0       0
  1847 ;;Total ram usage:       18 bytes
  1848 ;; Hardware stack levels required when called:    8
  1849 ;; This function calls:
  1850 ;;		_ADC_Init
  1851 ;;		_ADC_Read
  1852 ;;		_Buzzer1
  1853 ;;		_Lcd_Cmd
  1854 ;;		_Lcd_Init
  1855 ;;		_Lcd_Out
  1856 ;;		_Lcd_Out2
  1857 ;;		___fleq
  1858 ;;		___flmul
  1859 ;;		___xxtofl
  1860 ;;		_sprintf
  1861 ;;		_strcat
  1862 ;; This function is called by:
  1863 ;;		Startup code after reset
  1864 ;; This function uses a non-reentrant model
  1865 ;;
  1866                           psect	text0,class=CODE,space=0,reloc=2,group=0
  1867                           	file	"main.c"
  1868                           	line	24
  1869                           global __ptext0
  1870                           __ptext0:
  1871  003294                     psect	text0
  1872                           	file	"main.c"
  1873                           	line	24
  1874                           	global	__size_of_main
  1875                           	__size_of_main	equ	__end_of_main-_main
  1876  0000                     	
  1877                           _main:
  1878  003294                     ;incstack = 0
  1879                           	opt	stack 23
  1880                           	line	29
  1881                           	
  1882                           l4266:
  1883  003294                     ;main.c: 26:     char data[10];;main.c: 27:     int digital;;main.c: 28:     float volta
                                 ge;;main.c: 29:     OSCCON=0x72;
  1884                           	movlw	low(072h)
  1885  003294  0E72               	movwf	((c:4051)),c	;volatile
  1886  003296  6ED3               	line	30
  1887                           	
  1888                           l4268:
  1889  003298                     ;main.c: 30:     Lcd_Init();
  1890                           	call	_Lcd_Init	;wreg free
  1891  003298  ECA3  F018         	line	31
  1892                           	
  1893                           l4270:
  1894  00329C                     ;main.c: 31:     ADC_Init();
  1895                           	call	_ADC_Init	;wreg free
  1896  00329C  EC62  F021         	line	32
  1897                           	
  1898                           l4272:
  1899  0032A0                     ;main.c: 32:     ANSELA=0;
  1900                           	movlw	low(0)
  1901  0032A0  0E00               	movlb	15	; () banked
  1902  0032A2  010F               	movwf	((3931))&0ffh	;volatile
  1903  0032A4  6F5B               	line	33
  1904                           	
  1905                           l4274:; BSR set to: 15
  1906  0032A6                     
  1907                           ;main.c: 33:     PORTA=0;
  1908                           	movlw	low(0)
  1909  0032A6  0E00               	movwf	((c:3968)),c	;volatile
  1910  0032A8  6E80               	line	34
  1911                           	
  1912                           l4276:; BSR set to: 15
  1913  0032AA                     
  1914                           ;main.c: 34:     TRISA=0;
  1915                           	movlw	low(0)
  1916  0032AA  0E00               	movwf	((c:3986)),c	;volatile
  1917  0032AC  6E92               	line	35
  1918                           	
  1919                           l4278:; BSR set to: 15
  1920  0032AE                     
  1921                           ;main.c: 35:     ANSELEbits.ANSE1=0;
  1922                           	bcf	((3935))&0ffh,1	;volatile
  1923  0032AE  935F               	line	36
  1924                           	
  1925                           l4280:; BSR set to: 15
  1926  0032B0                     
  1927                           ;main.c: 36:     TRISEbits.RE1=0;
  1928                           	bcf	((c:3990)),c,1	;volatile
  1929  0032B0  9296               	line	37
  1930                           	
  1931                           l4282:; BSR set to: 15
  1932  0032B2                     
  1933                           ;main.c: 37:     Lcd_Out(1,1,"Voltage is...");
  1934                           	movlw	low(01h)
  1935  0032B2  0E01               	movwf	((c:Lcd_Out@x)),c
  1936  0032B4  6E04               		movlw	low(STR_1)
  1937  0032B6  0E01               	movwf	((c:Lcd_Out@buffer)),c
  1938  0032B8  6E05               	movlw	high(STR_1)
  1939  0032BA  0E08               	movwf	((c:Lcd_Out@buffer+1)),c
  1940  0032BC  6E06               
  1941                           	movlw	(01h)&0ffh
  1942  0032BE  0E01               	
  1943                           	call	_Lcd_Out
  1944  0032C0  EC36  F01E         	line	39
  1945                           	
  1946                           l4284:
  1947  0032C4                     ;main.c: 39:     Lcd_Cmd(12);
  1948                           	movlw	(0Ch)&0ffh
  1949  0032C4  0E0C               	
  1950                           	call	_Lcd_Cmd
  1951  0032C6  EC83  F01A         	goto	l4286
  1952  0032CA  EF67  F019         	line	40
  1953                           ;main.c: 40:     while(1)
  1954                           	
  1955                           l104:
  1956  0032CE                     	line	42
  1957                           	
  1958                           l4286:
  1959  0032CE                     ;main.c: 41:     {;main.c: 42:         digital=ADC_Read(5);
  1960                           	movlw	high(05h)
  1961  0032CE  0E00               	movwf	((c:ADC_Read@channel+1)),c
  1962  0032D0  6E02               	movlw	low(05h)
  1963  0032D2  0E05               	movwf	((c:ADC_Read@channel)),c
  1964  0032D4  6E01               	call	_ADC_Read	;wreg free
  1965  0032D6  ECE7  F01E         	movff	0+?_ADC_Read,(main@digital)
  1966  0032DA  C001  F0B4         	movff	1+?_ADC_Read,(main@digital+1)
  1967  0032DE  C002  F0B5         	line	45
  1968                           	
  1969                           l4288:
  1970  0032E2                     ;main.c: 45:         voltage= digital*((float)5.00/(float)1024);
  1971                           	movff	(main@digital),(c:___xxtofl@val)
  1972  0032E2  C0B4  F001         	movff	(main@digital+1),(c:___xxtofl@val+1)
  1973  0032E6  C0B5  F002         	movlw	0
  1974  0032EA  0E00               	btfsc	((c:___xxtofl@val+1)),c,7
  1975  0032EC  BE02               	movlw	-1
  1976  0032EE  0EFF               	movwf	((c:___xxtofl@val+2)),c
  1977  0032F0  6E03               	movwf	((c:___xxtofl@val+3)),c
  1978  0032F2  6E04               	movlw	(01h)&0ffh
  1979  0032F4  0E01               	
  1980                           	call	___xxtofl
  1981  0032F6  EC58  F016         	movff	0+?___xxtofl,(c:___flmul@b)
  1982  0032FA  C001  F00F         	movff	1+?___xxtofl,(c:___flmul@b+1)
  1983  0032FE  C002  F010         	movff	2+?___xxtofl,(c:___flmul@b+2)
  1984  003302  C003  F011         	movff	3+?___xxtofl,(c:___flmul@b+3)
  1985  003306  C004  F012         	
  1986                           	movlw	low(normalize32(0x3ba00000))
  1987  00330A  0E00               	movwf	((c:___flmul@a)),c
  1988  00330C  6E13               	movlw	high(normalize32(0x3ba00000))
  1989  00330E  0E00               	movwf	((c:___flmul@a+1)),c
  1990  003310  6E14               	movlw	low highword(normalize32(0x3ba00000))
  1991  003312  0EA0               	movwf	((c:___flmul@a+2)),c
  1992  003314  6E15               	movlw	high highword(normalize32(0x3ba00000))
  1993  003316  0E3B               	movwf	((c:___flmul@a+3)),c
  1994  003318  6E16               	call	___flmul	;wreg free
  1995  00331A  ECF1  F00F         	movff	0+?___flmul,(main@voltage)
  1996  00331E  C00F  F0B6         	movff	1+?___flmul,(main@voltage+1)
  1997  003322  C010  F0B7         	movff	2+?___flmul,(main@voltage+2)
  1998  003326  C011  F0B8         	movff	3+?___flmul,(main@voltage+3)
  1999  00332A  C012  F0B9         	
  2000                           	line	48
  2001                           	
  2002                           l4290:
  2003  00332E                     ;main.c: 48:         sprintf(data,"%.2f",voltage);
  2004                           		movlw	low(main@data)
  2005  00332E  0EAA               	movlb	0	; () banked
  2006  003330  0100               	movwf	((sprintf@s))&0ffh
  2007  003332  6F98               	movlw	high(main@data)
  2008  003334  0E00               	movwf	((sprintf@s+1))&0ffh
  2009  003336  6F99               
  2010                           		movlw	low(STR_2)
  2011  003338  0E0F               	movwf	((sprintf@fmt))&0ffh
  2012  00333A  6F9A               	movlw	high(STR_2)
  2013  00333C  0E08               	movwf	((sprintf@fmt+1))&0ffh
  2014  00333E  6F9B               
  2015                           	movff	(main@voltage),0+(?_sprintf+04h)
  2016  003340  C0B6  F09C         	movff	(main@voltage+1),1+(?_sprintf+04h)
  2017  003344  C0B7  F09D         	movff	(main@voltage+2),2+(?_sprintf+04h)
  2018  003348  C0B8  F09E         	movff	(main@voltage+3),3+(?_sprintf+04h)
  2019  00334C  C0B9  F09F         	call	_sprintf	;wreg free
  2020  003350  ECE2  F01F         	line	50
  2021                           	
  2022                           l4292:
  2023  003354                     ;main.c: 50:         strcat(data," mV");
  2024                           		movlw	low(main@data)
  2025  003354  0EAA               	movwf	((c:strcat@dest)),c
  2026  003356  6E11               	movlw	high(main@data)
  2027  003358  0E00               	movwf	((c:strcat@dest+1)),c
  2028  00335A  6E12               
  2029                           		movlw	low(STR_3)
  2030  00335C  0E24               	movwf	((c:strcat@src)),c
  2031  00335E  6E13               	movlw	high(STR_3)
  2032  003360  0E08               	movwf	((c:strcat@src+1)),c
  2033  003362  6E14               
  2034                           	call	_strcat	;wreg free
  2035  003364  EC27  F021         	line	51
  2036                           	
  2037                           l4294:
  2038  003368                     ;main.c: 51:         Lcd_Out2(2,4,data);
  2039                           	movlw	low(04h)
  2040  003368  0E04               	movwf	((c:Lcd_Out2@x)),c
  2041  00336A  6E04               		movlw	low(main@data)
  2042  00336C  0EAA               	movwf	((c:Lcd_Out2@buffer)),c
  2043  00336E  6E05               	movlw	high(main@data)
  2044  003370  0E00               	movwf	((c:Lcd_Out2@buffer+1)),c
  2045  003372  6E06               
  2046                           	movlw	(02h)&0ffh
  2047  003374  0E02               	
  2048                           	call	_Lcd_Out2
  2049  003376  EC90  F01E         	line	52
  2050                           	
  2051                           l4296:
  2052  00337A                     ;main.c: 52:         _delay((unsigned long)((1000)*(4000000/4000.0)));
  2053                           	opt asmopt_push
  2054                           opt asmopt_off
  2055                           movlw  6
  2056  00337A  0E06               movwf	(??_main+0+0+1)&0ffh,c,f
  2057  00337C  6E5F               movlw	19
  2058  00337E  0E13               movwf	(??_main+0+0)&0ffh,c,f
  2059  003380  6E5E               	movlw	174
  2060  003382  0EAE               u5097:
  2061  003384                     decfsz	wreg,f
  2062  003384  2EE8               	bra	u5097
  2063  003386  D7FE               	decfsz	(??_main+0+0)&0ffh,c,f
  2064  003388  2E5E               	bra	u5097
  2065  00338A  D7FC               	decfsz	(??_main+0+0+1)&0ffh,c,f
  2066  00338C  2E5F               	bra	u5097
  2067  00338E  D7FA               opt asmopt_pop
  2068                           
  2069                           	line	53
  2070                           	
  2071                           l4298:
  2072  003390                     ;main.c: 53:     if(voltage==5){
  2073                           	movff	(main@voltage),(c:___fleq@ff1)
  2074  003390  C0B6  F001         	movff	(main@voltage+1),(c:___fleq@ff1+1)
  2075  003394  C0B7  F002         	movff	(main@voltage+2),(c:___fleq@ff1+2)
  2076  003398  C0B8  F003         	movff	(main@voltage+3),(c:___fleq@ff1+3)
  2077  00339C  C0B9  F004         	movlw	low(normalize32(0x40a00000))
  2078  0033A0  0E00               	movwf	((c:___fleq@ff2)),c
  2079  0033A2  6E05               	movlw	high(normalize32(0x40a00000))
  2080  0033A4  0E00               	movwf	((c:___fleq@ff2+1)),c
  2081  0033A6  6E06               	movlw	low highword(normalize32(0x40a00000))
  2082  0033A8  0EA0               	movwf	((c:___fleq@ff2+2)),c
  2083  0033AA  6E07               	movlw	high highword(normalize32(0x40a00000))
  2084  0033AC  0E40               	movwf	((c:___fleq@ff2+3)),c
  2085  0033AE  6E08               	call	___fleq	;wreg free
  2086  0033B0  ECD9  F01D         	btfss	status,0
  2087  0033B4  A0D8               	goto	u5081
  2088  0033B6  EFDF  F019         	goto	u5080
  2089  0033BA  EFE1  F019         u5081:
  2090  0033BE                     	goto	l4286
  2091  0033BE  EF67  F019         u5080:
  2092  0033C2                     	line	54
  2093                           	
  2094                           l4300:
  2095  0033C2                     ;main.c: 54:         Buzzer1();
  2096                           	call	_Buzzer1	;wreg free
  2097  0033C2  EC0E  F021         	goto	l4286
  2098  0033C6  EF67  F019         	line	55
  2099                           ;main.c: 55:     }
  2100                           	
  2101                           l105:
  2102  0033CA                     	goto	l4286
  2103  0033CA  EF67  F019         	line	57
  2104                           ;main.c: 57:     }
  2105                           	
  2106                           l106:
  2107  0033CE                     	goto	l4286
  2108  0033CE  EF67  F019         	
  2109                           l107:
  2110  0033D2                     	line	59
  2111                           	
  2112                           l108:
  2113  0033D2                     	global	start
  2114                           	goto	start
  2115  0033D2  EF00  F000         	opt stack 0
  2116                           GLOBAL	__end_of_main
  2117                           	__end_of_main:
  2118  0033D6                     	signat	_main,89
  2119                           	global	_strcat
  2120                           
  2121 ;; *************** function _strcat *****************
  2122 ;; Defined at:
  2123 ;;		line 3 in file "/opt/microchip/xc8/v2.00/pic/sources/c99/common/strcat.c"
  2124 ;; Parameters:    Size  Location     Type
  2125 ;;  dest            2   16[COMRAM] PTR unsigned char 
  2126 ;;		 -> main@data(10), 
  2127 ;;  src             2   18[COMRAM] PTR const unsigned char 
  2128 ;;		 -> STR_3(4), 
  2129 ;; Auto vars:     Size  Location     Type
  2130 ;;		None
  2131 ;; Return value:  Size  Location     Type
  2132 ;;                  2   16[COMRAM] PTR unsigned char 
  2133 ;; Registers used:
  2134 ;;		wreg, fsr1l, fsr1h, fsr2l, fsr2h, status,2, status,0, tblptrl, tblptrh, tblptru, cstack
  2135 ;; Tracked objects:
  2136 ;;		On entry : 0/0
  2137 ;;		On exit  : 0/0
  2138 ;;		Unchanged: 0/0
  2139 ;; Data sizes:     COMRAM   BANK0   BANK1   BANK2   BANK3   BANK4   BANK5   BANK6   BANK7
  2140 ;;      Params:         4       0       0       0       0       0       0       0       0
  2141 ;;      Locals:         0       0       0       0       0       0       0       0       0
  2142 ;;      Temps:          0       0       0       0       0       0       0       0       0
  2143 ;;      Totals:         4       0       0       0       0       0       0       0       0
  2144 ;;Total ram usage:        4 bytes
  2145 ;; Hardware stack levels used:    1
  2146 ;; Hardware stack levels required when called:    1
  2147 ;; This function calls:
  2148 ;;		_strcpy
  2149 ;;		_strlen
  2150 ;; This function is called by:
  2151 ;;		_main
  2152 ;; This function uses a non-reentrant model
  2153 ;;
  2154                           psect	text1,class=CODE,space=0,reloc=2,group=2
  2155                           	file	"/opt/microchip/xc8/v2.00/pic/sources/c99/common/strcat.c"
  2156                           	line	3
  2157                           global __ptext1
  2158                           __ptext1:
  2159  00424E                     psect	text1
  2160                           	file	"/opt/microchip/xc8/v2.00/pic/sources/c99/common/strcat.c"
  2161                           	line	3
  2162                           	global	__size_of_strcat
  2163                           	__size_of_strcat	equ	__end_of_strcat-_strcat
  2164  0000                     	
  2165                           _strcat:
  2166  00424E                     ;incstack = 0
  2167                           	opt	stack 29
  2168                           	line	5
  2169                           	
  2170                           l4190:
  2171  00424E                     		movff	(c:strcat@dest),(c:strlen@s)
  2172  00424E  C011  F001         	movff	(c:strcat@dest+1),(c:strlen@s+1)
  2173  004252  C012  F002         
  2174                           	call	_strlen	;wreg free
  2175  004256  EC3E  F020         	movf	(0+?_strlen),c,w
  2176  00425A  5001               	addwf	((c:strcat@dest)),c,w
  2177  00425C  2411               	movwf	((c:strcpy@dest)),c
  2178  00425E  6E07               	movf	(1+?_strlen),c,w
  2179  004260  5002               	addwfc	((c:strcat@dest+1)),c,w
  2180  004262  2012               	movwf	1+((c:strcpy@dest)),c
  2181  004264  6E08               		movff	(c:strcat@src),(c:strcpy@src)
  2182  004266  C013  F009         	movff	(c:strcat@src+1),(c:strcpy@src+1)
  2183  00426A  C014  F00A         
  2184                           	call	_strcpy	;wreg free
  2185  00426E  EC7B  F01F         	goto	l1074
  2186  004272  EF3B  F021         	line	6
  2187                           	
  2188                           l4192:
  2189  004276                     	line	7
  2190                           ;	Return value of _strcat is never used
  2191                           	
  2192                           l1074:
  2193  004276                     	return	;funcret
  2194  004276  0012               	opt stack 0
  2195                           GLOBAL	__end_of_strcat
  2196                           	__end_of_strcat:
  2197  004278                     	signat	_strcat,8314
  2198                           	global	_sprintf
  2199                           
  2200 ;; *************** function _sprintf *****************
  2201 ;; Defined at:
  2202 ;;		line 9 in file "/opt/microchip/xc8/v2.00/pic/sources/c99/common/nf_sprintf.c"
  2203 ;; Parameters:    Size  Location     Type
  2204 ;;  s               2   56[BANK0 ] PTR unsigned char 
  2205 ;;		 -> main@data(10), 
  2206 ;;  fmt             2   58[BANK0 ] PTR const unsigned char 
  2207 ;;		 -> STR_2(5), 
  2208 ;; Auto vars:     Size  Location     Type
  2209 ;;  f               6   68[BANK0 ] struct _IO_FILE
  2210 ;;  ap              2   66[BANK0 ] PTR void [1]
  2211 ;;		 -> ?_sprintf(2), 
  2212 ;;  ret             2   64[BANK0 ] int 
  2213 ;; Return value:  Size  Location     Type
  2214 ;;                  2   56[BANK0 ] int 
  2215 ;; Registers used:
  2216 ;;		wreg, fsr1l, fsr1h, fsr2l, fsr2h, status,2, status,0, tblptrl, tblptrh, tblptru, prodl, prodh, cstack
  2217 ;; Tracked objects:
  2218 ;;		On entry : 0/0
  2219 ;;		On exit  : 0/0
  2220 ;;		Unchanged: 0/0
  2221 ;; Data sizes:     COMRAM   BANK0   BANK1   BANK2   BANK3   BANK4   BANK5   BANK6   BANK7
  2222 ;;      Params:         0       8       0       0       0       0       0       0       0
  2223 ;;      Locals:         0      10       0       0       0       0       0       0       0
  2224 ;;      Temps:          0       0       0       0       0       0       0       0       0
  2225 ;;      Totals:         0      18       0       0       0       0       0       0       0
  2226 ;;Total ram usage:       18 bytes
  2227 ;; Hardware stack levels used:    1
  2228 ;; Hardware stack levels required when called:    7
  2229 ;; This function calls:
  2230 ;;		_vfprintf
  2231 ;; This function is called by:
  2232 ;;		_main
  2233 ;; This function uses a non-reentrant model
  2234 ;;
  2235                           psect	text2,class=CODE,space=0,reloc=2,group=2
  2236                           	file	"/opt/microchip/xc8/v2.00/pic/sources/c99/common/nf_sprintf.c"
  2237                           	line	9
  2238                           global __ptext2
  2239                           __ptext2:
  2240  003FC4                     psect	text2
  2241                           	file	"/opt/microchip/xc8/v2.00/pic/sources/c99/common/nf_sprintf.c"
  2242                           	line	9
  2243                           	global	__size_of_sprintf
  2244                           	__size_of_sprintf	equ	__end_of_sprintf-_sprintf
  2245  0000                     	
  2246                           _sprintf:
  2247  003FC4                     ;incstack = 0
  2248                           	opt	stack 23
  2249                           	line	15
  2250                           	
  2251                           l4178:
  2252  003FC4                     		movlw	low(?_sprintf+04h)
  2253  003FC4  0E9C               	movlb	0	; () banked
  2254  003FC6  0100               	movwf	((sprintf@ap))&0ffh
  2255  003FC8  6FA2               	movlw	high(?_sprintf+04h)
  2256  003FCA  0E00               	movwf	((sprintf@ap+1))&0ffh
  2257  003FCC  6FA3               
  2258                           	line	16
  2259                           		movff	(sprintf@s),(sprintf@f)
  2260  003FCE  C098  F0A4         	movff	(sprintf@s+1),(sprintf@f+1)
  2261  003FD2  C099  F0A5         
  2262                           	line	17
  2263                           	
  2264                           l4180:; BSR set to: 0
  2265  003FD6                     
  2266                           	movlw	high(0)
  2267  003FD6  0E00               	movwf	(1+(sprintf@f+02h))&0ffh
  2268  003FD8  6FA7               	movlw	low(0)
  2269  003FDA  0E00               	movwf	(0+(sprintf@f+02h))&0ffh
  2270  003FDC  6FA6               	line	18
  2271                           	
  2272                           l4182:; BSR set to: 0
  2273  003FDE                     
  2274                           	movlw	high(0)
  2275  003FDE  0E00               	movwf	(1+(sprintf@f+04h))&0ffh
  2276  003FE0  6FA9               	movlw	low(0)
  2277  003FE2  0E00               	movwf	(0+(sprintf@f+04h))&0ffh
  2278  003FE4  6FA8               	line	19
  2279                           	
  2280                           l4184:; BSR set to: 0
  2281  003FE6                     
  2282                           		movlw	low(sprintf@f)
  2283  003FE6  0EA4               	movwf	((c:vfprintf@fp)),c
  2284  003FE8  6E56               	movlw	high(sprintf@f)
  2285  003FEA  0E00               	movwf	((c:vfprintf@fp+1)),c
  2286  003FEC  6E57               
  2287                           		movff	(sprintf@fmt),(c:vfprintf@fmt)
  2288  003FEE  C09A  F058         	movff	(sprintf@fmt+1),(c:vfprintf@fmt+1)
  2289  003FF2  C09B  F059         
  2290                           		movlw	low(sprintf@ap)
  2291  003FF6  0EA2               	movwf	((c:vfprintf@ap)),c
  2292  003FF8  6E5A               	movlw	high(sprintf@ap)
  2293  003FFA  0E00               	movwf	((c:vfprintf@ap+1)),c
  2294  003FFC  6E5B               
  2295                           	call	_vfprintf	;wreg free
  2296  003FFE  ECAF  F01F         	movff	0+?_vfprintf,(sprintf@ret)
  2297  004002  C056  F0A0         	movff	1+?_vfprintf,(sprintf@ret+1)
  2298  004006  C057  F0A1         	line	20
  2299                           	
  2300                           l4186:
  2301  00400A                     	movlb	0	; () banked
  2302  00400A  0100               	movf	(0+(sprintf@f+02h))&0ffh,w
  2303  00400C  51A6               	addwf	((sprintf@s))&0ffh,w
  2304  00400E  2598               	movwf	c:fsr2l
  2305  004010  6ED9               	movf	(1+(sprintf@f+02h))&0ffh,w
  2306  004012  51A7               	addwfc	((sprintf@s+1))&0ffh,w
  2307  004014  2199               	movwf	1+c:fsr2l
  2308  004016  6EDA               	movlw	low(0)
  2309  004018  0E00               	movwf	indf2
  2310  00401A  6EDF               	goto	l1064
  2311  00401C  EF10  F020         	line	22
  2312                           	
  2313                           l4188:; BSR set to: 0
  2314  004020                     
  2315                           	line	23
  2316                           ;	Return value of _sprintf is never used
  2317                           	
  2318                           l1064:; BSR set to: 0
  2319  004020                     
  2320                           	return	;funcret
  2321  004020  0012               	opt stack 0
  2322                           GLOBAL	__end_of_sprintf
  2323                           	__end_of_sprintf:
  2324  004022                     	signat	_sprintf,4698
  2325                           	global	_vfprintf
  2326                           
  2327 ;; *************** function _vfprintf *****************
  2328 ;; Defined at:
  2329 ;;		line 1368 in file "/opt/microchip/xc8/v2.00/pic/sources/c99/common/doprnt.c"
  2330 ;; Parameters:    Size  Location     Type
  2331 ;;  fp              2   85[COMRAM] PTR struct _IO_FILE
  2332 ;;		 -> sprintf@f(6), 
  2333 ;;  fmt             2   87[COMRAM] PTR const unsigned char 
  2334 ;;		 -> STR_2(5), 
  2335 ;;  ap              2   89[COMRAM] PTR PTR void 
  2336 ;;		 -> sprintf@ap(2), 
  2337 ;; Auto vars:     Size  Location     Type
  2338 ;;  cfmt            2   91[COMRAM] PTR unsigned char 
  2339 ;;		 -> STR_2(5), 
  2340 ;; Return value:  Size  Location     Type
  2341 ;;                  2   85[COMRAM] int 
  2342 ;; Registers used:
  2343 ;;		wreg, fsr1l, fsr1h, fsr2l, fsr2h, status,2, status,0, tblptrl, tblptrh, tblptru, prodl, prodh, cstack
  2344 ;; Tracked objects:
  2345 ;;		On entry : 0/0
  2346 ;;		On exit  : 0/0
  2347 ;;		Unchanged: 0/0
  2348 ;; Data sizes:     COMRAM   BANK0   BANK1   BANK2   BANK3   BANK4   BANK5   BANK6   BANK7
  2349 ;;      Params:         6       0       0       0       0       0       0       0       0
  2350 ;;      Locals:         2       0       0       0       0       0       0       0       0
  2351 ;;      Temps:          0       0       0       0       0       0       0       0       0
  2352 ;;      Totals:         8       0       0       0       0       0       0       0       0
  2353 ;;Total ram usage:        8 bytes
  2354 ;; Hardware stack levels used:    1
  2355 ;; Hardware stack levels required when called:    6
  2356 ;; This function calls:
  2357 ;;		_vfpfcnvrt
  2358 ;; This function is called by:
  2359 ;;		_sprintf
  2360 ;; This function uses a non-reentrant model
  2361 ;;
  2362                           psect	text3,class=CODE,space=0,reloc=2,group=0
  2363                           	file	"/opt/microchip/xc8/v2.00/pic/sources/c99/common/doprnt.c"
  2364                           	line	1368
  2365                           global __ptext3
  2366                           __ptext3:
  2367  003F5E                     psect	text3
  2368                           	file	"/opt/microchip/xc8/v2.00/pic/sources/c99/common/doprnt.c"
  2369                           	line	1368
  2370                           	global	__size_of_vfprintf
  2371                           	__size_of_vfprintf	equ	__end_of_vfprintf-_vfprintf
  2372  0000                     	
  2373                           _vfprintf:; BSR set to: 0
  2374  003F5E                     
  2375                           ;incstack = 0
  2376                           	opt	stack 23
  2377                           	line	1373
  2378                           	
  2379                           l4038:
  2380  003F5E                     ;/opt/microchip/xc8/v2.00/pic/sources/c99/common/doprnt.c: 1368: int vfprintf(FILE *fp, 
                                 const char *fmt, va_list ap);/opt/microchip/xc8/v2.00/pic/sources/c99/common/doprnt.c: 1
                                 369: {;/opt/microchip/xc8/v2.00/pic/sources/c99/common/doprnt.c: 1371:     char *cfmt;;/
                                 opt/microchip/xc8/v2.00/pic/sources/c99/common/doprnt.c: 1373:     cfmt = (char *)fmt;
  2381                           		movff	(c:vfprintf@fmt),(c:vfprintf@cfmt)
  2382  003F5E  C058  F05C         	movff	(c:vfprintf@fmt+1),(c:vfprintf@cfmt+1)
  2383  003F62  C059  F05D         
  2384                           	line	1374
  2385                           	
  2386                           l4040:
  2387  003F66                     ;/opt/microchip/xc8/v2.00/pic/sources/c99/common/doprnt.c: 1374:     nout = 0;
  2388                           	movlw	high(0)
  2389  003F66  0E00               	movlb	0	; () banked
  2390  003F68  0100               	movwf	((_nout+1))&0ffh
  2391  003F6A  6FC3               	movlw	low(0)
  2392  003F6C  0E00               	movwf	((_nout))&0ffh
  2393  003F6E  6FC2               	line	1375
  2394                           ;/opt/microchip/xc8/v2.00/pic/sources/c99/common/doprnt.c: 1375:     while (*cfmt) {
  2395                           	goto	l4044
  2396  003F70  EFCF  F01F         	
  2397                           l286:; BSR set to: 0
  2398  003F74                     
  2399                           	line	1376
  2400                           	
  2401                           l4042:; BSR set to: 0
  2402  003F74                     
  2403                           ;/opt/microchip/xc8/v2.00/pic/sources/c99/common/doprnt.c: 1376:         nout += vfpfcnv
                                 rt(fp, &cfmt, ap);
  2404                           		movff	(c:vfprintf@fp),(c:vfpfcnvrt@fp)
  2405  003F74  C056  F040         	movff	(c:vfprintf@fp+1),(c:vfpfcnvrt@fp+1)
  2406  003F78  C057  F041         
  2407                           		movlw	low(vfprintf@cfmt)
  2408  003F7C  0E5C               	movwf	((c:vfpfcnvrt@fmt)),c
  2409  003F7E  6E42               	movlw	high(vfprintf@cfmt)
  2410  003F80  0E00               	movwf	((c:vfpfcnvrt@fmt+1)),c
  2411  003F82  6E43               
  2412                           		movff	(c:vfprintf@ap),(c:vfpfcnvrt@ap)
  2413  003F84  C05A  F044         	movff	(c:vfprintf@ap+1),(c:vfpfcnvrt@ap+1)
  2414  003F88  C05B  F045         
  2415                           	call	_vfpfcnvrt	;wreg free
  2416  003F8C  EC69  F00D         	movf	(0+?_vfpfcnvrt),c,w
  2417  003F90  5040               	movlb	0	; () banked
  2418  003F92  0100               	addwf	((_nout))&0ffh
  2419  003F94  27C2               	movf	(1+?_vfpfcnvrt),c,w
  2420  003F96  5041               	addwfc	((_nout+1))&0ffh
  2421  003F98  23C3               
  2422                           	goto	l4044
  2423  003F9A  EFCF  F01F         	line	1377
  2424                           ;/opt/microchip/xc8/v2.00/pic/sources/c99/common/doprnt.c: 1377:     }
  2425                           	
  2426                           l285:; BSR set to: 0
  2427  003F9E                     
  2428                           	line	1375
  2429                           	
  2430                           l4044:; BSR set to: 0
  2431  003F9E                     
  2432                           ;/opt/microchip/xc8/v2.00/pic/sources/c99/common/doprnt.c: 1375:     while (*cfmt) {
  2433                           	movff	(c:vfprintf@cfmt),tblptrl
  2434  003F9E  C05C  FFF6         	movff	(c:vfprintf@cfmt+1),tblptrh
  2435  003FA2  C05D  FFF7         	if	0	;tblptru may be non-zero
  2436  003FA6                     	clrf	tblptru
  2438  003FA6                     	if	0	;tblptru may be non-zero
  2439  003FA6                     	global __mediumconst
  2440                           movlw	low highword(__mediumconst)
  2443  003FA6                     	tblrd	*
  2444  003FA6  0008               	
  2445                           	movf	tablat,w
  2446  003FA8  50F5               	iorlw	0
  2447  003FAA  0900               	btfss	status,2
  2448  003FAC  A4D8               	goto	u4861
  2449  003FAE  EFDB  F01F         	goto	u4860
  2450  003FB2  EFDD  F01F         u4861:
  2451  003FB6                     	goto	l4042
  2452  003FB6  EFBA  F01F         u4860:
  2453  003FBA                     	
  2454                           l287:; BSR set to: 0
  2455  003FBA                     
  2456                           	line	1378
  2457                           ;/opt/microchip/xc8/v2.00/pic/sources/c99/common/doprnt.c: 1378:     return nout;
  2458                           	movff	(_nout),(c:?_vfprintf)
  2459  003FBA  C0C2  F056         	movff	(_nout+1),(c:?_vfprintf+1)
  2460  003FBE  C0C3  F057         	line	1382
  2461                           	
  2462                           l288:; BSR set to: 0
  2463  003FC2                     
  2464                           	return	;funcret
  2465  003FC2  0012               	opt stack 0
  2466                           GLOBAL	__end_of_vfprintf
  2467                           	__end_of_vfprintf:
  2468  003FC4                     	signat	_vfprintf,12410
  2469                           	global	_vfpfcnvrt
  2470                           
  2471 ;; *************** function _vfpfcnvrt *****************
  2472 ;; Defined at:
  2473 ;;		line 670 in file "/opt/microchip/xc8/v2.00/pic/sources/c99/common/doprnt.c"
  2474 ;; Parameters:    Size  Location     Type
  2475 ;;  fp              2   63[COMRAM] PTR struct _IO_FILE
  2476 ;;		 -> sprintf@f(6), 
  2477 ;;  fmt             2   65[COMRAM] PTR PTR unsigned char 
  2478 ;;		 -> vfprintf@cfmt(2), 
  2479 ;;  ap              2   67[COMRAM] PTR PTR void 
  2480 ;;		 -> sprintf@ap(2), 
  2481 ;; Auto vars:     Size  Location     Type
  2482 ;;  llu             8    0        unsigned long long 
  2483 ;;  ll              8    0        long long 
  2484 ;;  f               4   77[COMRAM] long long 
  2485 ;;  ct              3   81[COMRAM] unsigned char [3]
  2486 ;;  vp              3    0        PTR void 
  2487 ;;  cp              3    0        PTR unsigned char 
  2488 ;;  i               2    0        int 
  2489 ;;  done            2    0        int 
  2490 ;;  c               1   84[COMRAM] unsigned char 
  2491 ;; Return value:  Size  Location     Type
  2492 ;;                  2   63[COMRAM] int 
  2493 ;; Registers used:
  2494 ;;		wreg, fsr1l, fsr1h, fsr2l, fsr2h, status,2, status,0, tblptrl, tblptrh, tblptru, prodl, prodh, cstack
  2495 ;; Tracked objects:
  2496 ;;		On entry : 0/0
  2497 ;;		On exit  : 0/0
  2498 ;;		Unchanged: 0/0
  2499 ;; Data sizes:     COMRAM   BANK0   BANK1   BANK2   BANK3   BANK4   BANK5   BANK6   BANK7
  2500 ;;      Params:         6       0       0       0       0       0       0       0       0
  2501 ;;      Locals:        12       0       0       0       0       0       0       0       0
  2502 ;;      Temps:          4       0       0       0       0       0       0       0       0
  2503 ;;      Totals:        22       0       0       0       0       0       0       0       0
  2504 ;;Total ram usage:       22 bytes
  2505 ;; Hardware stack levels used:    1
  2506 ;; Hardware stack levels required when called:    5
  2507 ;; This function calls:
  2508 ;;		_atoi
  2509 ;;		_efgtoa
  2510 ;;		_fputc
  2511 ;;		_isdigit
  2512 ;;		_isupper
  2513 ;;		_strncmp
  2514 ;;		_tolower
  2515 ;; This function is called by:
  2516 ;;		_vfprintf
  2517 ;; This function uses a non-reentrant model
  2518 ;;
  2519                           psect	text4,class=CODE,space=0,reloc=2,group=0
  2520                           	line	670
  2521                           global __ptext4
  2522                           __ptext4:
  2523  001AD2                     psect	text4
  2524                           	file	"/opt/microchip/xc8/v2.00/pic/sources/c99/common/doprnt.c"
  2525                           	line	670
  2526                           	global	__size_of_vfpfcnvrt
  2527                           	__size_of_vfpfcnvrt	equ	__end_of_vfpfcnvrt-_vfpfcnvrt
  2528  0000                     	
  2529                           _vfpfcnvrt:; BSR set to: 0
  2530  001AD2                     
  2531                           ;incstack = 0
  2532                           	opt	stack 23
  2533                           	line	680
  2534                           	
  2535                           l3886:
  2536  001AD2                     ;/opt/microchip/xc8/v2.00/pic/sources/c99/common/doprnt.c: 670: static int vfpfcnvrt(FIL
                                 E *fp, char *fmt[], va_list ap);/opt/microchip/xc8/v2.00/pic/sources/c99/common/doprnt.c
                                 : 671: {;/opt/microchip/xc8/v2.00/pic/sources/c99/common/doprnt.c: 672:     char c, *cp,
                                  ct[3];;/opt/microchip/xc8/v2.00/pic/sources/c99/common/doprnt.c: 673:     int done, i;;
                                 /opt/microchip/xc8/v2.00/pic/sources/c99/common/doprnt.c: 674:     long long ll;;/opt/mi
                                 crochip/xc8/v2.00/pic/sources/c99/common/doprnt.c: 675:     unsigned long long llu;
  2537                           	movff	(c:vfpfcnvrt@fmt),fsr2l
  2538  001AD2  C042  FFD9         	movff	(c:vfpfcnvrt@fmt+1),fsr2h
  2539  001AD6  C043  FFDA         	movff	postinc2,tblptrl
  2540  001ADA  CFDE FFF6          	movff	postdec2,tblptrh
  2541  001ADE  CFDD FFF7          	if	0	;tblptru may be non-zero
  2542  001AE2                     	clrf	tblptru
  2544  001AE2                     	if	0	;tblptru may be non-zero
  2545  001AE2                     	global __mediumconst
  2546                           movlw	low highword(__mediumconst)
  2549  001AE2                     	tblrd	*
  2550  001AE2  0008               	
  2551                           	movf	tablat,w
  2552  001AE4  50F5               	xorlw	025h
  2553  001AE6  0A25               	btfss	status,2
  2554  001AE8  A4D8               	goto	u4661
  2555  001AEA  EF79  F00D         	goto	u4660
  2556  001AEE  EF7B  F00D         u4661:
  2557  001AF2                     	goto	l3968
  2558  001AF2  EFD1  F00F         u4660:
  2559  001AF6                     	line	681
  2560                           	
  2561                           l3888:
  2562  001AF6                     ;/opt/microchip/xc8/v2.00/pic/sources/c99/common/doprnt.c: 681:         ++*fmt;
  2563                           	movff	(c:vfpfcnvrt@fmt),fsr2l
  2564  001AF6  C042  FFD9         	movff	(c:vfpfcnvrt@fmt+1),fsr2h
  2565  001AFA  C043  FFDA         	incf	postinc2
  2566  001AFE  2ADE               	movlw	0
  2567  001B00  0E00               	addwfc	postdec2
  2568  001B02  22DD               	line	683
  2569                           	
  2570                           l3890:
  2571  001B04                     ;/opt/microchip/xc8/v2.00/pic/sources/c99/common/doprnt.c: 683:         flags = width = 
                                 0;
  2572                           	movlw	high(0)
  2573  001B04  0E00               	movlb	0	; () banked
  2574  001B06  0100               	movwf	((_width+1))&0ffh
  2575  001B08  6FC5               	movlw	low(0)
  2576  001B0A  0E00               	movwf	((_width))&0ffh
  2577  001B0C  6FC4               	movff	(_width),(_flags)
  2578  001B0E  C0C4  F0C8         	movff	(_width+1),(_flags+1)
  2579  001B12  C0C5  F0C9         	line	684
  2580                           	
  2581                           l3892:; BSR set to: 0
  2582  001B16                     
  2583                           ;/opt/microchip/xc8/v2.00/pic/sources/c99/common/doprnt.c: 684:         prec = -1;
  2584                           	setf	((_prec))&0ffh
  2585  001B16  69C6               	setf	((_prec+1))&0ffh
  2586  001B18  69C7               	line	740
  2587                           	
  2588                           l3894:; BSR set to: 0
  2589  001B1A                     
  2590                           ;/opt/microchip/xc8/v2.00/pic/sources/c99/common/doprnt.c: 740:         if ((*fmt)[0] ==
                                  '.') {
  2591                           	movff	(c:vfpfcnvrt@fmt),fsr2l
  2592  001B1A  C042  FFD9         	movff	(c:vfpfcnvrt@fmt+1),fsr2h
  2593  001B1E  C043  FFDA         	movff	postinc2,tblptrl
  2594  001B22  CFDE FFF6          	movff	postdec2,tblptrh
  2595  001B26  CFDD FFF7          	if	0	;tblptru may be non-zero
  2596  001B2A                     	clrf	tblptru
  2598  001B2A                     	if	0	;tblptru may be non-zero
  2599  001B2A                     	global __mediumconst
  2600                           movlw	low highword(__mediumconst)
  2603  001B2A                     	tblrd	*
  2604  001B2A  0008               	
  2605                           	movf	tablat,w
  2606  001B2C  50F5               	xorlw	02Eh
  2607  001B2E  0A2E               	btfss	status,2
  2608  001B30  A4D8               	goto	u4671
  2609  001B32  EF9D  F00D         	goto	u4670
  2610  001B36  EF9F  F00D         u4671:
  2611  001B3A                     	goto	l3914
  2612  001B3A  EF3A  F00E         u4670:
  2613  001B3E                     	line	741
  2614                           	
  2615                           l3896:; BSR set to: 0
  2616  001B3E                     
  2617                           ;/opt/microchip/xc8/v2.00/pic/sources/c99/common/doprnt.c: 741:             prec = 0;
  2618                           	movlw	high(0)
  2619  001B3E  0E00               	movwf	((_prec+1))&0ffh
  2620  001B40  6FC7               	movlw	low(0)
  2621  001B42  0E00               	movwf	((_prec))&0ffh
  2622  001B44  6FC6               	line	742
  2623                           	
  2624                           l3898:; BSR set to: 0
  2625  001B46                     
  2626                           ;/opt/microchip/xc8/v2.00/pic/sources/c99/common/doprnt.c: 742:             ++*fmt;
  2627                           	movff	(c:vfpfcnvrt@fmt),fsr2l
  2628  001B46  C042  FFD9         	movff	(c:vfpfcnvrt@fmt+1),fsr2h
  2629  001B4A  C043  FFDA         	incf	postinc2
  2630  001B4E  2ADE               	movlw	0
  2631  001B50  0E00               	addwfc	postdec2
  2632  001B52  22DD               	line	743
  2633                           	
  2634                           l3900:; BSR set to: 0
  2635  001B54                     
  2636                           ;/opt/microchip/xc8/v2.00/pic/sources/c99/common/doprnt.c: 743:             if ((*fmt)[0
                                 ] == '*') {
  2637                           	movff	(c:vfpfcnvrt@fmt),fsr2l
  2638  001B54  C042  FFD9         	movff	(c:vfpfcnvrt@fmt+1),fsr2h
  2639  001B58  C043  FFDA         	movff	postinc2,tblptrl
  2640  001B5C  CFDE FFF6          	movff	postdec2,tblptrh
  2641  001B60  CFDD FFF7          	if	0	;tblptru may be non-zero
  2642  001B64                     	clrf	tblptru
  2644  001B64                     	if	0	;tblptru may be non-zero
  2645  001B64                     	global __mediumconst
  2646                           movlw	low highword(__mediumconst)
  2649  001B64                     	tblrd	*
  2650  001B64  0008               	
  2651                           	movf	tablat,w
  2652  001B66  50F5               	xorlw	02Ah
  2653  001B68  0A2A               	btfss	status,2
  2654  001B6A  A4D8               	goto	u4681
  2655  001B6C  EFBA  F00D         	goto	u4680
  2656  001B70  EFBC  F00D         u4681:
  2657  001B74                     	goto	l3904
  2658  001B74  EFD9  F00D         u4680:
  2659  001B78                     	line	744
  2660                           	
  2661                           l3902:; BSR set to: 0
  2662  001B78                     
  2663                           ;/opt/microchip/xc8/v2.00/pic/sources/c99/common/doprnt.c: 744:                 ++*fmt;

  2664                           	movff	(c:vfpfcnvrt@fmt),fsr2l
  2665  001B78  C042  FFD9         	movff	(c:vfpfcnvrt@fmt+1),fsr2h
  2666  001B7C  C043  FFDA         	incf	postinc2
  2667  001B80  2ADE               	movlw	0
  2668  001B82  0E00               	addwfc	postdec2
  2669  001B84  22DD               	line	745
  2670                           ;/opt/microchip/xc8/v2.00/pic/sources/c99/common/doprnt.c: 745:                 prec = (
                                 *(int *)__va_arg(*(int **)ap, (int)0));
  2671                           	movff	(c:vfpfcnvrt@ap),fsr2l
  2672  001B86  C044  FFD9         	movff	(c:vfpfcnvrt@ap+1),fsr2h
  2673  001B8A  C045  FFDA         	movff	indf2,??_vfpfcnvrt+0+0
  2674  001B8E  CFDF F046          	movlw	low(02h)
  2675  001B92  0E02               	addwf	postinc2
  2676  001B94  26DE               	movff	indf2,??_vfpfcnvrt+0+0+1
  2677  001B96  CFDF F047          	movlw	high(02h)
  2678  001B9A  0E00               	addwfc	postdec2
  2679  001B9C  22DD               	movff	??_vfpfcnvrt+0+0,fsr2l
  2680  001B9E  C046  FFD9         	movff	??_vfpfcnvrt+0+1,fsr2h
  2681  001BA2  C047  FFDA         	movff	postinc2,(_prec)
  2682  001BA6  CFDE F0C6          	movff	postdec2,(_prec+1)
  2683  001BAA  CFDD F0C7          	line	746
  2684                           ;/opt/microchip/xc8/v2.00/pic/sources/c99/common/doprnt.c: 746:             } else {
  2685                           	goto	l3914
  2686  001BAE  EF3A  F00E         	
  2687                           l262:; BSR set to: 0
  2688  001BB2                     
  2689                           	line	747
  2690                           	
  2691                           l3904:; BSR set to: 0
  2692  001BB2                     
  2693                           ;/opt/microchip/xc8/v2.00/pic/sources/c99/common/doprnt.c: 747:                 prec = a
                                 toi(*fmt);
  2694                           	movff	(c:vfpfcnvrt@fmt),fsr2l
  2695  001BB2  C042  FFD9         	movff	(c:vfpfcnvrt@fmt+1),fsr2h
  2696  001BB6  C043  FFDA         	movff	postinc2,(c:atoi@s)
  2697  001BBA  CFDE F008          	movff	postdec2,(c:atoi@s+1)
  2698  001BBE  CFDD F009          	call	_atoi	;wreg free
  2699  001BC2  EC51  F015         	movff	0+?_atoi,(_prec)
  2700  001BC6  C008  F0C6         	movff	1+?_atoi,(_prec+1)
  2701  001BCA  C009  F0C7         	line	748
  2702                           ;/opt/microchip/xc8/v2.00/pic/sources/c99/common/doprnt.c: 748:                 while ((
                                 0 ? isdigit((*fmt)[0]) : ((unsigned)((*fmt)[0])-'0') < 10)) {
  2703                           	goto	l3908
  2704  001BCE  EFF2  F00D         	
  2705                           l265:
  2706  001BD2                     	line	749
  2707                           	
  2708                           l3906:
  2709  001BD2                     ;/opt/microchip/xc8/v2.00/pic/sources/c99/common/doprnt.c: 749:                     ++*f
                                 mt;
  2710                           	movff	(c:vfpfcnvrt@fmt),fsr2l
  2711  001BD2  C042  FFD9         	movff	(c:vfpfcnvrt@fmt+1),fsr2h
  2712  001BD6  C043  FFDA         	incf	postinc2
  2713  001BDA  2ADE               	movlw	0
  2714  001BDC  0E00               	addwfc	postdec2
  2715  001BDE  22DD               	goto	l3908
  2716  001BE0  EFF2  F00D         	line	750
  2717                           ;/opt/microchip/xc8/v2.00/pic/sources/c99/common/doprnt.c: 748:                 while ((
                                 0 ? isdigit((*fmt)[0]) : ((unsigned)((*fmt)[0])-'0') < 10)) {
  2718                           	
  2719                           l264:
  2720  001BE4                     	line	748
  2721                           	
  2722                           l3908:
  2723  001BE4                     	movlw	low(0FFD0h)
  2724  001BE4  0ED0               	movwf	(??_vfpfcnvrt+0+0)&0ffh,c
  2725  001BE6  6E46               	movlw	high(0FFD0h)
  2726  001BE8  0EFF               	movwf	1+(??_vfpfcnvrt+0+0)&0ffh,c
  2727  001BEA  6E47               	movff	(c:vfpfcnvrt@fmt),fsr2l
  2728  001BEC  C042  FFD9         	movff	(c:vfpfcnvrt@fmt+1),fsr2h
  2729  001BF0  C043  FFDA         	movff	postinc2,tblptrl
  2730  001BF4  CFDE FFF6          	movff	postdec2,tblptrh
  2731  001BF8  CFDD FFF7          	if	0	;tblptru may be non-zero
  2732  001BFC                     	clrf	tblptru
  2734  001BFC                     	if	0	;tblptru may be non-zero
  2735  001BFC                     	global __mediumconst
  2736                           movlw	low highword(__mediumconst)
  2739  001BFC                     	tblrd	*
  2740  001BFC  0008               	
  2741                           	movf	tablat,w
  2742  001BFE  50F5               	movwf	(??_vfpfcnvrt+2+0)&0ffh,c
  2743  001C00  6E48               	clrf	(??_vfpfcnvrt+2+0+1)&0ffh,c
  2744  001C02  6A49               
  2745                           	movf	(??_vfpfcnvrt+0+0),c,w
  2746  001C04  5046               	addwf	(??_vfpfcnvrt+2+0),c
  2747  001C06  2648               	movf	(??_vfpfcnvrt+0+1),c,w
  2748  001C08  5047               	addwfc	(??_vfpfcnvrt+2+1),c
  2749  001C0A  2249               		movf	(??_vfpfcnvrt+2+1),c,w
  2750  001C0C  5049               	bnz	u4690
  2751  001C0E  E10A               	movlw	10
  2752  001C10  0E0A               	subwf	 (??_vfpfcnvrt+2+0),c,w
  2753  001C12  5C48               	btfss	status,0
  2754  001C14  A0D8               	goto	u4691
  2755  001C16  EF0F  F00E         	goto	u4690
  2756  001C1A  EF12  F00E         
  2757                           u4691:
  2758  001C1E                     	movlw	1
  2759  001C1E  0E01               	goto	u4700
  2760  001C20  EF13  F00E         u4690:
  2761  001C24                     	movlw	0
  2762  001C24  0E00               u4700:
  2763  001C26                     	movwf	((c:_vfpfcnvrt$471)),c
  2764  001C26  6E4A               	clrf	((c:_vfpfcnvrt$471+1)),c
  2765  001C28  6A4B               	goto	l3912
  2766  001C2A  EF2B  F00E         	
  2767                           l267:
  2768  001C2E                     	
  2769                           l3910:
  2770  001C2E                     	movff	(c:vfpfcnvrt@fmt),fsr2l
  2771  001C2E  C042  FFD9         	movff	(c:vfpfcnvrt@fmt+1),fsr2h
  2772  001C32  C043  FFDA         	movff	postinc2,tblptrl
  2773  001C36  CFDE FFF6          	movff	postdec2,tblptrh
  2774  001C3A  CFDD FFF7          	if	0	;tblptru may be non-zero
  2775  001C3E                     	clrf	tblptru
  2777  001C3E                     	if	0	;tblptru may be non-zero
  2778  001C3E                     	global __mediumconst
  2779                           movlw	low highword(__mediumconst)
  2782  001C3E                     	tblrd	*
  2783  001C3E  0008               	
  2784                           	movf	tablat,w
  2785  001C40  50F5               
  2786                           	movwf	((c:isdigit@c)),c
  2787  001C42  6E01               	clrf	((c:isdigit@c+1)),c
  2788  001C44  6A02               	call	_isdigit	;wreg free
  2789  001C46  ECF0  F020         	movff	0+?_isdigit,(c:_vfpfcnvrt$471)
  2790  001C4A  C001  F04A         	movff	1+?_isdigit,(c:_vfpfcnvrt$471+1)
  2791  001C4E  C002  F04B         	goto	l3912
  2792  001C52  EF2B  F00E         	
  2793                           l269:
  2794  001C56                     	
  2795                           l3912:
  2796  001C56                     	movf	((c:_vfpfcnvrt$471)),c,w
  2797  001C56  504A               iorwf	((c:_vfpfcnvrt$471+1)),c,w
  2798  001C58  104B               	btfss	status,2
  2799  001C5A  A4D8               	goto	u4711
  2800  001C5C  EF32  F00E         	goto	u4710
  2801  001C60  EF34  F00E         
  2802                           u4711:
  2803  001C64                     	goto	l3906
  2804  001C64  EFE9  F00D         u4710:
  2805  001C68                     	goto	l3914
  2806  001C68  EF3A  F00E         	
  2807                           l270:
  2808  001C6C                     	goto	l3914
  2809  001C6C  EF3A  F00E         	line	751
  2810                           ;/opt/microchip/xc8/v2.00/pic/sources/c99/common/doprnt.c: 751:             }
  2811                           	
  2812                           l263:
  2813  001C70                     	goto	l3914
  2814  001C70  EF3A  F00E         	line	752
  2815                           ;/opt/microchip/xc8/v2.00/pic/sources/c99/common/doprnt.c: 752:         }
  2816                           	
  2817                           l261:
  2818  001C74                     	line	757
  2819                           	
  2820                           l3914:
  2821  001C74                     ;/opt/microchip/xc8/v2.00/pic/sources/c99/common/doprnt.c: 757:         ct[0] = tolower(
                                 (int)(*fmt)[0]);
  2822                           	movff	(c:vfpfcnvrt@fmt),fsr2l
  2823  001C74  C042  FFD9         	movff	(c:vfpfcnvrt@fmt+1),fsr2h
  2824  001C78  C043  FFDA         	movff	postinc2,tblptrl
  2825  001C7C  CFDE FFF6          	movff	postdec2,tblptrh
  2826  001C80  CFDD FFF7          	if	0	;tblptru may be non-zero
  2827  001C84                     	clrf	tblptru
  2829  001C84                     	if	0	;tblptru may be non-zero
  2830  001C84                     	global __mediumconst
  2831                           movlw	low highword(__mediumconst)
  2834  001C84                     	tblrd	*
  2835  001C84  0008               	
  2836                           	movf	tablat,w
  2837  001C86  50F5               
  2838                           	movwf	((c:tolower@c)),c
  2839  001C88  6E07               	clrf	((c:tolower@c+1)),c
  2840  001C8A  6A08               	call	_tolower	;wreg free
  2841  001C8C  EC3B  F01F         	movf	(0+?_tolower),c,w
  2842  001C90  5007               	movwf	((c:vfpfcnvrt@ct)),c
  2843  001C92  6E52               	line	758
  2844                           	
  2845                           l3916:
  2846  001C94                     ;/opt/microchip/xc8/v2.00/pic/sources/c99/common/doprnt.c: 758:         if (ct[0]) {
  2847                           	movf	((c:vfpfcnvrt@ct)),c,w
  2848  001C94  5052               	btfsc	status,2
  2849  001C96  B4D8               	goto	u4721
  2850  001C98  EF50  F00E         	goto	u4720
  2851  001C9C  EF52  F00E         u4721:
  2852  001CA0                     	goto	l3924
  2853  001CA0  EF8E  F00E         u4720:
  2854  001CA4                     	line	759
  2855                           	
  2856                           l3918:
  2857  001CA4                     ;/opt/microchip/xc8/v2.00/pic/sources/c99/common/doprnt.c: 759:             ct[1] = tolo
                                 wer((int)(*fmt)[1]);
  2858                           	movff	(c:vfpfcnvrt@fmt),fsr2l
  2859  001CA4  C042  FFD9         	movff	(c:vfpfcnvrt@fmt+1),fsr2h
  2860  001CA8  C043  FFDA         	movff	postinc2,??_vfpfcnvrt+0+0
  2861  001CAC  CFDE F046          	movff	postdec2,??_vfpfcnvrt+0+0+1
  2862  001CB0  CFDD F047          	movlw	01h
  2863  001CB4  0E01               	addwf	(??_vfpfcnvrt+0+0),c
  2864  001CB6  2646               	movlw	0
  2865  001CB8  0E00               	addwfc	(??_vfpfcnvrt+0+1),c
  2866  001CBA  2247               	movff	??_vfpfcnvrt+0+0,tblptrl
  2867  001CBC  C046  FFF6         	movff	??_vfpfcnvrt+0+1,tblptrh
  2868  001CC0  C047  FFF7         	if	0	;tblptru may be non-zero
  2869  001CC4                     	clrf	tblptru
  2871  001CC4                     	if	0	;tblptru may be non-zero
  2872  001CC4                     	global __mediumconst
  2873                           movlw	low highword(__mediumconst)
  2876  001CC4                     	tblrd	*
  2877  001CC4  0008               	
  2878                           	movf	tablat,w
  2879  001CC6  50F5               
  2880                           	movwf	((c:tolower@c)),c
  2881  001CC8  6E07               	clrf	((c:tolower@c+1)),c
  2882  001CCA  6A08               	call	_tolower	;wreg free
  2883  001CCC  EC3B  F01F         	movf	(0+?_tolower),c,w
  2884  001CD0  5007               	movwf	(0+((c:vfpfcnvrt@ct)+01h)),c
  2885  001CD2  6E53               	line	760
  2886                           	
  2887                           l3920:
  2888  001CD4                     ;/opt/microchip/xc8/v2.00/pic/sources/c99/common/doprnt.c: 760:             if (ct[1]) {
                                 
  2889                           	movf	(0+((c:vfpfcnvrt@ct)+01h)),c,w
  2890  001CD4  5053               	btfsc	status,2
  2891  001CD6  B4D8               	goto	u4731
  2892  001CD8  EF70  F00E         	goto	u4730
  2893  001CDC  EF72  F00E         u4731:
  2894  001CE0                     	goto	l3924
  2895  001CE0  EF8E  F00E         u4730:
  2896  001CE4                     	line	761
  2897                           	
  2898                           l3922:
  2899  001CE4                     ;/opt/microchip/xc8/v2.00/pic/sources/c99/common/doprnt.c: 761:                 ct[2] = 
                                 tolower((int)(*fmt)[2]);
  2900                           	movff	(c:vfpfcnvrt@fmt),fsr2l
  2901  001CE4  C042  FFD9         	movff	(c:vfpfcnvrt@fmt+1),fsr2h
  2902  001CE8  C043  FFDA         	movff	postinc2,??_vfpfcnvrt+0+0
  2903  001CEC  CFDE F046          	movff	postdec2,??_vfpfcnvrt+0+0+1
  2904  001CF0  CFDD F047          	movlw	02h
  2905  001CF4  0E02               	addwf	(??_vfpfcnvrt+0+0),c
  2906  001CF6  2646               	movlw	0
  2907  001CF8  0E00               	addwfc	(??_vfpfcnvrt+0+1),c
  2908  001CFA  2247               	movff	??_vfpfcnvrt+0+0,tblptrl
  2909  001CFC  C046  FFF6         	movff	??_vfpfcnvrt+0+1,tblptrh
  2910  001D00  C047  FFF7         	if	0	;tblptru may be non-zero
  2911  001D04                     	clrf	tblptru
  2913  001D04                     	if	0	;tblptru may be non-zero
  2914  001D04                     	global __mediumconst
  2915                           movlw	low highword(__mediumconst)
  2918  001D04                     	tblrd	*
  2919  001D04  0008               	
  2920                           	movf	tablat,w
  2921  001D06  50F5               
  2922                           	movwf	((c:tolower@c)),c
  2923  001D08  6E07               	clrf	((c:tolower@c+1)),c
  2924  001D0A  6A08               	call	_tolower	;wreg free
  2925  001D0C  EC3B  F01F         	movf	(0+?_tolower),c,w
  2926  001D10  5007               	movwf	(0+((c:vfpfcnvrt@ct)+02h)),c
  2927  001D12  6E54               	goto	l3924
  2928  001D14  EF8E  F00E         	line	762
  2929                           ;/opt/microchip/xc8/v2.00/pic/sources/c99/common/doprnt.c: 762:             }
  2930                           	
  2931                           l272:
  2932  001D18                     	goto	l3924
  2933  001D18  EF8E  F00E         	line	763
  2934                           ;/opt/microchip/xc8/v2.00/pic/sources/c99/common/doprnt.c: 763:         }
  2935                           	
  2936                           l271:
  2937  001D1C                     	line	920
  2938                           	
  2939                           l3924:
  2940  001D1C                     ;/opt/microchip/xc8/v2.00/pic/sources/c99/common/doprnt.c: 920:         if (ct[0] == 'f'
                                 ) {
  2941                           		movlw	102
  2942  001D1C  0E66               	xorwf	((c:vfpfcnvrt@ct)),c,w
  2943  001D1E  1852               	btfss	status,2
  2944  001D20  A4D8               	goto	u4741
  2945  001D22  EF95  F00E         	goto	u4740
  2946  001D26  EF97  F00E         
  2947                           u4741:
  2948  001D2A                     	goto	l3936
  2949  001D2A  EFD9  F00E         u4740:
  2950  001D2E                     	line	922
  2951                           	
  2952                           l3926:
  2953  001D2E                     ;/opt/microchip/xc8/v2.00/pic/sources/c99/common/doprnt.c: 922:             c = (*fmt)[0
                                 ];
  2954                           	movff	(c:vfpfcnvrt@fmt),fsr2l
  2955  001D2E  C042  FFD9         	movff	(c:vfpfcnvrt@fmt+1),fsr2h
  2956  001D32  C043  FFDA         	movff	postinc2,tblptrl
  2957  001D36  CFDE FFF6          	movff	postdec2,tblptrh
  2958  001D3A  CFDD FFF7          	if	0	;tblptru may be non-zero
  2959  001D3E                     	clrf	tblptru
  2961  001D3E                     	if	0	;tblptru may be non-zero
  2962  001D3E                     	global __mediumconst
  2963                           movlw	low highword(__mediumconst)
  2966  001D3E                     	tblrd	*
  2967  001D3E  0008               	
  2968                           	movff	tablat,(c:vfpfcnvrt@c)
  2969  001D40  CFF5 F055          	line	923
  2970                           	
  2971                           l3928:
  2972  001D44                     ;/opt/microchip/xc8/v2.00/pic/sources/c99/common/doprnt.c: 923:             ++*fmt;
  2973                           	movff	(c:vfpfcnvrt@fmt),fsr2l
  2974  001D44  C042  FFD9         	movff	(c:vfpfcnvrt@fmt+1),fsr2h
  2975  001D48  C043  FFDA         	incf	postinc2
  2976  001D4C  2ADE               	movlw	0
  2977  001D4E  0E00               	addwfc	postdec2
  2978  001D50  22DD               	line	924
  2979                           	
  2980                           l3930:
  2981  001D52                     ;/opt/microchip/xc8/v2.00/pic/sources/c99/common/doprnt.c: 924:             f = (long do
                                 uble)(*(double *)__va_arg(*(double **)ap, (double)0));
  2982                           	movff	(c:vfpfcnvrt@ap),fsr2l
  2983  001D52  C044  FFD9         	movff	(c:vfpfcnvrt@ap+1),fsr2h
  2984  001D56  C045  FFDA         	movff	indf2,??_vfpfcnvrt+0+0
  2985  001D5A  CFDF F046          	movlw	low(04h)
  2986  001D5E  0E04               	addwf	postinc2
  2987  001D60  26DE               	movff	indf2,??_vfpfcnvrt+0+0+1
  2988  001D62  CFDF F047          	movlw	high(04h)
  2989  001D66  0E00               	addwfc	postdec2
  2990  001D68  22DD               	movff	??_vfpfcnvrt+0+0,fsr2l
  2991  001D6A  C046  FFD9         	movff	??_vfpfcnvrt+0+1,fsr2h
  2992  001D6E  C047  FFDA         	movff	postinc2,(c:vfpfcnvrt@f)
  2993  001D72  CFDE F04E          	movff	postinc2,(c:vfpfcnvrt@f+1)
  2994  001D76  CFDE F04F          	movff	postinc2,(c:vfpfcnvrt@f+2)
  2995  001D7A  CFDE F050          	movff	postinc2,(c:vfpfcnvrt@f+3)
  2996  001D7E  CFDE F051          	line	926
  2997                           	
  2998                           l3932:
  2999  001D82                     ;/opt/microchip/xc8/v2.00/pic/sources/c99/common/doprnt.c: 926:             return efgto
                                 a(fp, f, c);
  3000                           		movff	(c:vfpfcnvrt@fp),(c:efgtoa@fp)
  3001  001D82  C040  F034         	movff	(c:vfpfcnvrt@fp+1),(c:efgtoa@fp+1)
  3002  001D86  C041  F035         
  3003                           	movff	(c:vfpfcnvrt@f),(c:efgtoa@f)
  3004  001D8A  C04E  F036         	movff	(c:vfpfcnvrt@f+1),(c:efgtoa@f+1)
  3005  001D8E  C04F  F037         	movff	(c:vfpfcnvrt@f+2),(c:efgtoa@f+2)
  3006  001D92  C050  F038         	movff	(c:vfpfcnvrt@f+3),(c:efgtoa@f+3)
  3007  001D96  C051  F039         	movff	(c:vfpfcnvrt@c),(c:efgtoa@c)
  3008  001D9A  C055  F03A         	call	_efgtoa	;wreg free
  3009  001D9E  EC16  F004         	movff	0+?_efgtoa,(c:?_vfpfcnvrt)
  3010  001DA2  C034  F040         	movff	1+?_efgtoa,(c:?_vfpfcnvrt+1)
  3011  001DA6  C035  F041         	goto	l274
  3012  001DAA  EFF0  F00F         	
  3013                           l3934:
  3014  001DAE                     	goto	l274
  3015  001DAE  EFF0  F00F         	line	927
  3016                           ;/opt/microchip/xc8/v2.00/pic/sources/c99/common/doprnt.c: 927:         }
  3017                           	
  3018                           l273:
  3019  001DB2                     	line	928
  3020                           	
  3021                           l3936:
  3022  001DB2                     ;/opt/microchip/xc8/v2.00/pic/sources/c99/common/doprnt.c: 928:         if (!strncmp(ct,
                                  "lf", ((sizeof("lf")/sizeof("lf"[0]))-1))) {
  3023                           		movlw	low(vfpfcnvrt@ct)
  3024  001DB2  0E52               	movwf	((c:strncmp@_l)),c
  3025  001DB4  6E01               	movlw	high(vfpfcnvrt@ct)
  3026  001DB6  0E00               	movwf	((c:strncmp@_l+1)),c
  3027  001DB8  6E02               
  3028                           		movlw	low(STR_14)
  3029  001DBA  0E28               	movwf	((c:strncmp@_r)),c
  3030  001DBC  6E03               	movlw	high(STR_14)
  3031  001DBE  0E08               	movwf	((c:strncmp@_r+1)),c
  3032  001DC0  6E04               
  3033                           	movlw	high(02h)
  3034  001DC2  0E00               	movwf	((c:strncmp@n+1)),c
  3035  001DC4  6E06               	movlw	low(02h)
  3036  001DC6  0E02               	movwf	((c:strncmp@n)),c
  3037  001DC8  6E05               	call	_strncmp	;wreg free
  3038  001DCA  EC9F  F01B         	movf	(0+?_strncmp),c,w
  3039  001DCE  5001               iorwf	(1+?_strncmp),c,w
  3040  001DD0  1002               	btfss	status,2
  3041  001DD2  A4D8               	goto	u4751
  3042  001DD4  EFEE  F00E         	goto	u4750
  3043  001DD8  EFF0  F00E         
  3044                           u4751:
  3045  001DDC                     	goto	l3952
  3046  001DDC  EF97  F00F         u4750:
  3047  001DE0                     	line	930
  3048                           	
  3049                           l3938:
  3050  001DE0                     ;/opt/microchip/xc8/v2.00/pic/sources/c99/common/doprnt.c: 931:             if ((0 ? isu
                                 pper((int)(*fmt)[0]) : ((unsigned)((int)(*fmt)[0])-'A') < 26)) {
  3051                           	movff	(c:vfpfcnvrt@fmt),fsr2l
  3052  001DE0  C042  FFD9         	movff	(c:vfpfcnvrt@fmt+1),fsr2h
  3053  001DE4  C043  FFDA         	movff	postinc2,??_vfpfcnvrt+0+0
  3054  001DE8  CFDE F046          	movff	postdec2,??_vfpfcnvrt+0+0+1
  3055  001DEC  CFDD F047          	movlw	01h
  3056  001DF0  0E01               	addwf	(??_vfpfcnvrt+0+0),c
  3057  001DF2  2646               	movlw	0
  3058  001DF4  0E00               	addwfc	(??_vfpfcnvrt+0+1),c
  3059  001DF6  2247               	movff	??_vfpfcnvrt+0+0,tblptrl
  3060  001DF8  C046  FFF6         	movff	??_vfpfcnvrt+0+1,tblptrh
  3061  001DFC  C047  FFF7         	if	0	;tblptru may be non-zero
  3062  001E00                     	clrf	tblptru
  3064  001E00                     	if	0	;tblptru may be non-zero
  3065  001E00                     	global __mediumconst
  3066                           movlw	low highword(__mediumconst)
  3069  001E00                     	tblrd	*
  3070  001E00  0008               	
  3071                           	movff	tablat,(c:vfpfcnvrt@c)
  3072  001E02  CFF5 F055          	line	931
  3073                           	movlw	low(0FFBFh)
  3074  001E06  0EBF               	movwf	(??_vfpfcnvrt+0+0)&0ffh,c
  3075  001E08  6E46               	movlw	high(0FFBFh)
  3076  001E0A  0EFF               	movwf	1+(??_vfpfcnvrt+0+0)&0ffh,c
  3077  001E0C  6E47               	movff	(c:vfpfcnvrt@fmt),fsr2l
  3078  001E0E  C042  FFD9         	movff	(c:vfpfcnvrt@fmt+1),fsr2h
  3079  001E12  C043  FFDA         	movff	postinc2,tblptrl
  3080  001E16  CFDE FFF6          	movff	postdec2,tblptrh
  3081  001E1A  CFDD FFF7          	if	0	;tblptru may be non-zero
  3082  001E1E                     	clrf	tblptru
  3084  001E1E                     	if	0	;tblptru may be non-zero
  3085  001E1E                     	global __mediumconst
  3086                           movlw	low highword(__mediumconst)
  3089  001E1E                     	tblrd	*
  3090  001E1E  0008               	
  3091                           	movf	tablat,w
  3092  001E20  50F5               	movwf	(??_vfpfcnvrt+2+0)&0ffh,c
  3093  001E22  6E48               	clrf	(??_vfpfcnvrt+2+0+1)&0ffh,c
  3094  001E24  6A49               
  3095                           	movf	(??_vfpfcnvrt+0+0),c,w
  3096  001E26  5046               	addwf	(??_vfpfcnvrt+2+0),c
  3097  001E28  2648               	movf	(??_vfpfcnvrt+0+1),c,w
  3098  001E2A  5047               	addwfc	(??_vfpfcnvrt+2+1),c
  3099  001E2C  2249               		movf	(??_vfpfcnvrt+2+1),c,w
  3100  001E2E  5049               	bnz	u4760
  3101  001E30  E10A               	movlw	26
  3102  001E32  0E1A               	subwf	 (??_vfpfcnvrt+2+0),c,w
  3103  001E34  5C48               	btfss	status,0
  3104  001E36  A0D8               	goto	u4761
  3105  001E38  EF20  F00F         	goto	u4760
  3106  001E3C  EF23  F00F         
  3107                           u4761:
  3108  001E40                     	movlw	1
  3109  001E40  0E01               	goto	u4770
  3110  001E42  EF24  F00F         u4760:
  3111  001E46                     	movlw	0
  3112  001E46  0E00               u4770:
  3113  001E48                     	movwf	((c:_vfpfcnvrt$475)),c
  3114  001E48  6E4C               	clrf	((c:_vfpfcnvrt$475+1)),c
  3115  001E4A  6A4D               	goto	l3942
  3116  001E4C  EF3C  F00F         	
  3117                           l278:
  3118  001E50                     	
  3119                           l3940:
  3120  001E50                     	movff	(c:vfpfcnvrt@fmt),fsr2l
  3121  001E50  C042  FFD9         	movff	(c:vfpfcnvrt@fmt+1),fsr2h
  3122  001E54  C043  FFDA         	movff	postinc2,tblptrl
  3123  001E58  CFDE FFF6          	movff	postdec2,tblptrh
  3124  001E5C  CFDD FFF7          	if	0	;tblptru may be non-zero
  3125  001E60                     	clrf	tblptru
  3127  001E60                     	if	0	;tblptru may be non-zero
  3128  001E60                     	global __mediumconst
  3129                           movlw	low highword(__mediumconst)
  3132  001E60                     	tblrd	*
  3133  001E60  0008               	
  3134                           	movf	tablat,w
  3135  001E62  50F5               
  3136                           	movwf	((c:isupper@c)),c
  3137  001E64  6E01               	clrf	((c:isupper@c+1)),c
  3138  001E66  6A02               	call	_isupper	;wreg free
  3139  001E68  ECD2  F020         	movff	0+?_isupper,(c:_vfpfcnvrt$475)
  3140  001E6C  C001  F04C         	movff	1+?_isupper,(c:_vfpfcnvrt$475+1)
  3141  001E70  C002  F04D         	goto	l3942
  3142  001E74  EF3C  F00F         	
  3143                           l280:
  3144  001E78                     	
  3145                           l3942:
  3146  001E78                     	movf	((c:_vfpfcnvrt$475)),c,w
  3147  001E78  504C               iorwf	((c:_vfpfcnvrt$475+1)),c,w
  3148  001E7A  104D               	btfsc	status,2
  3149  001E7C  B4D8               	goto	u4781
  3150  001E7E  EF43  F00F         	goto	u4780
  3151  001E82  EF45  F00F         
  3152                           u4781:
  3153  001E86                     	goto	l3946
  3154  001E86  EF5F  F00F         u4780:
  3155  001E8A                     	line	932
  3156                           	
  3157                           l3944:
  3158  001E8A                     ;/opt/microchip/xc8/v2.00/pic/sources/c99/common/doprnt.c: 932:                 f = (*(l
                                 ong double *)__va_arg(*(long double **)ap, (long double)0));
  3159                           	movff	(c:vfpfcnvrt@ap),fsr2l
  3160  001E8A  C044  FFD9         	movff	(c:vfpfcnvrt@ap+1),fsr2h
  3161  001E8E  C045  FFDA         	movff	indf2,??_vfpfcnvrt+0+0
  3162  001E92  CFDF F046          	movlw	low(04h)
  3163  001E96  0E04               	addwf	postinc2
  3164  001E98  26DE               	movff	indf2,??_vfpfcnvrt+0+0+1
  3165  001E9A  CFDF F047          	movlw	high(04h)
  3166  001E9E  0E00               	addwfc	postdec2
  3167  001EA0  22DD               	movff	??_vfpfcnvrt+0+0,fsr2l
  3168  001EA2  C046  FFD9         	movff	??_vfpfcnvrt+0+1,fsr2h
  3169  001EA6  C047  FFDA         	movff	postinc2,(c:vfpfcnvrt@f)
  3170  001EAA  CFDE F04E          	movff	postinc2,(c:vfpfcnvrt@f+1)
  3171  001EAE  CFDE F04F          	movff	postinc2,(c:vfpfcnvrt@f+2)
  3172  001EB2  CFDE F050          	movff	postinc2,(c:vfpfcnvrt@f+3)
  3173  001EB6  CFDE F051          	line	933
  3174                           ;/opt/microchip/xc8/v2.00/pic/sources/c99/common/doprnt.c: 933:             } else {
  3175                           	goto	l281
  3176  001EBA  EF77  F00F         	
  3177                           l276:
  3178  001EBE                     	line	934
  3179                           	
  3180                           l3946:
  3181  001EBE                     ;/opt/microchip/xc8/v2.00/pic/sources/c99/common/doprnt.c: 934:                 f = (lon
                                 g double)(*(double *)__va_arg(*(double **)ap, (double)0));
  3182                           	movff	(c:vfpfcnvrt@ap),fsr2l
  3183  001EBE  C044  FFD9         	movff	(c:vfpfcnvrt@ap+1),fsr2h
  3184  001EC2  C045  FFDA         	movff	indf2,??_vfpfcnvrt+0+0
  3185  001EC6  CFDF F046          	movlw	low(04h)
  3186  001ECA  0E04               	addwf	postinc2
  3187  001ECC  26DE               	movff	indf2,??_vfpfcnvrt+0+0+1
  3188  001ECE  CFDF F047          	movlw	high(04h)
  3189  001ED2  0E00               	addwfc	postdec2
  3190  001ED4  22DD               	movff	??_vfpfcnvrt+0+0,fsr2l
  3191  001ED6  C046  FFD9         	movff	??_vfpfcnvrt+0+1,fsr2h
  3192  001EDA  C047  FFDA         	movff	postinc2,(c:vfpfcnvrt@f)
  3193  001EDE  CFDE F04E          	movff	postinc2,(c:vfpfcnvrt@f+1)
  3194  001EE2  CFDE F04F          	movff	postinc2,(c:vfpfcnvrt@f+2)
  3195  001EE6  CFDE F050          	movff	postinc2,(c:vfpfcnvrt@f+3)
  3196  001EEA  CFDE F051          	line	935
  3197                           ;/opt/microchip/xc8/v2.00/pic/sources/c99/common/doprnt.c: 935:             }
  3198                           	
  3199                           l281:
  3200  001EEE                     	line	936
  3201                           ;/opt/microchip/xc8/v2.00/pic/sources/c99/common/doprnt.c: 936:             *fmt += ((si
                                 zeof("lf")/sizeof("lf"[0]))-1);
  3202                           	movlw	02h
  3203  001EEE  0E02               	movff	(c:vfpfcnvrt@fmt),fsr2l
  3204  001EF0  C042  FFD9         	movff	(c:vfpfcnvrt@fmt+1),fsr2h
  3205  001EF4  C043  FFDA         	addwf	postinc2
  3206  001EF8  26DE               	movlw	0
  3207  001EFA  0E00               	addwfc	postdec2
  3208  001EFC  22DD               	line	938
  3209                           	
  3210                           l3948:
  3211  001EFE                     ;/opt/microchip/xc8/v2.00/pic/sources/c99/common/doprnt.c: 938:             return efgto
                                 a(fp, f, c);
  3212                           		movff	(c:vfpfcnvrt@fp),(c:efgtoa@fp)
  3213  001EFE  C040  F034         	movff	(c:vfpfcnvrt@fp+1),(c:efgtoa@fp+1)
  3214  001F02  C041  F035         
  3215                           	movff	(c:vfpfcnvrt@f),(c:efgtoa@f)
  3216  001F06  C04E  F036         	movff	(c:vfpfcnvrt@f+1),(c:efgtoa@f+1)
  3217  001F0A  C04F  F037         	movff	(c:vfpfcnvrt@f+2),(c:efgtoa@f+2)
  3218  001F0E  C050  F038         	movff	(c:vfpfcnvrt@f+3),(c:efgtoa@f+3)
  3219  001F12  C051  F039         	movff	(c:vfpfcnvrt@c),(c:efgtoa@c)
  3220  001F16  C055  F03A         	call	_efgtoa	;wreg free
  3221  001F1A  EC16  F004         	movff	0+?_efgtoa,(c:?_vfpfcnvrt)
  3222  001F1E  C034  F040         	movff	1+?_efgtoa,(c:?_vfpfcnvrt+1)
  3223  001F22  C035  F041         	goto	l274
  3224  001F26  EFF0  F00F         	
  3225                           l3950:
  3226  001F2A                     	goto	l274
  3227  001F2A  EFF0  F00F         	line	939
  3228                           ;/opt/microchip/xc8/v2.00/pic/sources/c99/common/doprnt.c: 939:         }
  3229                           	
  3230                           l275:
  3231  001F2E                     	line	1350
  3232                           	
  3233                           l3952:
  3234  001F2E                     ;/opt/microchip/xc8/v2.00/pic/sources/c99/common/doprnt.c: 1350:         if ((*fmt)[0] =
                                 = '%') {
  3235                           	movff	(c:vfpfcnvrt@fmt),fsr2l
  3236  001F2E  C042  FFD9         	movff	(c:vfpfcnvrt@fmt+1),fsr2h
  3237  001F32  C043  FFDA         	movff	postinc2,tblptrl
  3238  001F36  CFDE FFF6          	movff	postdec2,tblptrh
  3239  001F3A  CFDD FFF7          	if	0	;tblptru may be non-zero
  3240  001F3E                     	clrf	tblptru
  3242  001F3E                     	if	0	;tblptru may be non-zero
  3243  001F3E                     	global __mediumconst
  3244                           movlw	low highword(__mediumconst)
  3247  001F3E                     	tblrd	*
  3248  001F3E  0008               	
  3249                           	movf	tablat,w
  3250  001F40  50F5               	xorlw	025h
  3251  001F42  0A25               	btfss	status,2
  3252  001F44  A4D8               	goto	u4791
  3253  001F46  EFA7  F00F         	goto	u4790
  3254  001F4A  EFA9  F00F         u4791:
  3255  001F4E                     	goto	l3962
  3256  001F4E  EFC2  F00F         u4790:
  3257  001F52                     	line	1351
  3258                           	
  3259                           l3954:
  3260  001F52                     ;/opt/microchip/xc8/v2.00/pic/sources/c99/common/doprnt.c: 1351:             ++*fmt;
  3261                           	movff	(c:vfpfcnvrt@fmt),fsr2l
  3262  001F52  C042  FFD9         	movff	(c:vfpfcnvrt@fmt+1),fsr2h
  3263  001F56  C043  FFDA         	incf	postinc2
  3264  001F5A  2ADE               	movlw	0
  3265  001F5C  0E00               	addwfc	postdec2
  3266  001F5E  22DD               	line	1352
  3267                           	
  3268                           l3956:
  3269  001F60                     ;/opt/microchip/xc8/v2.00/pic/sources/c99/common/doprnt.c: 1352:             fputc((int)
                                 '%', fp);
  3270                           	movlw	high(025h)
  3271  001F60  0E00               	movwf	((c:fputc@c+1)),c
  3272  001F62  6E02               	movlw	low(025h)
  3273  001F64  0E25               	movwf	((c:fputc@c)),c
  3274  001F66  6E01               		movff	(c:vfpfcnvrt@fp),(c:fputc@fp)
  3275  001F68  C040  F003         	movff	(c:vfpfcnvrt@fp+1),(c:fputc@fp+1)
  3276  001F6C  C041  F004         
  3277                           	call	_fputc	;wreg free
  3278  001F70  EC93  F01C         	line	1353
  3279                           	
  3280                           l3958:
  3281  001F74                     ;/opt/microchip/xc8/v2.00/pic/sources/c99/common/doprnt.c: 1353:             return 1;
  3282                           	movlw	high(01h)
  3283  001F74  0E00               	movwf	((c:?_vfpfcnvrt+1)),c
  3284  001F76  6E41               	movlw	low(01h)
  3285  001F78  0E01               	movwf	((c:?_vfpfcnvrt)),c
  3286  001F7A  6E40               	goto	l274
  3287  001F7C  EFF0  F00F         	
  3288                           l3960:
  3289  001F80                     	goto	l274
  3290  001F80  EFF0  F00F         	line	1354
  3291                           ;/opt/microchip/xc8/v2.00/pic/sources/c99/common/doprnt.c: 1354:         }
  3292                           	
  3293                           l282:
  3294  001F84                     	line	1357
  3295                           	
  3296                           l3962:
  3297  001F84                     ;/opt/microchip/xc8/v2.00/pic/sources/c99/common/doprnt.c: 1357:         ++*fmt;
  3298                           	movff	(c:vfpfcnvrt@fmt),fsr2l
  3299  001F84  C042  FFD9         	movff	(c:vfpfcnvrt@fmt+1),fsr2h
  3300  001F88  C043  FFDA         	incf	postinc2
  3301  001F8C  2ADE               	movlw	0
  3302  001F8E  0E00               	addwfc	postdec2
  3303  001F90  22DD               	line	1358
  3304                           	
  3305                           l3964:
  3306  001F92                     ;/opt/microchip/xc8/v2.00/pic/sources/c99/common/doprnt.c: 1358:         return 0;
  3307                           	movlw	high(0)
  3308  001F92  0E00               	movwf	((c:?_vfpfcnvrt+1)),c
  3309  001F94  6E41               	movlw	low(0)
  3310  001F96  0E00               	movwf	((c:?_vfpfcnvrt)),c
  3311  001F98  6E40               	goto	l274
  3312  001F9A  EFF0  F00F         	
  3313                           l3966:
  3314  001F9E                     	goto	l274
  3315  001F9E  EFF0  F00F         	line	1359
  3316                           ;/opt/microchip/xc8/v2.00/pic/sources/c99/common/doprnt.c: 1359:     }
  3317                           	
  3318                           l260:
  3319  001FA2                     	line	1362
  3320                           	
  3321                           l3968:
  3322  001FA2                     ;/opt/microchip/xc8/v2.00/pic/sources/c99/common/doprnt.c: 1362:     fputc((int)(*fmt)[0
                                 ], fp);
  3323                           	movff	(c:vfpfcnvrt@fmt),fsr2l
  3324  001FA2  C042  FFD9         	movff	(c:vfpfcnvrt@fmt+1),fsr2h
  3325  001FA6  C043  FFDA         	movff	postinc2,tblptrl
  3326  001FAA  CFDE FFF6          	movff	postdec2,tblptrh
  3327  001FAE  CFDD FFF7          	if	0	;tblptru may be non-zero
  3328  001FB2                     	clrf	tblptru
  3330  001FB2                     	if	0	;tblptru may be non-zero
  3331  001FB2                     	global __mediumconst
  3332                           movlw	low highword(__mediumconst)
  3335  001FB2                     	tblrd	*
  3336  001FB2  0008               	
  3337                           	movf	tablat,w
  3338  001FB4  50F5               
  3339                           	movwf	((c:fputc@c)),c
  3340  001FB6  6E01               	clrf	((c:fputc@c+1)),c
  3341  001FB8  6A02               		movff	(c:vfpfcnvrt@fp),(c:fputc@fp)
  3342  001FBA  C040  F003         	movff	(c:vfpfcnvrt@fp+1),(c:fputc@fp+1)
  3343  001FBE  C041  F004         
  3344                           	call	_fputc	;wreg free
  3345  001FC2  EC93  F01C         	line	1363
  3346                           	
  3347                           l3970:
  3348  001FC6                     ;/opt/microchip/xc8/v2.00/pic/sources/c99/common/doprnt.c: 1363:     ++*fmt;
  3349                           	movff	(c:vfpfcnvrt@fmt),fsr2l
  3350  001FC6  C042  FFD9         	movff	(c:vfpfcnvrt@fmt+1),fsr2h
  3351  001FCA  C043  FFDA         	incf	postinc2
  3352  001FCE  2ADE               	movlw	0
  3353  001FD0  0E00               	addwfc	postdec2
  3354  001FD2  22DD               	line	1364
  3355                           	
  3356                           l3972:
  3357  001FD4                     ;/opt/microchip/xc8/v2.00/pic/sources/c99/common/doprnt.c: 1364:     return 1;
  3358                           	movlw	high(01h)
  3359  001FD4  0E00               	movwf	((c:?_vfpfcnvrt+1)),c
  3360  001FD6  6E41               	movlw	low(01h)
  3361  001FD8  0E01               	movwf	((c:?_vfpfcnvrt)),c
  3362  001FDA  6E40               	goto	l274
  3363  001FDC  EFF0  F00F         	
  3364                           l3974:
  3365  001FE0                     	line	1365
  3366                           	
  3367                           l274:
  3368  001FE0                     	return	;funcret
  3369  001FE0  0012               	opt stack 0
  3370                           GLOBAL	__end_of_vfpfcnvrt
  3371                           	__end_of_vfpfcnvrt:
  3372  001FE2                     	signat	_vfpfcnvrt,12410
  3373                           	global	_strncmp
  3374                           
  3375 ;; *************** function _strncmp *****************
  3376 ;; Defined at:
  3377 ;;		line 3 in file "/opt/microchip/xc8/v2.00/pic/sources/c99/common/strncmp.c"
  3378 ;; Parameters:    Size  Location     Type
  3379 ;;  _l              2    0[COMRAM] PTR const unsigned char 
  3380 ;;		 -> vfpfcnvrt@ct(3), 
  3381 ;;  _r              2    2[COMRAM] PTR const unsigned char 
  3382 ;;		 -> STR_14(3), 
  3383 ;;  n               2    4[COMRAM] unsigned int 
  3384 ;; Auto vars:     Size  Location     Type
  3385 ;;  r               2   11[COMRAM] PTR const unsigned char 
  3386 ;;		 -> STR_14(3), 
  3387 ;;  l               2    9[COMRAM] PTR const unsigned char 
  3388 ;;		 -> vfpfcnvrt@ct(3), 
  3389 ;; Return value:  Size  Location     Type
  3390 ;;                  2    0[COMRAM] int 
  3391 ;; Registers used:
  3392 ;;		wreg, fsr2l, fsr2h, status,2, status,0, tblptrl, tblptrh, tblptru
  3393 ;; Tracked objects:
  3394 ;;		On entry : 0/0
  3395 ;;		On exit  : 0/0
  3396 ;;		Unchanged: 0/0
  3397 ;; Data sizes:     COMRAM   BANK0   BANK1   BANK2   BANK3   BANK4   BANK5   BANK6   BANK7
  3398 ;;      Params:         6       0       0       0       0       0       0       0       0
  3399 ;;      Locals:         4       0       0       0       0       0       0       0       0
  3400 ;;      Temps:          3       0       0       0       0       0       0       0       0
  3401 ;;      Totals:        13       0       0       0       0       0       0       0       0
  3402 ;;Total ram usage:       13 bytes
  3403 ;; Hardware stack levels used:    1
  3404 ;; This function calls:
  3405 ;;		Nothing
  3406 ;; This function is called by:
  3407 ;;		_vfpfcnvrt
  3408 ;; This function uses a non-reentrant model
  3409 ;;
  3410                           psect	text5,class=CODE,space=0,reloc=2,group=2
  3411                           	file	"/opt/microchip/xc8/v2.00/pic/sources/c99/common/strncmp.c"
  3412                           	line	3
  3413                           global __ptext5
  3414                           __ptext5:
  3415  00373E                     psect	text5
  3416                           	file	"/opt/microchip/xc8/v2.00/pic/sources/c99/common/strncmp.c"
  3417                           	line	3
  3418                           	global	__size_of_strncmp
  3419                           	__size_of_strncmp	equ	__end_of_strncmp-_strncmp
  3420  0000                     	
  3421                           _strncmp:
  3422  00373E                     ;incstack = 0
  3423                           	opt	stack 27
  3424                           	line	5
  3425                           	
  3426                           l3866:
  3427  00373E                     		movff	(c:strncmp@_l),(c:strncmp@l)
  3428  00373E  C001  F00A         	movff	(c:strncmp@_l+1),(c:strncmp@l+1)
  3429  003742  C002  F00B         
  3430                           		movff	(c:strncmp@_r),(c:strncmp@r)
  3431  003746  C003  F00C         	movff	(c:strncmp@_r+1),(c:strncmp@r+1)
  3432  00374A  C004  F00D         
  3433                           	line	6
  3434                           	decf	((c:strncmp@n)),c
  3435  00374E  0605               	btfss	status,0
  3436  003750  A0D8               	decf	((c:strncmp@n+1)),c
  3437  003752  0606               		incf	((c:strncmp@n)),c,w
  3438  003754  2805               	bnz	u4611
  3439  003756  E106               	incf	((c:strncmp@n+1)),c,w
  3440  003758  2806               	btfss	status,2
  3441  00375A  A4D8               	goto	u4611
  3442  00375C  EFB2  F01B         	goto	u4610
  3443  003760  EFB4  F01B         
  3444                           u4611:
  3445  003764                     	goto	l3874
  3446  003764  EFC7  F01B         u4610:
  3447  003768                     	
  3448                           l3868:
  3449  003768                     	movlw	high(0)
  3450  003768  0E00               	movwf	((c:?_strncmp+1)),c
  3451  00376A  6E02               	movlw	low(0)
  3452  00376C  0E00               	movwf	((c:?_strncmp)),c
  3453  00376E  6E01               	goto	l1090
  3454  003770  EF1C  F01C         	
  3455                           l3870:
  3456  003774                     	goto	l1090
  3457  003774  EF1C  F01C         	
  3458                           l1089:
  3459  003778                     	line	7
  3460                           	goto	l3874
  3461  003778  EFC7  F01B         	
  3462                           l1092:
  3463  00377C                     	
  3464                           l3872:
  3465  00377C                     	infsnz	((c:strncmp@l)),c
  3466  00377C  4A0A               	incf	((c:strncmp@l+1)),c
  3467  00377E  2A0B               	infsnz	((c:strncmp@r)),c
  3468  003780  4A0C               	incf	((c:strncmp@r+1)),c
  3469  003782  2A0D               	decf	((c:strncmp@n)),c
  3470  003784  0605               	btfss	status,0
  3471  003786  A0D8               	decf	((c:strncmp@n+1)),c
  3472  003788  0606               	goto	l3874
  3473  00378A  EFC7  F01B         	
  3474                           l1091:
  3475  00378E                     	
  3476                           l3874:
  3477  00378E                     	movff	(c:strncmp@l),fsr2l
  3478  00378E  C00A  FFD9         	movff	(c:strncmp@l+1),fsr2h
  3479  003792  C00B  FFDA         	movf	indf2,w
  3480  003796  50DF               	btfsc	status,2
  3481  003798  B4D8               	goto	u4621
  3482  00379A  EFD1  F01B         	goto	u4620
  3483  00379E  EFD3  F01B         u4621:
  3484  0037A2                     	goto	l3882
  3485  0037A2  EF02  F01C         u4620:
  3486  0037A6                     	
  3487                           l3876:
  3488  0037A6                     	movff	(c:strncmp@r),tblptrl
  3489  0037A6  C00C  FFF6         	movff	(c:strncmp@r+1),tblptrh
  3490  0037AA  C00D  FFF7         	if	0	;tblptru may be non-zero
  3491  0037AE                     	clrf	tblptru
  3493  0037AE                     	if	0	;tblptru may be non-zero
  3494  0037AE                     	global __mediumconst
  3495                           movlw	low highword(__mediumconst)
  3498  0037AE                     	tblrd	*
  3499  0037AE  0008               	
  3500                           	movf	tablat,w
  3501  0037B0  50F5               	iorlw	0
  3502  0037B2  0900               	btfsc	status,2
  3503  0037B4  B4D8               	goto	u4631
  3504  0037B6  EFDF  F01B         	goto	u4630
  3505  0037BA  EFE1  F01B         u4631:
  3506  0037BE                     	goto	l3882
  3507  0037BE  EF02  F01C         u4630:
  3508  0037C2                     	
  3509                           l3878:
  3510  0037C2                     	movf	((c:strncmp@n)),c,w
  3511  0037C2  5005               iorwf	((c:strncmp@n+1)),c,w
  3512  0037C4  1006               	btfsc	status,2
  3513  0037C6  B4D8               	goto	u4641
  3514  0037C8  EFE8  F01B         	goto	u4640
  3515  0037CC  EFEA  F01B         
  3516                           u4641:
  3517  0037D0                     	goto	l3882
  3518  0037D0  EF02  F01C         u4640:
  3519  0037D4                     	
  3520                           l3880:
  3521  0037D4                     	movff	(c:strncmp@l),fsr2l
  3522  0037D4  C00A  FFD9         	movff	(c:strncmp@l+1),fsr2h
  3523  0037D8  C00B  FFDA         	movf	indf2,w
  3524  0037DC  50DF               	movwf	(??_strncmp+0+0)&0ffh,c
  3525  0037DE  6E07               	movff	(c:strncmp@r),tblptrl
  3526  0037E0  C00C  FFF6         	movff	(c:strncmp@r+1),tblptrh
  3527  0037E4  C00D  FFF7         	if	0	;tblptru may be non-zero
  3528  0037E8                     	clrf	tblptru
  3530  0037E8                     	if	0	;tblptru may be non-zero
  3531  0037E8                     	global __mediumconst
  3532                           movlw	low highword(__mediumconst)
  3535  0037E8                     	tblrd	*
  3536  0037E8  0008               	
  3537                           	movf	tablat,w
  3538  0037EA  50F5               	xorwf	((??_strncmp+0+0)),c,w
  3539  0037EC  1807               
  3540                           	btfsc	status,2
  3541  0037EE  B4D8               	goto	u4651
  3542  0037F0  EFFC  F01B         	goto	u4650
  3543  0037F4  EFFE  F01B         u4651:
  3544  0037F8                     	goto	l3872
  3545  0037F8  EFBE  F01B         u4650:
  3546  0037FC                     	goto	l3882
  3547  0037FC  EF02  F01C         	
  3548                           l1094:
  3549  003800                     	goto	l3882
  3550  003800  EF02  F01C         	
  3551                           l1095:
  3552  003804                     	line	8
  3553                           	
  3554                           l3882:
  3555  003804                     	movff	(c:strncmp@r),tblptrl
  3556  003804  C00C  FFF6         	movff	(c:strncmp@r+1),tblptrh
  3557  003808  C00D  FFF7         	if	0	;tblptru may be non-zero
  3558  00380C                     	clrf	tblptru
  3560  00380C                     	if	0	;tblptru may be non-zero
  3561  00380C                     	global __mediumconst
  3562                           movlw	low highword(__mediumconst)
  3565  00380C                     	tblrd	*
  3566  00380C  0008               	
  3567                           	movf	tablat,w
  3568  00380E  50F5               	movwf	(??_strncmp+0+0)&0ffh,c
  3569  003810  6E07               	clrf	(??_strncmp+0+0+1)&0ffh,c
  3570  003812  6A08               
  3571                           	comf	(??_strncmp+0+0),c
  3572  003814  1E07               	comf	(??_strncmp+0+1),c
  3573  003816  1E08               	infsnz	(??_strncmp+0+0),c
  3574  003818  4A07               	incf	(??_strncmp+0+1),c
  3575  00381A  2A08               	movff	(c:strncmp@l),fsr2l
  3576  00381C  C00A  FFD9         	movff	(c:strncmp@l+1),fsr2h
  3577  003820  C00B  FFDA         	movf	indf2,w
  3578  003824  50DF               	movwf	(??_strncmp+2+0)&0ffh,c
  3579  003826  6E09               	movf	((??_strncmp+2+0)),c,w
  3580  003828  5009               	addwf	(??_strncmp+0+0),c,w
  3581  00382A  2407               	movwf	((c:?_strncmp)),c
  3582  00382C  6E01               	movlw	0
  3583  00382E  0E00               	addwfc	(??_strncmp+0+1),c,w
  3584  003830  2008               	movwf	1+((c:?_strncmp)),c
  3585  003832  6E02               	goto	l1090
  3586  003834  EF1C  F01C         	
  3587                           l3884:
  3588  003838                     	line	9
  3589                           	
  3590                           l1090:
  3591  003838                     	return	;funcret
  3592  003838  0012               	opt stack 0
  3593                           GLOBAL	__end_of_strncmp
  3594                           	__end_of_strncmp:
  3595  00383A                     	signat	_strncmp,12410
  3596                           	global	_efgtoa
  3597                           
  3598 ;; *************** function _efgtoa *****************
  3599 ;; Defined at:
  3600 ;;		line 319 in file "/opt/microchip/xc8/v2.00/pic/sources/c99/common/doprnt.c"
  3601 ;; Parameters:    Size  Location     Type
  3602 ;;  fp              2   51[COMRAM] PTR struct _IO_FILE
  3603 ;;		 -> sprintf@f(6), 
  3604 ;;  f               4   53[COMRAM] PTR struct _IO_FILE
  3605 ;;  c               1   57[COMRAM] unsigned char 
  3606 ;; Auto vars:     Size  Location     Type
  3607 ;;  u               4   52[BANK0 ] unsigned char 
  3608 ;;  g               4   44[BANK0 ] unsigned char 
  3609 ;;  l               4   38[BANK0 ] unsigned char 
  3610 ;;  h               4   34[BANK0 ] unsigned char 
  3611 ;;  ou              4    0[BANK0 ] unsigned char 
  3612 ;;  n               2   50[BANK0 ] int 
  3613 ;;  e               2   48[BANK0 ] int 
  3614 ;;  i               2   42[BANK0 ] int 
  3615 ;;  w               2   31[BANK0 ] int 
  3616 ;;  p               2   28[BANK0 ] int 
  3617 ;;  sign            2   26[BANK0 ] int 
  3618 ;;  d               2   24[BANK0 ] int 
  3619 ;;  ne              2   22[BANK0 ] int 
  3620 ;;  m               2   20[BANK0 ] int 
  3621 ;;  pp              2   18[BANK0 ] int 
  3622 ;;  t               2   16[BANK0 ] int 
  3623 ;;  mode            1   33[BANK0 ] unsigned char 
  3624 ;;  nmode           1   30[BANK0 ] unsigned char 
  3625 ;; Return value:  Size  Location     Type
  3626 ;;                  2   51[COMRAM] int 
  3627 ;; Registers used:
  3628 ;;		wreg, fsr1l, fsr1h, fsr2l, fsr2h, status,2, status,0, tblptrl, tblptrh, tblptru, prodl, prodh, cstack
  3629 ;; Tracked objects:
  3630 ;;		On entry : 0/0
  3631 ;;		On exit  : 0/0
  3632 ;;		Unchanged: 0/0
  3633 ;; Data sizes:     COMRAM   BANK0   BANK1   BANK2   BANK3   BANK4   BANK5   BANK6   BANK7
  3634 ;;      Params:         7       0       0       0       0       0       0       0       0
  3635 ;;      Locals:         0      56       0       0       0       0       0       0       0
  3636 ;;      Temps:          5       0       0       0       0       0       0       0       0
  3637 ;;      Totals:        12      56       0       0       0       0       0       0       0
  3638 ;;Total ram usage:       68 bytes
  3639 ;; Hardware stack levels used:    1
  3640 ;; Hardware stack levels required when called:    4
  3641 ;; This function calls:
  3642 ;;		___awdiv
  3643 ;;		___awmod
  3644 ;;		___fladd
  3645 ;;		___fldiv
  3646 ;;		___fleq
  3647 ;;		___flge
  3648 ;;		___flmul
  3649 ;;		___flneg
  3650 ;;		___flsub
  3651 ;;		___fltol
  3652 ;;		___fpclassifyf
  3653 ;;		_floorf
  3654 ;;		_isupper
  3655 ;;		_pad
  3656 ;;		_strcpy
  3657 ;;		_tolower
  3658 ;; This function is called by:
  3659 ;;		_vfpfcnvrt
  3660 ;; This function uses a non-reentrant model
  3661 ;;
  3662                           psect	text6,class=CODE,space=0,reloc=2,group=0
  3663                           	file	"/opt/microchip/xc8/v2.00/pic/sources/c99/common/doprnt.c"
  3664                           	line	319
  3665                           global __ptext6
  3666                           __ptext6:
  3667  00082C                     psect	text6
  3668                           	file	"/opt/microchip/xc8/v2.00/pic/sources/c99/common/doprnt.c"
  3669                           	line	319
  3670                           	global	__size_of_efgtoa
  3671                           	__size_of_efgtoa	equ	__end_of_efgtoa-_efgtoa
  3672  0000                     	
  3673                           _efgtoa:
  3674  00082C                     ;incstack = 0
  3675                           	opt	stack 23
  3676                           	line	326
  3677                           	
  3678                           l3526:
  3679  00082C                     ;/opt/microchip/xc8/v2.00/pic/sources/c99/common/doprnt.c: 319: static int efgtoa(FILE *
                                 fp, long double f, char c);/opt/microchip/xc8/v2.00/pic/sources/c99/common/doprnt.c: 320
                                 : {;/opt/microchip/xc8/v2.00/pic/sources/c99/common/doprnt.c: 321:     char mode, nmode;
                                 ;/opt/microchip/xc8/v2.00/pic/sources/c99/common/doprnt.c: 322:     int d, e, i, m, n, n
                                 e, p, pp, sign, t, w;;/opt/microchip/xc8/v2.00/pic/sources/c99/common/doprnt.c: 323:    
                                  long double g, h, l, ou, u;;/opt/microchip/xc8/v2.00/pic/sources/c99/common/doprnt.c: 3
                                 26:     sign = 0;
  3680                           	movlw	high(0)
  3681  00082C  0E00               	movlb	0	; () banked
  3682  00082E  0100               	movwf	((efgtoa@sign+1))&0ffh
  3683  000830  6F7B               	movlw	low(0)
  3684  000832  0E00               	movwf	((efgtoa@sign))&0ffh
  3685  000834  6F7A               	line	327
  3686                           	
  3687                           l3528:; BSR set to: 0
  3688  000836                     
  3689                           ;/opt/microchip/xc8/v2.00/pic/sources/c99/common/doprnt.c: 327:     g = f;
  3690                           	movff	(c:efgtoa@f),(efgtoa@g)
  3691  000836  C036  F08C         	movff	(c:efgtoa@f+1),(efgtoa@g+1)
  3692  00083A  C037  F08D         	movff	(c:efgtoa@f+2),(efgtoa@g+2)
  3693  00083E  C038  F08E         	movff	(c:efgtoa@f+3),(efgtoa@g+3)
  3694  000842  C039  F08F         	line	328
  3695                           	
  3696                           l3530:; BSR set to: 0
  3697  000846                     
  3698                           ;/opt/microchip/xc8/v2.00/pic/sources/c99/common/doprnt.c: 328:     if (g < 0.0) {
  3699                           	btfsc	((efgtoa@g+3))&0ffh,7
  3700  000846  BF8F               	goto	u4020
  3701  000848  EF2A  F004         	goto	u4021
  3702  00084C  EF28  F004         
  3703                           u4021:
  3704  000850                     	goto	l3536
  3705  000850  EF42  F004         u4020:
  3706  000854                     	line	329
  3707                           	
  3708                           l3532:; BSR set to: 0
  3709  000854                     
  3710                           ;/opt/microchip/xc8/v2.00/pic/sources/c99/common/doprnt.c: 329:         sign = 1;
  3711                           	movlw	high(01h)
  3712  000854  0E00               	movwf	((efgtoa@sign+1))&0ffh
  3713  000856  6F7B               	movlw	low(01h)
  3714  000858  0E01               	movwf	((efgtoa@sign))&0ffh
  3715  00085A  6F7A               	line	330
  3716                           	
  3717                           l3534:; BSR set to: 0
  3718  00085C                     
  3719                           ;/opt/microchip/xc8/v2.00/pic/sources/c99/common/doprnt.c: 330:         g = -g;
  3720                           	movff	(efgtoa@g),(c:___flneg@f1)
  3721  00085C  C08C  F001         	movff	(efgtoa@g+1),(c:___flneg@f1+1)
  3722  000860  C08D  F002         	movff	(efgtoa@g+2),(c:___flneg@f1+2)
  3723  000864  C08E  F003         	movff	(efgtoa@g+3),(c:___flneg@f1+3)
  3724  000868  C08F  F004         	call	___flneg	;wreg free
  3725  00086C  ECB2  F020         	movff	0+?___flneg,(efgtoa@g)
  3726  000870  C001  F08C         	movff	1+?___flneg,(efgtoa@g+1)
  3727  000874  C002  F08D         	movff	2+?___flneg,(efgtoa@g+2)
  3728  000878  C003  F08E         	movff	3+?___flneg,(efgtoa@g+3)
  3729  00087C  C004  F08F         	
  3730                           	goto	l3536
  3731  000880  EF42  F004         	line	331
  3732                           ;/opt/microchip/xc8/v2.00/pic/sources/c99/common/doprnt.c: 331:     }
  3733                           	
  3734                           l169:
  3735  000884                     	line	334
  3736                           	
  3737                           l3536:
  3738  000884                     ;/opt/microchip/xc8/v2.00/pic/sources/c99/common/doprnt.c: 334:     n = 0;
  3739                           	movlw	high(0)
  3740  000884  0E00               	movlb	0	; () banked
  3741  000886  0100               	movwf	((efgtoa@n+1))&0ffh
  3742  000888  6F93               	movlw	low(0)
  3743  00088A  0E00               	movwf	((efgtoa@n))&0ffh
  3744  00088C  6F92               	line	335
  3745                           	
  3746                           l3538:; BSR set to: 0
  3747  00088E                     
  3748                           ;/opt/microchip/xc8/v2.00/pic/sources/c99/common/doprnt.c: 335:     w = width;
  3749                           	movff	(_width),(efgtoa@w)
  3750  00088E  C0C4  F07F         	movff	(_width+1),(efgtoa@w+1)
  3751  000892  C0C5  F080         	line	336
  3752                           	
  3753                           l3540:; BSR set to: 0
  3754  000896                     
  3755                           ;/opt/microchip/xc8/v2.00/pic/sources/c99/common/doprnt.c: 336:     if (sign || (flags &
                                  (1 << 2))) {
  3756                           	movf	((efgtoa@sign))&0ffh,w
  3757  000896  517A               iorwf	((efgtoa@sign+1))&0ffh,w
  3758  000898  117B               	btfss	status,2
  3759  00089A  A4D8               	goto	u4031
  3760  00089C  EF52  F004         	goto	u4030
  3761  0008A0  EF54  F004         
  3762                           u4031:
  3763  0008A4                     	goto	l3544
  3764  0008A4  EF5D  F004         u4030:
  3765  0008A8                     	
  3766                           l3542:; BSR set to: 0
  3767  0008A8                     
  3768                           	
  3769                           	btfss	((_flags))&0ffh,(2)&7
  3770  0008A8  A5C8               	goto	u4041
  3771  0008AA  EF59  F004         	goto	u4040
  3772  0008AE  EF5B  F004         u4041:
  3773  0008B2                     	goto	l3556
  3774  0008B2  EF81  F004         u4040:
  3775  0008B6                     	goto	l3544
  3776  0008B6  EF5D  F004         	
  3777                           l172:; BSR set to: 0
  3778  0008BA                     
  3779                           	line	337
  3780                           	
  3781                           l3544:; BSR set to: 0
  3782  0008BA                     
  3783                           ;/opt/microchip/xc8/v2.00/pic/sources/c99/common/doprnt.c: 337:         dbuf[n] = sign ?
                                  '-' : '+';
  3784                           	movf	((efgtoa@sign))&0ffh,w
  3785  0008BA  517A               iorwf	((efgtoa@sign+1))&0ffh,w
  3786  0008BC  117B               	btfss	status,2
  3787  0008BE  A4D8               	goto	u4051
  3788  0008C0  EF64  F004         	goto	u4050
  3789  0008C4  EF66  F004         
  3790                           u4051:
  3791  0008C8                     	goto	l3548
  3792  0008C8  EF6C  F004         u4050:
  3793  0008CC                     	
  3794                           l3546:; BSR set to: 0
  3795  0008CC                     
  3796                           	movlw	high(02Bh)
  3797  0008CC  0E00               	movwf	((_efgtoa$445+1))&0ffh
  3798  0008CE  6F65               	movlw	low(02Bh)
  3799  0008D0  0E2B               	movwf	((_efgtoa$445))&0ffh
  3800  0008D2  6F64               	goto	l3550
  3801  0008D4  EF72  F004         	
  3802                           l174:; BSR set to: 0
  3803  0008D8                     
  3804                           	
  3805                           l3548:; BSR set to: 0
  3806  0008D8                     
  3807                           	movlw	high(02Dh)
  3808  0008D8  0E00               	movwf	((_efgtoa$445+1))&0ffh
  3809  0008DA  6F65               	movlw	low(02Dh)
  3810  0008DC  0E2D               	movwf	((_efgtoa$445))&0ffh
  3811  0008DE  6F64               	goto	l3550
  3812  0008E0  EF72  F004         	
  3813                           l176:; BSR set to: 0
  3814  0008E4                     
  3815                           	
  3816                           l3550:; BSR set to: 0
  3817  0008E4                     
  3818                           	movlw	low(_dbuf)
  3819  0008E4  0E00               	addwf	((efgtoa@n))&0ffh,w
  3820  0008E6  2592               	movwf	c:fsr2l
  3821  0008E8  6ED9               	movlw	high(_dbuf)
  3822  0008EA  0E01               	addwfc	((efgtoa@n+1))&0ffh,w
  3823  0008EC  2193               	movwf	1+c:fsr2l
  3824  0008EE  6EDA               	movff	(_efgtoa$445),indf2
  3825  0008F0  C064  FFDF         
  3826                           	line	338
  3827                           	
  3828                           l3552:; BSR set to: 0
  3829  0008F4                     
  3830                           ;/opt/microchip/xc8/v2.00/pic/sources/c99/common/doprnt.c: 338:         ++n;
  3831                           	infsnz	((efgtoa@n))&0ffh
  3832  0008F4  4B92               	incf	((efgtoa@n+1))&0ffh
  3833  0008F6  2B93               	line	339
  3834                           	
  3835                           l3554:; BSR set to: 0
  3836  0008F8                     
  3837                           ;/opt/microchip/xc8/v2.00/pic/sources/c99/common/doprnt.c: 339:         --w;
  3838                           	decf	((efgtoa@w))&0ffh
  3839  0008F8  077F               	btfss	status,0
  3840  0008FA  A0D8               	decf	((efgtoa@w+1))&0ffh
  3841  0008FC  0780               	goto	l3556
  3842  0008FE  EF81  F004         	line	340
  3843                           ;/opt/microchip/xc8/v2.00/pic/sources/c99/common/doprnt.c: 340:     }
  3844                           	
  3845                           l170:; BSR set to: 0
  3846  000902                     
  3847                           	line	343
  3848                           	
  3849                           l3556:; BSR set to: 0
  3850  000902                     
  3851                           ;/opt/microchip/xc8/v2.00/pic/sources/c99/common/doprnt.c: 344:         if ((0 ? isupper
                                 ((int)c) : ((unsigned)((int)c)-'A') < 26)) {
  3852                           	movff	(efgtoa@g),(c:___fpclassifyf@x)
  3853  000902  C08C  F001         	movff	(efgtoa@g+1),(c:___fpclassifyf@x+1)
  3854  000906  C08D  F002         	movff	(efgtoa@g+2),(c:___fpclassifyf@x+2)
  3855  00090A  C08E  F003         	movff	(efgtoa@g+3),(c:___fpclassifyf@x+3)
  3856  00090E  C08F  F004         	call	___fpclassifyf	;wreg free
  3857  000912  EC18  F01B         		decf	(0+?___fpclassifyf),c,w
  3858  000916  0401               iorwf	(1+?___fpclassifyf),c,w
  3859  000918  1002               	btfss	status,2
  3860  00091A  A4D8               	goto	u4061
  3861  00091C  EF92  F004         	goto	u4060
  3862  000920  EF94  F004         
  3863                           u4061:
  3864  000924                     	goto	l3574
  3865  000924  EFFE  F004         u4060:
  3866  000928                     	line	344
  3867                           	
  3868                           l3558:
  3869  000928                     	movlw	low(0FFBFh)
  3870  000928  0EBF               	movwf	(??_efgtoa+0+0)&0ffh,c
  3871  00092A  6E3B               	movlw	high(0FFBFh)
  3872  00092C  0EFF               	movwf	1+(??_efgtoa+0+0)&0ffh,c
  3873  00092E  6E3C               	movf	((c:efgtoa@c)),c,w
  3874  000930  503A               	movwf	(??_efgtoa+2+0)&0ffh,c
  3875  000932  6E3D               	clrf	(??_efgtoa+2+0+1)&0ffh,c
  3876  000934  6A3E               
  3877                           	movf	(??_efgtoa+0+0),c,w
  3878  000936  503B               	addwf	(??_efgtoa+2+0),c
  3879  000938  263D               	movf	(??_efgtoa+0+1),c,w
  3880  00093A  503C               	addwfc	(??_efgtoa+2+1),c
  3881  00093C  223E               		movf	(??_efgtoa+2+1),c,w
  3882  00093E  503E               	bnz	u4070
  3883  000940  E10A               	movlw	26
  3884  000942  0E1A               	subwf	 (??_efgtoa+2+0),c,w
  3885  000944  5C3D               	btfss	status,0
  3886  000946  A0D8               	goto	u4071
  3887  000948  EFA8  F004         	goto	u4070
  3888  00094C  EFAB  F004         
  3889                           u4071:
  3890  000950                     	movlw	1
  3891  000950  0E01               	goto	u4080
  3892  000952  EFAC  F004         u4070:
  3893  000956                     	movlw	0
  3894  000956  0E00               u4080:
  3895  000958                     	movlb	0	; () banked
  3896  000958  0100               	movwf	((_efgtoa$446))&0ffh
  3897  00095A  6F66               	clrf	((_efgtoa$446+1))&0ffh
  3898  00095C  6B67               	goto	l3562
  3899  00095E  EFBC  F004         	
  3900                           l180:; BSR set to: 0
  3901  000962                     
  3902                           	
  3903                           l3560:; BSR set to: 0
  3904  000962                     
  3905                           	movff	(c:efgtoa@c),(c:isupper@c)
  3906  000962  C03A  F001         	clrf	((c:isupper@c+1)),c
  3907  000966  6A02               	call	_isupper	;wreg free
  3908  000968  ECD2  F020         	movff	0+?_isupper,(_efgtoa$446)
  3909  00096C  C001  F066         	movff	1+?_isupper,(_efgtoa$446+1)
  3910  000970  C002  F067         	goto	l3562
  3911  000974  EFBC  F004         	
  3912                           l182:
  3913  000978                     	
  3914                           l3562:
  3915  000978                     	movlb	0	; () banked
  3916  000978  0100               	movf	((_efgtoa$446))&0ffh,w
  3917  00097A  5166               iorwf	((_efgtoa$446+1))&0ffh,w
  3918  00097C  1167               	btfsc	status,2
  3919  00097E  B4D8               	goto	u4091
  3920  000980  EFC4  F004         	goto	u4090
  3921  000984  EFC6  F004         
  3922                           u4091:
  3923  000988                     	goto	l3566
  3924  000988  EFD4  F004         u4090:
  3925  00098C                     	line	345
  3926                           	
  3927                           l3564:; BSR set to: 0
  3928  00098C                     
  3929                           ;/opt/microchip/xc8/v2.00/pic/sources/c99/common/doprnt.c: 345:             strcpy(&dbuf
                                 [n], "INF");
  3930                           	movlw	low(_dbuf)
  3931  00098C  0E00               	addwf	((efgtoa@n))&0ffh,w
  3932  00098E  2592               	movwf	((c:strcpy@dest)),c
  3933  000990  6E07               	movlw	high(_dbuf)
  3934  000992  0E01               	addwfc	((efgtoa@n+1))&0ffh,w
  3935  000994  2193               	movwf	1+((c:strcpy@dest)),c
  3936  000996  6E08               		movlw	low(STR_4)
  3937  000998  0E14               	movwf	((c:strcpy@src)),c
  3938  00099A  6E09               	movlw	high(STR_4)
  3939  00099C  0E08               	movwf	((c:strcpy@src+1)),c
  3940  00099E  6E0A               
  3941                           	call	_strcpy	;wreg free
  3942  0009A0  EC7B  F01F         	line	346
  3943                           ;/opt/microchip/xc8/v2.00/pic/sources/c99/common/doprnt.c: 346:         } else {
  3944                           	goto	l3568
  3945  0009A4  EFE3  F004         	
  3946                           l178:
  3947  0009A8                     	line	347
  3948                           	
  3949                           l3566:
  3950  0009A8                     ;/opt/microchip/xc8/v2.00/pic/sources/c99/common/doprnt.c: 347:             strcpy(&dbuf
                                 [n], "inf");
  3951                           	movlw	low(_dbuf)
  3952  0009A8  0E00               	movlb	0	; () banked
  3953  0009AA  0100               	addwf	((efgtoa@n))&0ffh,w
  3954  0009AC  2592               	movwf	((c:strcpy@dest)),c
  3955  0009AE  6E07               	movlw	high(_dbuf)
  3956  0009B0  0E01               	addwfc	((efgtoa@n+1))&0ffh,w
  3957  0009B2  2193               	movwf	1+((c:strcpy@dest)),c
  3958  0009B4  6E08               		movlw	low(STR_5)
  3959  0009B6  0E1C               	movwf	((c:strcpy@src)),c
  3960  0009B8  6E09               	movlw	high(STR_5)
  3961  0009BA  0E08               	movwf	((c:strcpy@src+1)),c
  3962  0009BC  6E0A               
  3963                           	call	_strcpy	;wreg free
  3964  0009BE  EC7B  F01F         	goto	l3568
  3965  0009C2  EFE3  F004         	line	348
  3966                           ;/opt/microchip/xc8/v2.00/pic/sources/c99/common/doprnt.c: 348:         }
  3967                           	
  3968                           l183:
  3969  0009C6                     	line	349
  3970                           	
  3971                           l3568:
  3972  0009C6                     ;/opt/microchip/xc8/v2.00/pic/sources/c99/common/doprnt.c: 349:         w -= ((sizeof("i
                                 nf")/sizeof("inf"[0]))-1);
  3973                           	movlb	0	; () banked
  3974  0009C6  0100               	movlw	low(-3)
  3975  0009C8  0EFD               	addwf	((efgtoa@w))&0ffh
  3976  0009CA  277F               	movlw	high(-3)
  3977  0009CC  0EFF               	addwfc	((efgtoa@w+1))&0ffh
  3978  0009CE  2380               	line	350
  3979                           	
  3980                           l3570:; BSR set to: 0
  3981  0009D0                     
  3982                           ;/opt/microchip/xc8/v2.00/pic/sources/c99/common/doprnt.c: 350:         return pad(fp, &
                                 dbuf[0], w);
  3983                           		movff	(c:efgtoa@fp),(c:pad@fp)
  3984  0009D0  C034  F011         	movff	(c:efgtoa@fp+1),(c:pad@fp+1)
  3985  0009D4  C035  F012         
  3986                           		movlw	low(_dbuf)
  3987  0009D8  0E00               	movwf	((c:pad@buf)),c
  3988  0009DA  6E13               	movlw	high(_dbuf)
  3989  0009DC  0E01               	movwf	((c:pad@buf+1)),c
  3990  0009DE  6E14               
  3991                           	movff	(efgtoa@w),(c:pad@p)
  3992  0009E0  C07F  F015         	movff	(efgtoa@w+1),(c:pad@p+1)
  3993  0009E4  C080  F016         	call	_pad	;wreg free
  3994  0009E8  EC6E  F01D         	movff	0+?_pad,(c:?_efgtoa)
  3995  0009EC  C011  F034         	movff	1+?_pad,(c:?_efgtoa+1)
  3996  0009F0  C012  F035         	goto	l184
  3997  0009F4  EFA6  F00A         	
  3998                           l3572:
  3999  0009F8                     	goto	l184
  4000  0009F8  EFA6  F00A         	line	351
  4001                           ;/opt/microchip/xc8/v2.00/pic/sources/c99/common/doprnt.c: 351:     }
  4002                           	
  4003                           l177:
  4004  0009FC                     	line	352
  4005                           	
  4006                           l3574:
  4007  0009FC                     ;/opt/microchip/xc8/v2.00/pic/sources/c99/common/doprnt.c: 353:         if ((0 ? isupper
                                 ((int)c) : ((unsigned)((int)c)-'A') < 26)) {
  4008                           	movff	(efgtoa@g),(c:___fpclassifyf@x)
  4009  0009FC  C08C  F001         	movff	(efgtoa@g+1),(c:___fpclassifyf@x+1)
  4010  000A00  C08D  F002         	movff	(efgtoa@g+2),(c:___fpclassifyf@x+2)
  4011  000A04  C08E  F003         	movff	(efgtoa@g+3),(c:___fpclassifyf@x+3)
  4012  000A08  C08F  F004         	call	___fpclassifyf	;wreg free
  4013  000A0C  EC18  F01B         	movf	(0+?___fpclassifyf),c,w
  4014  000A10  5001               iorwf	(1+?___fpclassifyf),c,w
  4015  000A12  1002               	btfss	status,2
  4016  000A14  A4D8               	goto	u4101
  4017  000A16  EF0F  F005         	goto	u4100
  4018  000A1A  EF11  F005         
  4019                           u4101:
  4020  000A1E                     	goto	l3592
  4021  000A1E  EF7B  F005         u4100:
  4022  000A22                     	line	353
  4023                           	
  4024                           l3576:
  4025  000A22                     	movlw	low(0FFBFh)
  4026  000A22  0EBF               	movwf	(??_efgtoa+0+0)&0ffh,c
  4027  000A24  6E3B               	movlw	high(0FFBFh)
  4028  000A26  0EFF               	movwf	1+(??_efgtoa+0+0)&0ffh,c
  4029  000A28  6E3C               	movf	((c:efgtoa@c)),c,w
  4030  000A2A  503A               	movwf	(??_efgtoa+2+0)&0ffh,c
  4031  000A2C  6E3D               	clrf	(??_efgtoa+2+0+1)&0ffh,c
  4032  000A2E  6A3E               
  4033                           	movf	(??_efgtoa+0+0),c,w
  4034  000A30  503B               	addwf	(??_efgtoa+2+0),c
  4035  000A32  263D               	movf	(??_efgtoa+0+1),c,w
  4036  000A34  503C               	addwfc	(??_efgtoa+2+1),c
  4037  000A36  223E               		movf	(??_efgtoa+2+1),c,w
  4038  000A38  503E               	bnz	u4110
  4039  000A3A  E10A               	movlw	26
  4040  000A3C  0E1A               	subwf	 (??_efgtoa+2+0),c,w
  4041  000A3E  5C3D               	btfss	status,0
  4042  000A40  A0D8               	goto	u4111
  4043  000A42  EF25  F005         	goto	u4110
  4044  000A46  EF28  F005         
  4045                           u4111:
  4046  000A4A                     	movlw	1
  4047  000A4A  0E01               	goto	u4120
  4048  000A4C  EF29  F005         u4110:
  4049  000A50                     	movlw	0
  4050  000A50  0E00               u4120:
  4051  000A52                     	movlb	0	; () banked
  4052  000A52  0100               	movwf	((_efgtoa$451))&0ffh
  4053  000A54  6F68               	clrf	((_efgtoa$451+1))&0ffh
  4054  000A56  6B69               	goto	l3580
  4055  000A58  EF39  F005         	
  4056                           l188:; BSR set to: 0
  4057  000A5C                     
  4058                           	
  4059                           l3578:; BSR set to: 0
  4060  000A5C                     
  4061                           	movff	(c:efgtoa@c),(c:isupper@c)
  4062  000A5C  C03A  F001         	clrf	((c:isupper@c+1)),c
  4063  000A60  6A02               	call	_isupper	;wreg free
  4064  000A62  ECD2  F020         	movff	0+?_isupper,(_efgtoa$451)
  4065  000A66  C001  F068         	movff	1+?_isupper,(_efgtoa$451+1)
  4066  000A6A  C002  F069         	goto	l3580
  4067  000A6E  EF39  F005         	
  4068                           l190:
  4069  000A72                     	
  4070                           l3580:
  4071  000A72                     	movlb	0	; () banked
  4072  000A72  0100               	movf	((_efgtoa$451))&0ffh,w
  4073  000A74  5168               iorwf	((_efgtoa$451+1))&0ffh,w
  4074  000A76  1169               	btfsc	status,2
  4075  000A78  B4D8               	goto	u4131
  4076  000A7A  EF41  F005         	goto	u4130
  4077  000A7E  EF43  F005         
  4078                           u4131:
  4079  000A82                     	goto	l3584
  4080  000A82  EF51  F005         u4130:
  4081  000A86                     	line	354
  4082                           	
  4083                           l3582:; BSR set to: 0
  4084  000A86                     
  4085                           ;/opt/microchip/xc8/v2.00/pic/sources/c99/common/doprnt.c: 354:             strcpy(&dbuf
                                 [n], "NAN");
  4086                           	movlw	low(_dbuf)
  4087  000A86  0E00               	addwf	((efgtoa@n))&0ffh,w
  4088  000A88  2592               	movwf	((c:strcpy@dest)),c
  4089  000A8A  6E07               	movlw	high(_dbuf)
  4090  000A8C  0E01               	addwfc	((efgtoa@n+1))&0ffh,w
  4091  000A8E  2193               	movwf	1+((c:strcpy@dest)),c
  4092  000A90  6E08               		movlw	low(STR_8)
  4093  000A92  0E18               	movwf	((c:strcpy@src)),c
  4094  000A94  6E09               	movlw	high(STR_8)
  4095  000A96  0E08               	movwf	((c:strcpy@src+1)),c
  4096  000A98  6E0A               
  4097                           	call	_strcpy	;wreg free
  4098  000A9A  EC7B  F01F         	line	355
  4099                           ;/opt/microchip/xc8/v2.00/pic/sources/c99/common/doprnt.c: 355:         } else {
  4100                           	goto	l3586
  4101  000A9E  EF60  F005         	
  4102                           l186:
  4103  000AA2                     	line	356
  4104                           	
  4105                           l3584:
  4106  000AA2                     ;/opt/microchip/xc8/v2.00/pic/sources/c99/common/doprnt.c: 356:             strcpy(&dbuf
                                 [n], "nan");
  4107                           	movlw	low(_dbuf)
  4108  000AA2  0E00               	movlb	0	; () banked
  4109  000AA4  0100               	addwf	((efgtoa@n))&0ffh,w
  4110  000AA6  2592               	movwf	((c:strcpy@dest)),c
  4111  000AA8  6E07               	movlw	high(_dbuf)
  4112  000AAA  0E01               	addwfc	((efgtoa@n+1))&0ffh,w
  4113  000AAC  2193               	movwf	1+((c:strcpy@dest)),c
  4114  000AAE  6E08               		movlw	low(STR_9)
  4115  000AB0  0E20               	movwf	((c:strcpy@src)),c
  4116  000AB2  6E09               	movlw	high(STR_9)
  4117  000AB4  0E08               	movwf	((c:strcpy@src+1)),c
  4118  000AB6  6E0A               
  4119                           	call	_strcpy	;wreg free
  4120  000AB8  EC7B  F01F         	goto	l3586
  4121  000ABC  EF60  F005         	line	357
  4122                           ;/opt/microchip/xc8/v2.00/pic/sources/c99/common/doprnt.c: 357:         }
  4123                           	
  4124                           l191:
  4125  000AC0                     	line	358
  4126                           	
  4127                           l3586:
  4128  000AC0                     ;/opt/microchip/xc8/v2.00/pic/sources/c99/common/doprnt.c: 358:         w -= ((sizeof("i
                                 nf")/sizeof("inf"[0]))-1);
  4129                           	movlb	0	; () banked
  4130  000AC0  0100               	movlw	low(-3)
  4131  000AC2  0EFD               	addwf	((efgtoa@w))&0ffh
  4132  000AC4  277F               	movlw	high(-3)
  4133  000AC6  0EFF               	addwfc	((efgtoa@w+1))&0ffh
  4134  000AC8  2380               	line	359
  4135                           	
  4136                           l3588:; BSR set to: 0
  4137  000ACA                     
  4138                           ;/opt/microchip/xc8/v2.00/pic/sources/c99/common/doprnt.c: 359:         return pad(fp, &
                                 dbuf[0], w);
  4139                           		movff	(c:efgtoa@fp),(c:pad@fp)
  4140  000ACA  C034  F011         	movff	(c:efgtoa@fp+1),(c:pad@fp+1)
  4141  000ACE  C035  F012         
  4142                           		movlw	low(_dbuf)
  4143  000AD2  0E00               	movwf	((c:pad@buf)),c
  4144  000AD4  6E13               	movlw	high(_dbuf)
  4145  000AD6  0E01               	movwf	((c:pad@buf+1)),c
  4146  000AD8  6E14               
  4147                           	movff	(efgtoa@w),(c:pad@p)
  4148  000ADA  C07F  F015         	movff	(efgtoa@w+1),(c:pad@p+1)
  4149  000ADE  C080  F016         	call	_pad	;wreg free
  4150  000AE2  EC6E  F01D         	movff	0+?_pad,(c:?_efgtoa)
  4151  000AE6  C011  F034         	movff	1+?_pad,(c:?_efgtoa+1)
  4152  000AEA  C012  F035         	goto	l184
  4153  000AEE  EFA6  F00A         	
  4154                           l3590:
  4155  000AF2                     	goto	l184
  4156  000AF2  EFA6  F00A         	line	360
  4157                           ;/opt/microchip/xc8/v2.00/pic/sources/c99/common/doprnt.c: 360:     }
  4158                           	
  4159                           l185:
  4160  000AF6                     	line	363
  4161                           	
  4162                           l3592:
  4163  000AF6                     ;/opt/microchip/xc8/v2.00/pic/sources/c99/common/doprnt.c: 363:     u = 1.0;
  4164                           	movlw	low(normalize32(0x3f800000))
  4165  000AF6  0E00               	movlb	0	; () banked
  4166  000AF8  0100               	movwf	((efgtoa@u))&0ffh
  4167  000AFA  6F94               	movlw	high(normalize32(0x3f800000))
  4168  000AFC  0E00               	movwf	((efgtoa@u+1))&0ffh
  4169  000AFE  6F95               	movlw	low highword(normalize32(0x3f800000))
  4170  000B00  0E80               	movwf	((efgtoa@u+2))&0ffh
  4171  000B02  6F96               	movlw	high highword(normalize32(0x3f800000))
  4172  000B04  0E3F               	movwf	((efgtoa@u+3))&0ffh
  4173  000B06  6F97               	line	364
  4174                           ;/opt/microchip/xc8/v2.00/pic/sources/c99/common/doprnt.c: 364:     e = 0;
  4175                           	movlw	high(0)
  4176  000B08  0E00               	movwf	((efgtoa@e+1))&0ffh
  4177  000B0A  6F91               	movlw	low(0)
  4178  000B0C  0E00               	movwf	((efgtoa@e))&0ffh
  4179  000B0E  6F90               	line	365
  4180                           	
  4181                           l3594:; BSR set to: 0
  4182  000B10                     
  4183                           ;/opt/microchip/xc8/v2.00/pic/sources/c99/common/doprnt.c: 365:     if (!(g == 0.0)) {
  4184                           	movff	(efgtoa@g),(c:___fleq@ff1)
  4185  000B10  C08C  F001         	movff	(efgtoa@g+1),(c:___fleq@ff1+1)
  4186  000B14  C08D  F002         	movff	(efgtoa@g+2),(c:___fleq@ff1+2)
  4187  000B18  C08E  F003         	movff	(efgtoa@g+3),(c:___fleq@ff1+3)
  4188  000B1C  C08F  F004         	movlw	low(normalize32(0x0))
  4189  000B20  0E00               	movwf	((c:___fleq@ff2)),c
  4190  000B22  6E05               	movlw	high(normalize32(0x0))
  4191  000B24  0E00               	movwf	((c:___fleq@ff2+1)),c
  4192  000B26  6E06               	movlw	low highword(normalize32(0x0))
  4193  000B28  0E00               	movwf	((c:___fleq@ff2+2)),c
  4194  000B2A  6E07               	movlw	high highword(normalize32(0x0))
  4195  000B2C  0E00               	movwf	((c:___fleq@ff2+3)),c
  4196  000B2E  6E08               	call	___fleq	;wreg free
  4197  000B30  ECD9  F01D         	btfsc	status,0
  4198  000B34  B0D8               	goto	u4141
  4199  000B36  EF9F  F005         	goto	u4140
  4200  000B3A  EFA1  F005         u4141:
  4201  000B3E                     	goto	l3610
  4202  000B3E  EF30  F006         u4140:
  4203  000B42                     	goto	l3602
  4204  000B42  EFC4  F005         	line	366
  4205                           	
  4206                           l3596:
  4207  000B46                     ;/opt/microchip/xc8/v2.00/pic/sources/c99/common/doprnt.c: 366:         while (!(g < (u*
                                 10.0))) {
  4208                           	goto	l3602
  4209  000B46  EFC4  F005         	
  4210                           l194:
  4211  000B4A                     	line	367
  4212                           	
  4213                           l3598:
  4214  000B4A                     ;/opt/microchip/xc8/v2.00/pic/sources/c99/common/doprnt.c: 367:             u = u*10.0;

  4215                           	movff	(efgtoa@u),(c:___flmul@b)
  4216  000B4A  C094  F00F         	movff	(efgtoa@u+1),(c:___flmul@b+1)
  4217  000B4E  C095  F010         	movff	(efgtoa@u+2),(c:___flmul@b+2)
  4218  000B52  C096  F011         	movff	(efgtoa@u+3),(c:___flmul@b+3)
  4219  000B56  C097  F012         	movlw	low(normalize32(0x41200000))
  4220  000B5A  0E00               	movwf	((c:___flmul@a)),c
  4221  000B5C  6E13               	movlw	high(normalize32(0x41200000))
  4222  000B5E  0E00               	movwf	((c:___flmul@a+1)),c
  4223  000B60  6E14               	movlw	low highword(normalize32(0x41200000))
  4224  000B62  0E20               	movwf	((c:___flmul@a+2)),c
  4225  000B64  6E15               	movlw	high highword(normalize32(0x41200000))
  4226  000B66  0E41               	movwf	((c:___flmul@a+3)),c
  4227  000B68  6E16               	call	___flmul	;wreg free
  4228  000B6A  ECF1  F00F         	movff	0+?___flmul,(efgtoa@u)
  4229  000B6E  C00F  F094         	movff	1+?___flmul,(efgtoa@u+1)
  4230  000B72  C010  F095         	movff	2+?___flmul,(efgtoa@u+2)
  4231  000B76  C011  F096         	movff	3+?___flmul,(efgtoa@u+3)
  4232  000B7A  C012  F097         	
  4233                           	line	368
  4234                           	
  4235                           l3600:
  4236  000B7E                     ;/opt/microchip/xc8/v2.00/pic/sources/c99/common/doprnt.c: 368:             ++e;
  4237                           	movlb	0	; () banked
  4238  000B7E  0100               	infsnz	((efgtoa@e))&0ffh
  4239  000B80  4B90               	incf	((efgtoa@e+1))&0ffh
  4240  000B82  2B91               	goto	l3602
  4241  000B84  EFC4  F005         	line	369
  4242                           ;/opt/microchip/xc8/v2.00/pic/sources/c99/common/doprnt.c: 369:         }
  4243                           	
  4244                           l193:; BSR set to: 0
  4245  000B88                     
  4246                           	line	366
  4247                           	
  4248                           l3602:
  4249  000B88                     ;/opt/microchip/xc8/v2.00/pic/sources/c99/common/doprnt.c: 366:         while (!(g < (u*
                                 10.0))) {
  4250                           	movff	(efgtoa@g),(c:___flge@ff1)
  4251  000B88  C08C  F028         	movff	(efgtoa@g+1),(c:___flge@ff1+1)
  4252  000B8C  C08D  F029         	movff	(efgtoa@g+2),(c:___flge@ff1+2)
  4253  000B90  C08E  F02A         	movff	(efgtoa@g+3),(c:___flge@ff1+3)
  4254  000B94  C08F  F02B         	movlw	low(normalize32(0x41200000))
  4255  000B98  0E00               	movwf	((c:___flmul@a)),c
  4256  000B9A  6E13               	movlw	high(normalize32(0x41200000))
  4257  000B9C  0E00               	movwf	((c:___flmul@a+1)),c
  4258  000B9E  6E14               	movlw	low highword(normalize32(0x41200000))
  4259  000BA0  0E20               	movwf	((c:___flmul@a+2)),c
  4260  000BA2  6E15               	movlw	high highword(normalize32(0x41200000))
  4261  000BA4  0E41               	movwf	((c:___flmul@a+3)),c
  4262  000BA6  6E16               	movff	(efgtoa@u),(c:___flmul@b)
  4263  000BA8  C094  F00F         	movff	(efgtoa@u+1),(c:___flmul@b+1)
  4264  000BAC  C095  F010         	movff	(efgtoa@u+2),(c:___flmul@b+2)
  4265  000BB0  C096  F011         	movff	(efgtoa@u+3),(c:___flmul@b+3)
  4266  000BB4  C097  F012         	call	___flmul	;wreg free
  4267  000BB8  ECF1  F00F         	movff	0+?___flmul,(c:___flge@ff2)
  4268  000BBC  C00F  F02C         	movff	1+?___flmul,(c:___flge@ff2+1)
  4269  000BC0  C010  F02D         	movff	2+?___flmul,(c:___flge@ff2+2)
  4270  000BC4  C011  F02E         	movff	3+?___flmul,(c:___flge@ff2+3)
  4271  000BC8  C012  F02F         	
  4272                           	call	___flge	;wreg free
  4273  000BCC  EC46  F017         	btfsc	status,0
  4274  000BD0  B0D8               	goto	u4151
  4275  000BD2  EFED  F005         	goto	u4150
  4276  000BD6  EFEF  F005         u4151:
  4277  000BDA                     	goto	l3598
  4278  000BDA  EFA5  F005         u4150:
  4279  000BDE                     	goto	l3608
  4280  000BDE  EF13  F006         	
  4281                           l195:
  4282  000BE2                     	line	370
  4283                           ;/opt/microchip/xc8/v2.00/pic/sources/c99/common/doprnt.c: 370:         while (g < u) {

  4284                           	goto	l3608
  4285  000BE2  EF13  F006         	
  4286                           l197:
  4287  000BE6                     	line	371
  4288                           	
  4289                           l3604:
  4290  000BE6                     ;/opt/microchip/xc8/v2.00/pic/sources/c99/common/doprnt.c: 371:             u = u/10.0;

  4291                           	movff	(efgtoa@u),(c:___fldiv@b)
  4292  000BE6  C094  F001         	movff	(efgtoa@u+1),(c:___fldiv@b+1)
  4293  000BEA  C095  F002         	movff	(efgtoa@u+2),(c:___fldiv@b+2)
  4294  000BEE  C096  F003         	movff	(efgtoa@u+3),(c:___fldiv@b+3)
  4295  000BF2  C097  F004         	movlw	low(normalize32(0x41200000))
  4296  000BF6  0E00               	movwf	((c:___fldiv@a)),c
  4297  000BF8  6E05               	movlw	high(normalize32(0x41200000))
  4298  000BFA  0E00               	movwf	((c:___fldiv@a+1)),c
  4299  000BFC  6E06               	movlw	low highword(normalize32(0x41200000))
  4300  000BFE  0E20               	movwf	((c:___fldiv@a+2)),c
  4301  000C00  6E07               	movlw	high highword(normalize32(0x41200000))
  4302  000C02  0E41               	movwf	((c:___fldiv@a+3)),c
  4303  000C04  6E08               	call	___fldiv	;wreg free
  4304  000C06  EC28  F012         	movff	0+?___fldiv,(efgtoa@u)
  4305  000C0A  C001  F094         	movff	1+?___fldiv,(efgtoa@u+1)
  4306  000C0E  C002  F095         	movff	2+?___fldiv,(efgtoa@u+2)
  4307  000C12  C003  F096         	movff	3+?___fldiv,(efgtoa@u+3)
  4308  000C16  C004  F097         	
  4309                           	line	372
  4310                           	
  4311                           l3606:
  4312  000C1A                     ;/opt/microchip/xc8/v2.00/pic/sources/c99/common/doprnt.c: 372:             --e;
  4313                           	movlb	0	; () banked
  4314  000C1A  0100               	decf	((efgtoa@e))&0ffh
  4315  000C1C  0790               	btfss	status,0
  4316  000C1E  A0D8               	decf	((efgtoa@e+1))&0ffh
  4317  000C20  0791               	goto	l3608
  4318  000C22  EF13  F006         	line	373
  4319                           ;/opt/microchip/xc8/v2.00/pic/sources/c99/common/doprnt.c: 373:         }
  4320                           	
  4321                           l196:; BSR set to: 0
  4322  000C26                     
  4323                           	line	370
  4324                           	
  4325                           l3608:
  4326  000C26                     ;/opt/microchip/xc8/v2.00/pic/sources/c99/common/doprnt.c: 370:         while (g < u) {

  4327                           	movff	(efgtoa@g),(c:___flge@ff1)
  4328  000C26  C08C  F028         	movff	(efgtoa@g+1),(c:___flge@ff1+1)
  4329  000C2A  C08D  F029         	movff	(efgtoa@g+2),(c:___flge@ff1+2)
  4330  000C2E  C08E  F02A         	movff	(efgtoa@g+3),(c:___flge@ff1+3)
  4331  000C32  C08F  F02B         	movff	(efgtoa@u),(c:___flge@ff2)
  4332  000C36  C094  F02C         	movff	(efgtoa@u+1),(c:___flge@ff2+1)
  4333  000C3A  C095  F02D         	movff	(efgtoa@u+2),(c:___flge@ff2+2)
  4334  000C3E  C096  F02E         	movff	(efgtoa@u+3),(c:___flge@ff2+3)
  4335  000C42  C097  F02F         	call	___flge	;wreg free
  4336  000C46  EC46  F017         	btfss	status,0
  4337  000C4A  A0D8               	goto	u4161
  4338  000C4C  EF2A  F006         	goto	u4160
  4339  000C50  EF2C  F006         u4161:
  4340  000C54                     	goto	l3604
  4341  000C54  EFF3  F005         u4160:
  4342  000C58                     	goto	l3610
  4343  000C58  EF30  F006         	
  4344                           l198:
  4345  000C5C                     	goto	l3610
  4346  000C5C  EF30  F006         	line	374
  4347                           ;/opt/microchip/xc8/v2.00/pic/sources/c99/common/doprnt.c: 374:     }
  4348                           	
  4349                           l192:
  4350  000C60                     	line	377
  4351                           	
  4352                           l3610:
  4353  000C60                     ;/opt/microchip/xc8/v2.00/pic/sources/c99/common/doprnt.c: 377:     mode = tolower((int)
                                 c);
  4354                           	movff	(c:efgtoa@c),(c:tolower@c)
  4355  000C60  C03A  F007         	clrf	((c:tolower@c+1)),c
  4356  000C64  6A08               	call	_tolower	;wreg free
  4357  000C66  EC3B  F01F         	movf	(0+?_tolower),c,w
  4358  000C6A  5007               	movlb	0	; () banked
  4359  000C6C  0100               	movwf	((efgtoa@mode))&0ffh
  4360  000C6E  6F81               	line	378
  4361                           	
  4362                           l3612:; BSR set to: 0
  4363  000C70                     
  4364                           ;/opt/microchip/xc8/v2.00/pic/sources/c99/common/doprnt.c: 378:     nmode = mode;
  4365                           	movff	(efgtoa@mode),(efgtoa@nmode)
  4366  000C70  C081  F07E         	line	379
  4367                           	
  4368                           l3614:; BSR set to: 0
  4369  000C74                     
  4370                           ;/opt/microchip/xc8/v2.00/pic/sources/c99/common/doprnt.c: 379:     if (mode == 'g') {
  4371                           		movlw	103
  4372  000C74  0E67               	xorwf	((efgtoa@mode))&0ffh,w
  4373  000C76  1981               	btfss	status,2
  4374  000C78  A4D8               	goto	u4171
  4375  000C7A  EF41  F006         	goto	u4170
  4376  000C7E  EF43  F006         
  4377                           u4171:
  4378  000C82                     	goto	l3624
  4379  000C82  EF6D  F006         u4170:
  4380  000C86                     	line	380
  4381                           	
  4382                           l3616:; BSR set to: 0
  4383  000C86                     
  4384                           ;/opt/microchip/xc8/v2.00/pic/sources/c99/common/doprnt.c: 380:   if (prec == 0) {
  4385                           	movf	((_prec))&0ffh,w
  4386  000C86  51C6               iorwf	((_prec+1))&0ffh,w
  4387  000C88  11C7               	btfss	status,2
  4388  000C8A  A4D8               	goto	u4181
  4389  000C8C  EF4A  F006         	goto	u4180
  4390  000C90  EF4C  F006         
  4391                           u4181:
  4392  000C94                     	goto	l3620
  4393  000C94  EF52  F006         u4180:
  4394  000C98                     	line	381
  4395                           	
  4396                           l3618:; BSR set to: 0
  4397  000C98                     
  4398                           ;/opt/microchip/xc8/v2.00/pic/sources/c99/common/doprnt.c: 381:    prec = 1;
  4399                           	movlw	high(01h)
  4400  000C98  0E00               	movwf	((_prec+1))&0ffh
  4401  000C9A  6FC7               	movlw	low(01h)
  4402  000C9C  0E01               	movwf	((_prec))&0ffh
  4403  000C9E  6FC6               	goto	l3620
  4404  000CA0  EF52  F006         	line	382
  4405                           ;/opt/microchip/xc8/v2.00/pic/sources/c99/common/doprnt.c: 382:   }
  4406                           	
  4407                           l200:; BSR set to: 0
  4408  000CA4                     
  4409                           	line	383
  4410                           	
  4411                           l3620:; BSR set to: 0
  4412  000CA4                     
  4413                           ;/opt/microchip/xc8/v2.00/pic/sources/c99/common/doprnt.c: 383:         p = (0 < prec) ?
                                  prec : 6;
  4414                           	btfsc	((_prec+1))&0ffh,7
  4415  000CA4  BFC7               	goto	u4190
  4416  000CA6  EF5F  F006         	movf	((_prec+1))&0ffh,w
  4417  000CAA  51C7               	bnz	u4191
  4418  000CAC  E106               	decf	((_prec))&0ffh,w
  4419  000CAE  05C6               	btfsc	status,0
  4420  000CB0  B0D8               	goto	u4191
  4421  000CB2  EF5D  F006         	goto	u4190
  4422  000CB6  EF5F  F006         
  4423                           u4191:
  4424  000CBA                     	goto	l202
  4425  000CBA  EF65  F006         u4190:
  4426  000CBE                     	
  4427                           l3622:; BSR set to: 0
  4428  000CBE                     
  4429                           	movlw	high(06h)
  4430  000CBE  0E00               	movwf	((efgtoa@p+1))&0ffh
  4431  000CC0  6F7D               	movlw	low(06h)
  4432  000CC2  0E06               	movwf	((efgtoa@p))&0ffh
  4433  000CC4  6F7C               	goto	l3630
  4434  000CC6  EF82  F006         	
  4435                           l202:; BSR set to: 0
  4436  000CCA                     
  4437                           	movff	(_prec),(efgtoa@p)
  4438  000CCA  C0C6  F07C         	movff	(_prec+1),(efgtoa@p+1)
  4439  000CCE  C0C7  F07D         	goto	l3630
  4440  000CD2  EF82  F006         	
  4441                           l204:; BSR set to: 0
  4442  000CD6                     
  4443                           	line	384
  4444                           ;/opt/microchip/xc8/v2.00/pic/sources/c99/common/doprnt.c: 384:     } else {
  4445                           	goto	l3630
  4446  000CD6  EF82  F006         	
  4447                           l199:; BSR set to: 0
  4448  000CDA                     
  4449                           	line	385
  4450                           	
  4451                           l3624:; BSR set to: 0
  4452  000CDA                     
  4453                           ;/opt/microchip/xc8/v2.00/pic/sources/c99/common/doprnt.c: 385:         p = (prec < 0) ?
                                  6 : prec;
  4454                           	btfsc	((_prec+1))&0ffh,7
  4455  000CDA  BFC7               	goto	u4201
  4456  000CDC  EF72  F006         	goto	u4200
  4457  000CE0  EF74  F006         
  4458                           u4201:
  4459  000CE4                     	goto	l3628
  4460  000CE4  EF7A  F006         u4200:
  4461  000CE8                     	
  4462                           l3626:; BSR set to: 0
  4463  000CE8                     
  4464                           	movff	(_prec),(efgtoa@p)
  4465  000CE8  C0C6  F07C         	movff	(_prec+1),(efgtoa@p+1)
  4466  000CEC  C0C7  F07D         	goto	l3630
  4467  000CF0  EF82  F006         	
  4468                           l207:; BSR set to: 0
  4469  000CF4                     
  4470                           	
  4471                           l3628:; BSR set to: 0
  4472  000CF4                     
  4473                           	movlw	high(06h)
  4474  000CF4  0E00               	movwf	((efgtoa@p+1))&0ffh
  4475  000CF6  6F7D               	movlw	low(06h)
  4476  000CF8  0E06               	movwf	((efgtoa@p))&0ffh
  4477  000CFA  6F7C               	goto	l3630
  4478  000CFC  EF82  F006         	
  4479                           l209:; BSR set to: 0
  4480  000D00                     
  4481                           	goto	l3630
  4482  000D00  EF82  F006         	line	386
  4483                           ;/opt/microchip/xc8/v2.00/pic/sources/c99/common/doprnt.c: 386:     }
  4484                           	
  4485                           l205:; BSR set to: 0
  4486  000D04                     
  4487                           	line	389
  4488                           	
  4489                           l3630:; BSR set to: 0
  4490  000D04                     
  4491                           ;/opt/microchip/xc8/v2.00/pic/sources/c99/common/doprnt.c: 389:     if (mode == 'g') {
  4492                           		movlw	103
  4493  000D04  0E67               	xorwf	((efgtoa@mode))&0ffh,w
  4494  000D06  1981               	btfss	status,2
  4495  000D08  A4D8               	goto	u4211
  4496  000D0A  EF89  F006         	goto	u4210
  4497  000D0E  EF8B  F006         
  4498                           u4211:
  4499  000D12                     	goto	l3640
  4500  000D12  EFBE  F006         u4210:
  4501  000D16                     	line	390
  4502                           	
  4503                           l3632:; BSR set to: 0
  4504  000D16                     
  4505                           ;/opt/microchip/xc8/v2.00/pic/sources/c99/common/doprnt.c: 390:         if (!(e < -4) &&
                                  !((p - 1) < e)) {
  4506                           	btfss	((efgtoa@e+1))&0ffh,7
  4507  000D16  AF91               	goto	u4220
  4508  000D18  EF99  F006         	movlw	252
  4509  000D1C  0EFC               	subwf	 ((efgtoa@e))&0ffh,w
  4510  000D1E  5D90               	movlw	255
  4511  000D20  0EFF               	subwfb	((efgtoa@e+1))&0ffh,w
  4512  000D22  5991               	btfss	status,0
  4513  000D24  A0D8               	goto	u4221
  4514  000D26  EF97  F006         	goto	u4220
  4515  000D2A  EF99  F006         
  4516                           u4221:
  4517  000D2E                     	goto	l3638
  4518  000D2E  EFB8  F006         u4220:
  4519  000D32                     	
  4520                           l3634:; BSR set to: 0
  4521  000D32                     
  4522                           	movlw	low(-1)
  4523  000D32  0EFF               	movwf	(??_efgtoa+0+0)&0ffh,c
  4524  000D34  6E3B               	movlw	high(-1)
  4525  000D36  0EFF               	movwf	1+(??_efgtoa+0+0)&0ffh,c
  4526  000D38  6E3C               	movff	(efgtoa@p),??_efgtoa+2+0
  4527  000D3A  C07C  F03D         	movff	(efgtoa@p+1),??_efgtoa+2+0+1
  4528  000D3E  C07D  F03E         	movf	(??_efgtoa+0+0),c,w
  4529  000D42  503B               	addwf	(??_efgtoa+2+0),c
  4530  000D44  263D               	movf	(??_efgtoa+0+1),c,w
  4531  000D46  503C               	addwfc	(??_efgtoa+2+1),c
  4532  000D48  223E               		movf	((efgtoa@e))&0ffh,w
  4533  000D4A  5190               	subwf	(??_efgtoa+2+0),c,w
  4534  000D4C  5C3D               	movf	(??_efgtoa+2+1),c,w
  4535  000D4E  503E               	xorlw	80h
  4536  000D50  0A80               	movwf	(??_efgtoa+4+0)&0ffh,c
  4537  000D52  6E3F               	movf	((efgtoa@e+1))&0ffh,w
  4538  000D54  5191               	xorlw	80h
  4539  000D56  0A80               	subwfb	(??_efgtoa+4+0)&0ffh,c,w
  4540  000D58  583F               	btfss	status,0
  4541  000D5A  A0D8               	goto	u4231
  4542  000D5C  EFB2  F006         	goto	u4230
  4543  000D60  EFB4  F006         
  4544                           u4231:
  4545  000D64                     	goto	l3638
  4546  000D64  EFB8  F006         u4230:
  4547  000D68                     	line	391
  4548                           	
  4549                           l3636:; BSR set to: 0
  4550  000D68                     
  4551                           ;/opt/microchip/xc8/v2.00/pic/sources/c99/common/doprnt.c: 391:             nmode = 'f';
                                 
  4552                           	movlw	low(066h)
  4553  000D68  0E66               	movwf	((efgtoa@nmode))&0ffh
  4554  000D6A  6F7E               	line	392
  4555                           ;/opt/microchip/xc8/v2.00/pic/sources/c99/common/doprnt.c: 392:         } else {
  4556                           	goto	l3640
  4557  000D6C  EFBE  F006         	
  4558                           l211:; BSR set to: 0
  4559  000D70                     
  4560                           	line	393
  4561                           	
  4562                           l3638:; BSR set to: 0
  4563  000D70                     
  4564                           ;/opt/microchip/xc8/v2.00/pic/sources/c99/common/doprnt.c: 393:             nmode = 'e';
                                 
  4565                           	movlw	low(065h)
  4566  000D70  0E65               	movwf	((efgtoa@nmode))&0ffh
  4567  000D72  6F7E               	goto	l3640
  4568  000D74  EFBE  F006         	line	394
  4569                           ;/opt/microchip/xc8/v2.00/pic/sources/c99/common/doprnt.c: 394:         }
  4570                           	
  4571                           l212:; BSR set to: 0
  4572  000D78                     
  4573                           	goto	l3640
  4574  000D78  EFBE  F006         	line	395
  4575                           ;/opt/microchip/xc8/v2.00/pic/sources/c99/common/doprnt.c: 395:     }
  4576                           	
  4577                           l210:; BSR set to: 0
  4578  000D7C                     
  4579                           	line	398
  4580                           	
  4581                           l3640:; BSR set to: 0
  4582  000D7C                     
  4583                           ;/opt/microchip/xc8/v2.00/pic/sources/c99/common/doprnt.c: 398:     m = p;
  4584                           	movff	(efgtoa@p),(efgtoa@m)
  4585  000D7C  C07C  F074         	movff	(efgtoa@p+1),(efgtoa@m+1)
  4586  000D80  C07D  F075         	line	399
  4587                           	
  4588                           l3642:; BSR set to: 0
  4589  000D84                     
  4590                           ;/opt/microchip/xc8/v2.00/pic/sources/c99/common/doprnt.c: 399:     if (!(mode == 'g') |
                                 | ((nmode == 'f') && (e < 0))) {
  4591                           		movlw	103
  4592  000D84  0E67               	xorwf	((efgtoa@mode))&0ffh,w
  4593  000D86  1981               	btfss	status,2
  4594  000D88  A4D8               	goto	u4241
  4595  000D8A  EFC9  F006         	goto	u4240
  4596  000D8E  EFCB  F006         
  4597                           u4241:
  4598  000D92                     	goto	l3648
  4599  000D92  EFDD  F006         u4240:
  4600  000D96                     	
  4601                           l3644:; BSR set to: 0
  4602  000D96                     
  4603                           		movlw	102
  4604  000D96  0E66               	xorwf	((efgtoa@nmode))&0ffh,w
  4605  000D98  197E               	btfss	status,2
  4606  000D9A  A4D8               	goto	u4251
  4607  000D9C  EFD2  F006         	goto	u4250
  4608  000DA0  EFD4  F006         
  4609                           u4251:
  4610  000DA4                     	goto	l3650
  4611  000DA4  EFE1  F006         u4250:
  4612  000DA8                     	
  4613                           l3646:; BSR set to: 0
  4614  000DA8                     
  4615                           	btfsc	((efgtoa@e+1))&0ffh,7
  4616  000DA8  BF91               	goto	u4260
  4617  000DAA  EFDB  F006         	goto	u4261
  4618  000DAE  EFD9  F006         
  4619                           u4261:
  4620  000DB2                     	goto	l3650
  4621  000DB2  EFE1  F006         u4260:
  4622  000DB6                     	goto	l3648
  4623  000DB6  EFDD  F006         	
  4624                           l215:; BSR set to: 0
  4625  000DBA                     
  4626                           	line	400
  4627                           	
  4628                           l3648:; BSR set to: 0
  4629  000DBA                     
  4630                           ;/opt/microchip/xc8/v2.00/pic/sources/c99/common/doprnt.c: 400:         ++m;
  4631                           	infsnz	((efgtoa@m))&0ffh
  4632  000DBA  4B74               	incf	((efgtoa@m+1))&0ffh
  4633  000DBC  2B75               	goto	l3650
  4634  000DBE  EFE1  F006         	line	401
  4635                           ;/opt/microchip/xc8/v2.00/pic/sources/c99/common/doprnt.c: 401:     }
  4636                           	
  4637                           l213:; BSR set to: 0
  4638  000DC2                     
  4639                           	line	404
  4640                           	
  4641                           l3650:; BSR set to: 0
  4642  000DC2                     
  4643                           ;/opt/microchip/xc8/v2.00/pic/sources/c99/common/doprnt.c: 404:     if (nmode == 'f') {

  4644                           		movlw	102
  4645  000DC2  0E66               	xorwf	((efgtoa@nmode))&0ffh,w
  4646  000DC4  197E               	btfss	status,2
  4647  000DC6  A4D8               	goto	u4271
  4648  000DC8  EFE8  F006         	goto	u4270
  4649  000DCC  EFEA  F006         
  4650                           u4271:
  4651  000DD0                     	goto	l3660
  4652  000DD0  EF10  F007         u4270:
  4653  000DD4                     	line	405
  4654                           	
  4655                           l3652:; BSR set to: 0
  4656  000DD4                     
  4657                           ;/opt/microchip/xc8/v2.00/pic/sources/c99/common/doprnt.c: 405:         if (e < 0) {
  4658                           	btfsc	((efgtoa@e+1))&0ffh,7
  4659  000DD4  BF91               	goto	u4280
  4660  000DD6  EFF1  F006         	goto	u4281
  4661  000DDA  EFEF  F006         
  4662                           u4281:
  4663  000DDE                     	goto	l3656
  4664  000DDE  EFFF  F006         u4280:
  4665  000DE2                     	line	406
  4666                           	
  4667                           l3654:; BSR set to: 0
  4668  000DE2                     
  4669                           ;/opt/microchip/xc8/v2.00/pic/sources/c99/common/doprnt.c: 406:             u = 1.0;
  4670                           	movlw	low(normalize32(0x3f800000))
  4671  000DE2  0E00               	movwf	((efgtoa@u))&0ffh
  4672  000DE4  6F94               	movlw	high(normalize32(0x3f800000))
  4673  000DE6  0E00               	movwf	((efgtoa@u+1))&0ffh
  4674  000DE8  6F95               	movlw	low highword(normalize32(0x3f800000))
  4675  000DEA  0E80               	movwf	((efgtoa@u+2))&0ffh
  4676  000DEC  6F96               	movlw	high highword(normalize32(0x3f800000))
  4677  000DEE  0E3F               	movwf	((efgtoa@u+3))&0ffh
  4678  000DF0  6F97               	line	407
  4679                           ;/opt/microchip/xc8/v2.00/pic/sources/c99/common/doprnt.c: 407:             e = 0;
  4680                           	movlw	high(0)
  4681  000DF2  0E00               	movwf	((efgtoa@e+1))&0ffh
  4682  000DF4  6F91               	movlw	low(0)
  4683  000DF6  0E00               	movwf	((efgtoa@e))&0ffh
  4684  000DF8  6F90               	goto	l3656
  4685  000DFA  EFFF  F006         	line	408
  4686                           ;/opt/microchip/xc8/v2.00/pic/sources/c99/common/doprnt.c: 408:         }
  4687                           	
  4688                           l217:; BSR set to: 0
  4689  000DFE                     
  4690                           	line	409
  4691                           	
  4692                           l3656:; BSR set to: 0
  4693  000DFE                     
  4694                           ;/opt/microchip/xc8/v2.00/pic/sources/c99/common/doprnt.c: 409:         if (!(mode == 'g
                                 ')) {
  4695                           		movlw	103
  4696  000DFE  0E67               	xorwf	((efgtoa@mode))&0ffh,w
  4697  000E00  1981               	btfsc	status,2
  4698  000E02  B4D8               	goto	u4291
  4699  000E04  EF06  F007         	goto	u4290
  4700  000E08  EF08  F007         
  4701                           u4291:
  4702  000E0C                     	goto	l3660
  4703  000E0C  EF10  F007         u4290:
  4704  000E10                     	line	410
  4705                           	
  4706                           l3658:; BSR set to: 0
  4707  000E10                     
  4708                           ;/opt/microchip/xc8/v2.00/pic/sources/c99/common/doprnt.c: 410:             m += e;
  4709                           	movf	((efgtoa@e))&0ffh,w
  4710  000E10  5190               	addwf	((efgtoa@m))&0ffh
  4711  000E12  2774               	movf	((efgtoa@e+1))&0ffh,w
  4712  000E14  5191               	addwfc	((efgtoa@m+1))&0ffh
  4713  000E16  2375               
  4714                           	goto	l3660
  4715  000E18  EF10  F007         	line	411
  4716                           ;/opt/microchip/xc8/v2.00/pic/sources/c99/common/doprnt.c: 411:         }
  4717                           	
  4718                           l218:; BSR set to: 0
  4719  000E1C                     
  4720                           	goto	l3660
  4721  000E1C  EF10  F007         	line	412
  4722                           ;/opt/microchip/xc8/v2.00/pic/sources/c99/common/doprnt.c: 412:     }
  4723                           	
  4724                           l216:; BSR set to: 0
  4725  000E20                     
  4726                           	line	415
  4727                           	
  4728                           l3660:; BSR set to: 0
  4729  000E20                     
  4730                           ;/opt/microchip/xc8/v2.00/pic/sources/c99/common/doprnt.c: 415:     i = 0;
  4731                           	movlw	high(0)
  4732  000E20  0E00               	movwf	((efgtoa@i+1))&0ffh
  4733  000E22  6F8B               	movlw	low(0)
  4734  000E24  0E00               	movwf	((efgtoa@i))&0ffh
  4735  000E26  6F8A               	line	416
  4736                           	
  4737                           l3662:; BSR set to: 0
  4738  000E28                     
  4739                           ;/opt/microchip/xc8/v2.00/pic/sources/c99/common/doprnt.c: 416:     h = g;
  4740                           	movff	(efgtoa@g),(efgtoa@h)
  4741  000E28  C08C  F082         	movff	(efgtoa@g+1),(efgtoa@h+1)
  4742  000E2C  C08D  F083         	movff	(efgtoa@g+2),(efgtoa@h+2)
  4743  000E30  C08E  F084         	movff	(efgtoa@g+3),(efgtoa@h+3)
  4744  000E34  C08F  F085         	line	417
  4745                           	
  4746                           l3664:; BSR set to: 0
  4747  000E38                     
  4748                           ;/opt/microchip/xc8/v2.00/pic/sources/c99/common/doprnt.c: 417:     ou = u;
  4749                           	movff	(efgtoa@u),(efgtoa@ou)
  4750  000E38  C094  F060         	movff	(efgtoa@u+1),(efgtoa@ou+1)
  4751  000E3C  C095  F061         	movff	(efgtoa@u+2),(efgtoa@ou+2)
  4752  000E40  C096  F062         	movff	(efgtoa@u+3),(efgtoa@ou+3)
  4753  000E44  C097  F063         	line	418
  4754                           ;/opt/microchip/xc8/v2.00/pic/sources/c99/common/doprnt.c: 418:     while (i < m) {
  4755                           	goto	l3674
  4756  000E48  EFA3  F007         	
  4757                           l220:; BSR set to: 0
  4758  000E4C                     
  4759                           	line	419
  4760                           	
  4761                           l3666:; BSR set to: 0
  4762  000E4C                     
  4763                           ;/opt/microchip/xc8/v2.00/pic/sources/c99/common/doprnt.c: 419:         l = floorf(h/u);
                                 
  4764                           	movff	(efgtoa@h),(c:___fldiv@b)
  4765  000E4C  C082  F001         	movff	(efgtoa@h+1),(c:___fldiv@b+1)
  4766  000E50  C083  F002         	movff	(efgtoa@h+2),(c:___fldiv@b+2)
  4767  000E54  C084  F003         	movff	(efgtoa@h+3),(c:___fldiv@b+3)
  4768  000E58  C085  F004         	movff	(efgtoa@u),(c:___fldiv@a)
  4769  000E5C  C094  F005         	movff	(efgtoa@u+1),(c:___fldiv@a+1)
  4770  000E60  C095  F006         	movff	(efgtoa@u+2),(c:___fldiv@a+2)
  4771  000E64  C096  F007         	movff	(efgtoa@u+3),(c:___fldiv@a+3)
  4772  000E68  C097  F008         	call	___fldiv	;wreg free
  4773  000E6C  EC28  F012         	movff	0+?___fldiv,(c:floorf@x)
  4774  000E70  C001  F01A         	movff	1+?___fldiv,(c:floorf@x+1)
  4775  000E74  C002  F01B         	movff	2+?___fldiv,(c:floorf@x+2)
  4776  000E78  C003  F01C         	movff	3+?___fldiv,(c:floorf@x+3)
  4777  000E7C  C004  F01D         	
  4778                           	call	_floorf	;wreg free
  4779  000E80  EC38  F014         	movff	0+?_floorf,(efgtoa@l)
  4780  000E84  C01A  F086         	movff	1+?_floorf,(efgtoa@l+1)
  4781  000E88  C01B  F087         	movff	2+?_floorf,(efgtoa@l+2)
  4782  000E8C  C01C  F088         	movff	3+?_floorf,(efgtoa@l+3)
  4783  000E90  C01D  F089         	
  4784                           	line	420
  4785                           ;/opt/microchip/xc8/v2.00/pic/sources/c99/common/doprnt.c: 420:         d = (int)l;
  4786                           	movff	(efgtoa@l),(c:___fltol@f1)
  4787  000E94  C086  F001         	movff	(efgtoa@l+1),(c:___fltol@f1+1)
  4788  000E98  C087  F002         	movff	(efgtoa@l+2),(c:___fltol@f1+2)
  4789  000E9C  C088  F003         	movff	(efgtoa@l+3),(c:___fltol@f1+3)
  4790  000EA0  C089  F004         	call	___fltol	;wreg free
  4791  000EA4  ECFA  F017         	movff	0+?___fltol,(efgtoa@d)
  4792  000EA8  C001  F078         	movff	1+?___fltol,(efgtoa@d+1)
  4793  000EAC  C002  F079         	line	421
  4794                           	
  4795                           l3668:
  4796  000EB0                     ;/opt/microchip/xc8/v2.00/pic/sources/c99/common/doprnt.c: 421:         h -= l*u;
  4797                           	movff	(efgtoa@h),(c:___flsub@b)
  4798  000EB0  C082  F028         	movff	(efgtoa@h+1),(c:___flsub@b+1)
  4799  000EB4  C083  F029         	movff	(efgtoa@h+2),(c:___flsub@b+2)
  4800  000EB8  C084  F02A         	movff	(efgtoa@h+3),(c:___flsub@b+3)
  4801  000EBC  C085  F02B         	movff	(efgtoa@u),(c:___flmul@a)
  4802  000EC0  C094  F013         	movff	(efgtoa@u+1),(c:___flmul@a+1)
  4803  000EC4  C095  F014         	movff	(efgtoa@u+2),(c:___flmul@a+2)
  4804  000EC8  C096  F015         	movff	(efgtoa@u+3),(c:___flmul@a+3)
  4805  000ECC  C097  F016         	movff	(efgtoa@l),(c:___flmul@b)
  4806  000ED0  C086  F00F         	movff	(efgtoa@l+1),(c:___flmul@b+1)
  4807  000ED4  C087  F010         	movff	(efgtoa@l+2),(c:___flmul@b+2)
  4808  000ED8  C088  F011         	movff	(efgtoa@l+3),(c:___flmul@b+3)
  4809  000EDC  C089  F012         	call	___flmul	;wreg free
  4810  000EE0  ECF1  F00F         	movff	0+?___flmul,(c:___flsub@a)
  4811  000EE4  C00F  F02C         	movff	1+?___flmul,(c:___flsub@a+1)
  4812  000EE8  C010  F02D         	movff	2+?___flmul,(c:___flsub@a+2)
  4813  000EEC  C011  F02E         	movff	3+?___flmul,(c:___flsub@a+3)
  4814  000EF0  C012  F02F         	
  4815                           	call	___flsub	;wreg free
  4816  000EF4  EC8D  F020         	movff	0+?___flsub,(efgtoa@h)
  4817  000EF8  C028  F082         	movff	1+?___flsub,(efgtoa@h+1)
  4818  000EFC  C029  F083         	movff	2+?___flsub,(efgtoa@h+2)
  4819  000F00  C02A  F084         	movff	3+?___flsub,(efgtoa@h+3)
  4820  000F04  C02B  F085         	
  4821                           	line	422
  4822                           	
  4823                           l3670:
  4824  000F08                     ;/opt/microchip/xc8/v2.00/pic/sources/c99/common/doprnt.c: 422:         u = u/10.0;
  4825                           	movff	(efgtoa@u),(c:___fldiv@b)
  4826  000F08  C094  F001         	movff	(efgtoa@u+1),(c:___fldiv@b+1)
  4827  000F0C  C095  F002         	movff	(efgtoa@u+2),(c:___fldiv@b+2)
  4828  000F10  C096  F003         	movff	(efgtoa@u+3),(c:___fldiv@b+3)
  4829  000F14  C097  F004         	movlw	low(normalize32(0x41200000))
  4830  000F18  0E00               	movwf	((c:___fldiv@a)),c
  4831  000F1A  6E05               	movlw	high(normalize32(0x41200000))
  4832  000F1C  0E00               	movwf	((c:___fldiv@a+1)),c
  4833  000F1E  6E06               	movlw	low highword(normalize32(0x41200000))
  4834  000F20  0E20               	movwf	((c:___fldiv@a+2)),c
  4835  000F22  6E07               	movlw	high highword(normalize32(0x41200000))
  4836  000F24  0E41               	movwf	((c:___fldiv@a+3)),c
  4837  000F26  6E08               	call	___fldiv	;wreg free
  4838  000F28  EC28  F012         	movff	0+?___fldiv,(efgtoa@u)
  4839  000F2C  C001  F094         	movff	1+?___fldiv,(efgtoa@u+1)
  4840  000F30  C002  F095         	movff	2+?___fldiv,(efgtoa@u+2)
  4841  000F34  C003  F096         	movff	3+?___fldiv,(efgtoa@u+3)
  4842  000F38  C004  F097         	
  4843                           	line	423
  4844                           	
  4845                           l3672:
  4846  000F3C                     ;/opt/microchip/xc8/v2.00/pic/sources/c99/common/doprnt.c: 423:         ++i;
  4847                           	movlb	0	; () banked
  4848  000F3C  0100               	infsnz	((efgtoa@i))&0ffh
  4849  000F3E  4B8A               	incf	((efgtoa@i+1))&0ffh
  4850  000F40  2B8B               	goto	l3674
  4851  000F42  EFA3  F007         	line	424
  4852                           ;/opt/microchip/xc8/v2.00/pic/sources/c99/common/doprnt.c: 424:     }
  4853                           	
  4854                           l219:; BSR set to: 0
  4855  000F46                     
  4856                           	line	418
  4857                           	
  4858                           l3674:; BSR set to: 0
  4859  000F46                     
  4860                           ;/opt/microchip/xc8/v2.00/pic/sources/c99/common/doprnt.c: 418:     while (i < m) {
  4861                           		movf	((efgtoa@m))&0ffh,w
  4862  000F46  5174               	subwf	((efgtoa@i))&0ffh,w
  4863  000F48  5D8A               	movf	((efgtoa@i+1))&0ffh,w
  4864  000F4A  518B               	xorlw	80h
  4865  000F4C  0A80               	movwf	(??_efgtoa+0+0)&0ffh,c
  4866  000F4E  6E3B               	movf	((efgtoa@m+1))&0ffh,w
  4867  000F50  5175               	xorlw	80h
  4868  000F52  0A80               	subwfb	(??_efgtoa+0+0)&0ffh,c,w
  4869  000F54  583B               	btfss	status,0
  4870  000F56  A0D8               	goto	u4301
  4871  000F58  EFB0  F007         	goto	u4300
  4872  000F5C  EFB2  F007         
  4873                           u4301:
  4874  000F60                     	goto	l3666
  4875  000F60  EF26  F007         u4300:
  4876  000F64                     	goto	l3676
  4877  000F64  EFB4  F007         	
  4878                           l221:; BSR set to: 0
  4879  000F68                     
  4880                           	line	427
  4881                           	
  4882                           l3676:; BSR set to: 0
  4883  000F68                     
  4884                           ;/opt/microchip/xc8/v2.00/pic/sources/c99/common/doprnt.c: 427:     l = u*5.0;
  4885                           	movff	(efgtoa@u),(c:___flmul@b)
  4886  000F68  C094  F00F         	movff	(efgtoa@u+1),(c:___flmul@b+1)
  4887  000F6C  C095  F010         	movff	(efgtoa@u+2),(c:___flmul@b+2)
  4888  000F70  C096  F011         	movff	(efgtoa@u+3),(c:___flmul@b+3)
  4889  000F74  C097  F012         	movlw	low(normalize32(0x40a00000))
  4890  000F78  0E00               	movwf	((c:___flmul@a)),c
  4891  000F7A  6E13               	movlw	high(normalize32(0x40a00000))
  4892  000F7C  0E00               	movwf	((c:___flmul@a+1)),c
  4893  000F7E  6E14               	movlw	low highword(normalize32(0x40a00000))
  4894  000F80  0EA0               	movwf	((c:___flmul@a+2)),c
  4895  000F82  6E15               	movlw	high highword(normalize32(0x40a00000))
  4896  000F84  0E40               	movwf	((c:___flmul@a+3)),c
  4897  000F86  6E16               	call	___flmul	;wreg free
  4898  000F88  ECF1  F00F         	movff	0+?___flmul,(efgtoa@l)
  4899  000F8C  C00F  F086         	movff	1+?___flmul,(efgtoa@l+1)
  4900  000F90  C010  F087         	movff	2+?___flmul,(efgtoa@l+2)
  4901  000F94  C011  F088         	movff	3+?___flmul,(efgtoa@l+3)
  4902  000F98  C012  F089         	
  4903                           	line	428
  4904                           	
  4905                           l3678:
  4906  000F9C                     ;/opt/microchip/xc8/v2.00/pic/sources/c99/common/doprnt.c: 428:     if (h < l) {
  4907                           	movff	(efgtoa@h),(c:___flge@ff1)
  4908  000F9C  C082  F028         	movff	(efgtoa@h+1),(c:___flge@ff1+1)
  4909  000FA0  C083  F029         	movff	(efgtoa@h+2),(c:___flge@ff1+2)
  4910  000FA4  C084  F02A         	movff	(efgtoa@h+3),(c:___flge@ff1+3)
  4911  000FA8  C085  F02B         	movff	(efgtoa@l),(c:___flge@ff2)
  4912  000FAC  C086  F02C         	movff	(efgtoa@l+1),(c:___flge@ff2+1)
  4913  000FB0  C087  F02D         	movff	(efgtoa@l+2),(c:___flge@ff2+2)
  4914  000FB4  C088  F02E         	movff	(efgtoa@l+3),(c:___flge@ff2+3)
  4915  000FB8  C089  F02F         	call	___flge	;wreg free
  4916  000FBC  EC46  F017         	btfsc	status,0
  4917  000FC0  B0D8               	goto	u4311
  4918  000FC2  EFE5  F007         	goto	u4310
  4919  000FC6  EFE7  F007         u4311:
  4920  000FCA                     	goto	l3682
  4921  000FCA  EFF2  F007         u4310:
  4922  000FCE                     	line	429
  4923                           	
  4924                           l3680:
  4925  000FCE                     ;/opt/microchip/xc8/v2.00/pic/sources/c99/common/doprnt.c: 429:         l = 0.0;
  4926                           	movlw	low(normalize32(0x0))
  4927  000FCE  0E00               	movlb	0	; () banked
  4928  000FD0  0100               	movwf	((efgtoa@l))&0ffh
  4929  000FD2  6F86               	movlw	high(normalize32(0x0))
  4930  000FD4  0E00               	movwf	((efgtoa@l+1))&0ffh
  4931  000FD6  6F87               	movlw	low highword(normalize32(0x0))
  4932  000FD8  0E00               	movwf	((efgtoa@l+2))&0ffh
  4933  000FDA  6F88               	movlw	high highword(normalize32(0x0))
  4934  000FDC  0E00               	movwf	((efgtoa@l+3))&0ffh
  4935  000FDE  6F89               	line	430
  4936                           ;/opt/microchip/xc8/v2.00/pic/sources/c99/common/doprnt.c: 430:     } else {
  4937                           	goto	l3688
  4938  000FE0  EF1F  F008         	
  4939                           l222:; BSR set to: 0
  4940  000FE4                     
  4941                           	line	432
  4942                           	
  4943                           l3682:
  4944  000FE4                     ;/opt/microchip/xc8/v2.00/pic/sources/c99/common/doprnt.c: 432:         if ((h == l) && 
                                 !(d % 2)) {
  4945                           	movff	(efgtoa@h),(c:___fleq@ff1)
  4946  000FE4  C082  F001         	movff	(efgtoa@h+1),(c:___fleq@ff1+1)
  4947  000FE8  C083  F002         	movff	(efgtoa@h+2),(c:___fleq@ff1+2)
  4948  000FEC  C084  F003         	movff	(efgtoa@h+3),(c:___fleq@ff1+3)
  4949  000FF0  C085  F004         	movff	(efgtoa@l),(c:___fleq@ff2)
  4950  000FF4  C086  F005         	movff	(efgtoa@l+1),(c:___fleq@ff2+1)
  4951  000FF8  C087  F006         	movff	(efgtoa@l+2),(c:___fleq@ff2+2)
  4952  000FFC  C088  F007         	movff	(efgtoa@l+3),(c:___fleq@ff2+3)
  4953  001000  C089  F008         	call	___fleq	;wreg free
  4954  001004  ECD9  F01D         	btfss	status,0
  4955  001008  A0D8               	goto	u4321
  4956  00100A  EF09  F008         	goto	u4320
  4957  00100E  EF0B  F008         u4321:
  4958  001012                     	goto	l3688
  4959  001012  EF1F  F008         u4320:
  4960  001016                     	
  4961                           l3684:
  4962  001016                     	movlb	0	; () banked
  4963  001016  0100               	
  4964                           	btfsc	((efgtoa@d))&0ffh,(0)&7
  4965  001018  B178               	goto	u4331
  4966  00101A  EF11  F008         	goto	u4330
  4967  00101E  EF13  F008         u4331:
  4968  001022                     	goto	l3688
  4969  001022  EF1F  F008         u4330:
  4970  001026                     	line	433
  4971                           	
  4972                           l3686:; BSR set to: 0
  4973  001026                     
  4974                           ;/opt/microchip/xc8/v2.00/pic/sources/c99/common/doprnt.c: 433:             l = 0.0;
  4975                           	movlw	low(normalize32(0x0))
  4976  001026  0E00               	movwf	((efgtoa@l))&0ffh
  4977  001028  6F86               	movlw	high(normalize32(0x0))
  4978  00102A  0E00               	movwf	((efgtoa@l+1))&0ffh
  4979  00102C  6F87               	movlw	low highword(normalize32(0x0))
  4980  00102E  0E00               	movwf	((efgtoa@l+2))&0ffh
  4981  001030  6F88               	movlw	high highword(normalize32(0x0))
  4982  001032  0E00               	movwf	((efgtoa@l+3))&0ffh
  4983  001034  6F89               	goto	l3688
  4984  001036  EF1F  F008         	line	434
  4985                           ;/opt/microchip/xc8/v2.00/pic/sources/c99/common/doprnt.c: 434:         }
  4986                           	
  4987                           l224:; BSR set to: 0
  4988  00103A                     
  4989                           	goto	l3688
  4990  00103A  EF1F  F008         	line	435
  4991                           ;/opt/microchip/xc8/v2.00/pic/sources/c99/common/doprnt.c: 435:     }
  4992                           	
  4993                           l223:; BSR set to: 0
  4994  00103E                     
  4995                           	line	438
  4996                           	
  4997                           l3688:
  4998  00103E                     ;/opt/microchip/xc8/v2.00/pic/sources/c99/common/doprnt.c: 438:     h = g + l;
  4999                           	movff	(efgtoa@g),(c:___fladd@b)
  5000  00103E  C08C  F001         	movff	(efgtoa@g+1),(c:___fladd@b+1)
  5001  001042  C08D  F002         	movff	(efgtoa@g+2),(c:___fladd@b+2)
  5002  001046  C08E  F003         	movff	(efgtoa@g+3),(c:___fladd@b+3)
  5003  00104A  C08F  F004         	movff	(efgtoa@l),(c:___fladd@a)
  5004  00104E  C086  F005         	movff	(efgtoa@l+1),(c:___fladd@a+1)
  5005  001052  C087  F006         	movff	(efgtoa@l+2),(c:___fladd@a+2)
  5006  001056  C088  F007         	movff	(efgtoa@l+3),(c:___fladd@a+3)
  5007  00105A  C089  F008         	call	___fladd	;wreg free
  5008  00105E  ECA7  F00A         	movff	0+?___fladd,(efgtoa@h)
  5009  001062  C001  F082         	movff	1+?___fladd,(efgtoa@h+1)
  5010  001066  C002  F083         	movff	2+?___fladd,(efgtoa@h+2)
  5011  00106A  C003  F084         	movff	3+?___fladd,(efgtoa@h+3)
  5012  00106E  C004  F085         	
  5013                           	line	441
  5014                           	
  5015                           l3690:
  5016  001072                     ;/opt/microchip/xc8/v2.00/pic/sources/c99/common/doprnt.c: 441:     u = ou;
  5017                           	movff	(efgtoa@ou),(efgtoa@u)
  5018  001072  C060  F094         	movff	(efgtoa@ou+1),(efgtoa@u+1)
  5019  001076  C061  F095         	movff	(efgtoa@ou+2),(efgtoa@u+2)
  5020  00107A  C062  F096         	movff	(efgtoa@ou+3),(efgtoa@u+3)
  5021  00107E  C063  F097         	line	442
  5022                           	
  5023                           l3692:
  5024  001082                     ;/opt/microchip/xc8/v2.00/pic/sources/c99/common/doprnt.c: 442:     ne = (nmode == 'e') 
                                 ? 0 : e;
  5025                           		movlw	101
  5026  001082  0E65               	movlb	0	; () banked
  5027  001084  0100               	xorwf	((efgtoa@nmode))&0ffh,w
  5028  001086  197E               	btfsc	status,2
  5029  001088  B4D8               	goto	u4341
  5030  00108A  EF49  F008         	goto	u4340
  5031  00108E  EF4B  F008         
  5032                           u4341:
  5033  001092                     	goto	l3696
  5034  001092  EF51  F008         u4340:
  5035  001096                     	
  5036                           l3694:; BSR set to: 0
  5037  001096                     
  5038                           	movff	(efgtoa@e),(efgtoa@ne)
  5039  001096  C090  F076         	movff	(efgtoa@e+1),(efgtoa@ne+1)
  5040  00109A  C091  F077         	goto	l228
  5041  00109E  EF55  F008         	
  5042                           l226:; BSR set to: 0
  5043  0010A2                     
  5044                           	
  5045                           l3696:; BSR set to: 0
  5046  0010A2                     
  5047                           	movlw	high(0)
  5048  0010A2  0E00               	movwf	((efgtoa@ne+1))&0ffh
  5049  0010A4  6F77               	movlw	low(0)
  5050  0010A6  0E00               	movwf	((efgtoa@ne))&0ffh
  5051  0010A8  6F76               	
  5052                           l228:; BSR set to: 0
  5053  0010AA                     
  5054                           	line	443
  5055                           ;/opt/microchip/xc8/v2.00/pic/sources/c99/common/doprnt.c: 443:     pp = 0;
  5056                           	movlw	high(0)
  5057  0010AA  0E00               	movwf	((efgtoa@pp+1))&0ffh
  5058  0010AC  6F73               	movlw	low(0)
  5059  0010AE  0E00               	movwf	((efgtoa@pp))&0ffh
  5060  0010B0  6F72               	line	444
  5061                           ;/opt/microchip/xc8/v2.00/pic/sources/c99/common/doprnt.c: 444:     t = 0;
  5062                           	movlw	high(0)
  5063  0010B2  0E00               	movwf	((efgtoa@t+1))&0ffh
  5064  0010B4  6F71               	movlw	low(0)
  5065  0010B6  0E00               	movwf	((efgtoa@t))&0ffh
  5066  0010B8  6F70               	line	445
  5067                           ;/opt/microchip/xc8/v2.00/pic/sources/c99/common/doprnt.c: 445:     i = 0;
  5068                           	movlw	high(0)
  5069  0010BA  0E00               	movwf	((efgtoa@i+1))&0ffh
  5070  0010BC  6F8B               	movlw	low(0)
  5071  0010BE  0E00               	movwf	((efgtoa@i))&0ffh
  5072  0010C0  6F8A               	line	446
  5073                           ;/opt/microchip/xc8/v2.00/pic/sources/c99/common/doprnt.c: 446:     while ((i < m) && (n
                                  < (80 - 5))) {
  5074                           	goto	l3746
  5075  0010C2  EF5A  F009         	
  5076                           l230:; BSR set to: 0
  5077  0010C6                     
  5078                           	line	447
  5079                           	
  5080                           l3698:; BSR set to: 0
  5081  0010C6                     
  5082                           ;/opt/microchip/xc8/v2.00/pic/sources/c99/common/doprnt.c: 447:         l = floorf(h/u);
                                 
  5083                           	movff	(efgtoa@h),(c:___fldiv@b)
  5084  0010C6  C082  F001         	movff	(efgtoa@h+1),(c:___fldiv@b+1)
  5085  0010CA  C083  F002         	movff	(efgtoa@h+2),(c:___fldiv@b+2)
  5086  0010CE  C084  F003         	movff	(efgtoa@h+3),(c:___fldiv@b+3)
  5087  0010D2  C085  F004         	movff	(efgtoa@u),(c:___fldiv@a)
  5088  0010D6  C094  F005         	movff	(efgtoa@u+1),(c:___fldiv@a+1)
  5089  0010DA  C095  F006         	movff	(efgtoa@u+2),(c:___fldiv@a+2)
  5090  0010DE  C096  F007         	movff	(efgtoa@u+3),(c:___fldiv@a+3)
  5091  0010E2  C097  F008         	call	___fldiv	;wreg free
  5092  0010E6  EC28  F012         	movff	0+?___fldiv,(c:floorf@x)
  5093  0010EA  C001  F01A         	movff	1+?___fldiv,(c:floorf@x+1)
  5094  0010EE  C002  F01B         	movff	2+?___fldiv,(c:floorf@x+2)
  5095  0010F2  C003  F01C         	movff	3+?___fldiv,(c:floorf@x+3)
  5096  0010F6  C004  F01D         	
  5097                           	call	_floorf	;wreg free
  5098  0010FA  EC38  F014         	movff	0+?_floorf,(efgtoa@l)
  5099  0010FE  C01A  F086         	movff	1+?_floorf,(efgtoa@l+1)
  5100  001102  C01B  F087         	movff	2+?_floorf,(efgtoa@l+2)
  5101  001106  C01C  F088         	movff	3+?_floorf,(efgtoa@l+3)
  5102  00110A  C01D  F089         	
  5103                           	line	448
  5104                           ;/opt/microchip/xc8/v2.00/pic/sources/c99/common/doprnt.c: 448:         d = (int)l;
  5105                           	movff	(efgtoa@l),(c:___fltol@f1)
  5106  00110E  C086  F001         	movff	(efgtoa@l+1),(c:___fltol@f1+1)
  5107  001112  C087  F002         	movff	(efgtoa@l+2),(c:___fltol@f1+2)
  5108  001116  C088  F003         	movff	(efgtoa@l+3),(c:___fltol@f1+3)
  5109  00111A  C089  F004         	call	___fltol	;wreg free
  5110  00111E  ECFA  F017         	movff	0+?___fltol,(efgtoa@d)
  5111  001122  C001  F078         	movff	1+?___fltol,(efgtoa@d+1)
  5112  001126  C002  F079         	line	449
  5113                           	
  5114                           l3700:
  5115  00112A                     ;/opt/microchip/xc8/v2.00/pic/sources/c99/common/doprnt.c: 449:         if (!(flags & (1
                                  << 4)) && !d && (mode == 'g') && (ne < 0)) {
  5116                           	movlb	0	; () banked
  5117  00112A  0100               	
  5118                           	btfsc	((_flags))&0ffh,(4)&7
  5119  00112C  B9C8               	goto	u4351
  5120  00112E  EF9B  F008         	goto	u4350
  5121  001132  EF9D  F008         u4351:
  5122  001136                     	goto	l3710
  5123  001136  EFBA  F008         u4350:
  5124  00113A                     	
  5125                           l3702:; BSR set to: 0
  5126  00113A                     
  5127                           	movf	((efgtoa@d))&0ffh,w
  5128  00113A  5178               iorwf	((efgtoa@d+1))&0ffh,w
  5129  00113C  1179               	btfss	status,2
  5130  00113E  A4D8               	goto	u4361
  5131  001140  EFA4  F008         	goto	u4360
  5132  001144  EFA6  F008         
  5133                           u4361:
  5134  001148                     	goto	l3710
  5135  001148  EFBA  F008         u4360:
  5136  00114C                     	
  5137                           l3704:; BSR set to: 0
  5138  00114C                     
  5139                           		movlw	103
  5140  00114C  0E67               	xorwf	((efgtoa@mode))&0ffh,w
  5141  00114E  1981               	btfss	status,2
  5142  001150  A4D8               	goto	u4371
  5143  001152  EFAD  F008         	goto	u4370
  5144  001156  EFAF  F008         
  5145                           u4371:
  5146  00115A                     	goto	l3710
  5147  00115A  EFBA  F008         u4370:
  5148  00115E                     	
  5149                           l3706:; BSR set to: 0
  5150  00115E                     
  5151                           	btfsc	((efgtoa@ne+1))&0ffh,7
  5152  00115E  BF77               	goto	u4380
  5153  001160  EFB6  F008         	goto	u4381
  5154  001164  EFB4  F008         
  5155                           u4381:
  5156  001168                     	goto	l3710
  5157  001168  EFBA  F008         u4380:
  5158  00116C                     	line	450
  5159                           	
  5160                           l3708:; BSR set to: 0
  5161  00116C                     
  5162                           ;/opt/microchip/xc8/v2.00/pic/sources/c99/common/doprnt.c: 450:             ++t;
  5163                           	infsnz	((efgtoa@t))&0ffh
  5164  00116C  4B70               	incf	((efgtoa@t+1))&0ffh
  5165  00116E  2B71               	line	451
  5166                           ;/opt/microchip/xc8/v2.00/pic/sources/c99/common/doprnt.c: 451:         } else {
  5167                           	goto	l3738
  5168  001170  EF0C  F009         	
  5169                           l231:; BSR set to: 0
  5170  001174                     
  5171                           	line	452
  5172                           	
  5173                           l3710:; BSR set to: 0
  5174  001174                     
  5175                           ;/opt/microchip/xc8/v2.00/pic/sources/c99/common/doprnt.c: 452:             if (!pp && (
                                 ne < 0)) {
  5176                           	movf	((efgtoa@pp))&0ffh,w
  5177  001174  5172               iorwf	((efgtoa@pp+1))&0ffh,w
  5178  001176  1173               	btfss	status,2
  5179  001178  A4D8               	goto	u4391
  5180  00117A  EFC1  F008         	goto	u4390
  5181  00117E  EFC3  F008         
  5182                           u4391:
  5183  001182                     	goto	l3730
  5184  001182  EFF1  F008         u4390:
  5185  001186                     	
  5186                           l3712:; BSR set to: 0
  5187  001186                     
  5188                           	btfsc	((efgtoa@ne+1))&0ffh,7
  5189  001186  BF77               	goto	u4400
  5190  001188  EFCA  F008         	goto	u4401
  5191  00118C  EFC8  F008         
  5192                           u4401:
  5193  001190                     	goto	l3730
  5194  001190  EFF1  F008         u4400:
  5195  001194                     	line	453
  5196                           	
  5197                           l3714:; BSR set to: 0
  5198  001194                     
  5199                           ;/opt/microchip/xc8/v2.00/pic/sources/c99/common/doprnt.c: 453:                 dbuf[n++
                                 ] = '.';
  5200                           	movlw	low(_dbuf)
  5201  001194  0E00               	addwf	((efgtoa@n))&0ffh,w
  5202  001196  2592               	movwf	c:fsr2l
  5203  001198  6ED9               	movlw	high(_dbuf)
  5204  00119A  0E01               	addwfc	((efgtoa@n+1))&0ffh,w
  5205  00119C  2193               	movwf	1+c:fsr2l
  5206  00119E  6EDA               	movlw	low(02Eh)
  5207  0011A0  0E2E               	movwf	indf2
  5208  0011A2  6EDF               	
  5209                           l3716:; BSR set to: 0
  5210  0011A4                     
  5211                           	infsnz	((efgtoa@n))&0ffh
  5212  0011A4  4B92               	incf	((efgtoa@n+1))&0ffh
  5213  0011A6  2B93               	line	454
  5214                           	
  5215                           l3718:; BSR set to: 0
  5216  0011A8                     
  5217                           ;/opt/microchip/xc8/v2.00/pic/sources/c99/common/doprnt.c: 454:                 --w;
  5218                           	decf	((efgtoa@w))&0ffh
  5219  0011A8  077F               	btfss	status,0
  5220  0011AA  A0D8               	decf	((efgtoa@w+1))&0ffh
  5221  0011AC  0780               	line	455
  5222                           	
  5223                           l3720:; BSR set to: 0
  5224  0011AE                     
  5225                           ;/opt/microchip/xc8/v2.00/pic/sources/c99/common/doprnt.c: 455:                 pp = 1;

  5226                           	movlw	high(01h)
  5227  0011AE  0E00               	movwf	((efgtoa@pp+1))&0ffh
  5228  0011B0  6F73               	movlw	low(01h)
  5229  0011B2  0E01               	movwf	((efgtoa@pp))&0ffh
  5230  0011B4  6F72               	goto	l3730
  5231  0011B6  EFF1  F008         	line	456
  5232                           ;/opt/microchip/xc8/v2.00/pic/sources/c99/common/doprnt.c: 456:             }
  5233                           	
  5234                           l233:; BSR set to: 0
  5235  0011BA                     
  5236                           	line	457
  5237                           ;/opt/microchip/xc8/v2.00/pic/sources/c99/common/doprnt.c: 457:             while (t) {

  5238                           	goto	l3730
  5239  0011BA  EFF1  F008         	
  5240                           l235:; BSR set to: 0
  5241  0011BE                     
  5242                           	line	458
  5243                           	
  5244                           l3722:; BSR set to: 0
  5245  0011BE                     
  5246                           ;/opt/microchip/xc8/v2.00/pic/sources/c99/common/doprnt.c: 458:                 dbuf[n++
                                 ] = '0';
  5247                           	movlw	low(_dbuf)
  5248  0011BE  0E00               	addwf	((efgtoa@n))&0ffh,w
  5249  0011C0  2592               	movwf	c:fsr2l
  5250  0011C2  6ED9               	movlw	high(_dbuf)
  5251  0011C4  0E01               	addwfc	((efgtoa@n+1))&0ffh,w
  5252  0011C6  2193               	movwf	1+c:fsr2l
  5253  0011C8  6EDA               	movlw	low(030h)
  5254  0011CA  0E30               	movwf	indf2
  5255  0011CC  6EDF               	
  5256                           l3724:; BSR set to: 0
  5257  0011CE                     
  5258                           	infsnz	((efgtoa@n))&0ffh
  5259  0011CE  4B92               	incf	((efgtoa@n+1))&0ffh
  5260  0011D0  2B93               	line	459
  5261                           	
  5262                           l3726:; BSR set to: 0
  5263  0011D2                     
  5264                           ;/opt/microchip/xc8/v2.00/pic/sources/c99/common/doprnt.c: 459:                 --w;
  5265                           	decf	((efgtoa@w))&0ffh
  5266  0011D2  077F               	btfss	status,0
  5267  0011D4  A0D8               	decf	((efgtoa@w+1))&0ffh
  5268  0011D6  0780               	line	460
  5269                           	
  5270                           l3728:; BSR set to: 0
  5271  0011D8                     
  5272                           ;/opt/microchip/xc8/v2.00/pic/sources/c99/common/doprnt.c: 460:                 --t;
  5273                           	decf	((efgtoa@t))&0ffh
  5274  0011D8  0770               	btfss	status,0
  5275  0011DA  A0D8               	decf	((efgtoa@t+1))&0ffh
  5276  0011DC  0771               	goto	l3730
  5277  0011DE  EFF1  F008         	line	461
  5278                           ;/opt/microchip/xc8/v2.00/pic/sources/c99/common/doprnt.c: 461:             }
  5279                           	
  5280                           l234:; BSR set to: 0
  5281  0011E2                     
  5282                           	line	457
  5283                           	
  5284                           l3730:; BSR set to: 0
  5285  0011E2                     
  5286                           ;/opt/microchip/xc8/v2.00/pic/sources/c99/common/doprnt.c: 457:             while (t) {

  5287                           	movf	((efgtoa@t))&0ffh,w
  5288  0011E2  5170               iorwf	((efgtoa@t+1))&0ffh,w
  5289  0011E4  1171               	btfss	status,2
  5290  0011E6  A4D8               	goto	u4411
  5291  0011E8  EFF8  F008         	goto	u4410
  5292  0011EC  EFFA  F008         
  5293                           u4411:
  5294  0011F0                     	goto	l3722
  5295  0011F0  EFDF  F008         u4410:
  5296  0011F4                     	goto	l3732
  5297  0011F4  EFFC  F008         	
  5298                           l236:; BSR set to: 0
  5299  0011F8                     
  5300                           	line	462
  5301                           	
  5302                           l3732:; BSR set to: 0
  5303  0011F8                     
  5304                           ;/opt/microchip/xc8/v2.00/pic/sources/c99/common/doprnt.c: 462:             dbuf[n++] = 
                                 '0' + d;
  5305                           	movlw	low(_dbuf)
  5306  0011F8  0E00               	addwf	((efgtoa@n))&0ffh,w
  5307  0011FA  2592               	movwf	c:fsr2l
  5308  0011FC  6ED9               	movlw	high(_dbuf)
  5309  0011FE  0E01               	addwfc	((efgtoa@n+1))&0ffh,w
  5310  001200  2193               	movwf	1+c:fsr2l
  5311  001202  6EDA               	movf	((efgtoa@d))&0ffh,w
  5312  001204  5178               	addlw	low(030h)
  5313  001206  0F30               	movwf	indf2,c
  5314  001208  6EDF               
  5315                           	
  5316                           l3734:; BSR set to: 0
  5317  00120A                     
  5318                           	infsnz	((efgtoa@n))&0ffh
  5319  00120A  4B92               	incf	((efgtoa@n+1))&0ffh
  5320  00120C  2B93               	line	463
  5321                           	
  5322                           l3736:; BSR set to: 0
  5323  00120E                     
  5324                           ;/opt/microchip/xc8/v2.00/pic/sources/c99/common/doprnt.c: 463:             --w;
  5325                           	decf	((efgtoa@w))&0ffh
  5326  00120E  077F               	btfss	status,0
  5327  001210  A0D8               	decf	((efgtoa@w+1))&0ffh
  5328  001212  0780               	goto	l3738
  5329  001214  EF0C  F009         	line	464
  5330                           ;/opt/microchip/xc8/v2.00/pic/sources/c99/common/doprnt.c: 464:         }
  5331                           	
  5332                           l232:; BSR set to: 0
  5333  001218                     
  5334                           	line	465
  5335                           	
  5336                           l3738:; BSR set to: 0
  5337  001218                     
  5338                           ;/opt/microchip/xc8/v2.00/pic/sources/c99/common/doprnt.c: 465:         h -= l*u;
  5339                           	movff	(efgtoa@h),(c:___flsub@b)
  5340  001218  C082  F028         	movff	(efgtoa@h+1),(c:___flsub@b+1)
  5341  00121C  C083  F029         	movff	(efgtoa@h+2),(c:___flsub@b+2)
  5342  001220  C084  F02A         	movff	(efgtoa@h+3),(c:___flsub@b+3)
  5343  001224  C085  F02B         	movff	(efgtoa@u),(c:___flmul@a)
  5344  001228  C094  F013         	movff	(efgtoa@u+1),(c:___flmul@a+1)
  5345  00122C  C095  F014         	movff	(efgtoa@u+2),(c:___flmul@a+2)
  5346  001230  C096  F015         	movff	(efgtoa@u+3),(c:___flmul@a+3)
  5347  001234  C097  F016         	movff	(efgtoa@l),(c:___flmul@b)
  5348  001238  C086  F00F         	movff	(efgtoa@l+1),(c:___flmul@b+1)
  5349  00123C  C087  F010         	movff	(efgtoa@l+2),(c:___flmul@b+2)
  5350  001240  C088  F011         	movff	(efgtoa@l+3),(c:___flmul@b+3)
  5351  001244  C089  F012         	call	___flmul	;wreg free
  5352  001248  ECF1  F00F         	movff	0+?___flmul,(c:___flsub@a)
  5353  00124C  C00F  F02C         	movff	1+?___flmul,(c:___flsub@a+1)
  5354  001250  C010  F02D         	movff	2+?___flmul,(c:___flsub@a+2)
  5355  001254  C011  F02E         	movff	3+?___flmul,(c:___flsub@a+3)
  5356  001258  C012  F02F         	
  5357                           	call	___flsub	;wreg free
  5358  00125C  EC8D  F020         	movff	0+?___flsub,(efgtoa@h)
  5359  001260  C028  F082         	movff	1+?___flsub,(efgtoa@h+1)
  5360  001264  C029  F083         	movff	2+?___flsub,(efgtoa@h+2)
  5361  001268  C02A  F084         	movff	3+?___flsub,(efgtoa@h+3)
  5362  00126C  C02B  F085         	
  5363                           	line	466
  5364                           	
  5365                           l3740:
  5366  001270                     ;/opt/microchip/xc8/v2.00/pic/sources/c99/common/doprnt.c: 466:         u = u/10.0;
  5367                           	movff	(efgtoa@u),(c:___fldiv@b)
  5368  001270  C094  F001         	movff	(efgtoa@u+1),(c:___fldiv@b+1)
  5369  001274  C095  F002         	movff	(efgtoa@u+2),(c:___fldiv@b+2)
  5370  001278  C096  F003         	movff	(efgtoa@u+3),(c:___fldiv@b+3)
  5371  00127C  C097  F004         	movlw	low(normalize32(0x41200000))
  5372  001280  0E00               	movwf	((c:___fldiv@a)),c
  5373  001282  6E05               	movlw	high(normalize32(0x41200000))
  5374  001284  0E00               	movwf	((c:___fldiv@a+1)),c
  5375  001286  6E06               	movlw	low highword(normalize32(0x41200000))
  5376  001288  0E20               	movwf	((c:___fldiv@a+2)),c
  5377  00128A  6E07               	movlw	high highword(normalize32(0x41200000))
  5378  00128C  0E41               	movwf	((c:___fldiv@a+3)),c
  5379  00128E  6E08               	call	___fldiv	;wreg free
  5380  001290  EC28  F012         	movff	0+?___fldiv,(efgtoa@u)
  5381  001294  C001  F094         	movff	1+?___fldiv,(efgtoa@u+1)
  5382  001298  C002  F095         	movff	2+?___fldiv,(efgtoa@u+2)
  5383  00129C  C003  F096         	movff	3+?___fldiv,(efgtoa@u+3)
  5384  0012A0  C004  F097         	
  5385                           	line	467
  5386                           	
  5387                           l3742:
  5388  0012A4                     ;/opt/microchip/xc8/v2.00/pic/sources/c99/common/doprnt.c: 467:         --ne;
  5389                           	movlb	0	; () banked
  5390  0012A4  0100               	decf	((efgtoa@ne))&0ffh
  5391  0012A6  0776               	btfss	status,0
  5392  0012A8  A0D8               	decf	((efgtoa@ne+1))&0ffh
  5393  0012AA  0777               	line	468
  5394                           	
  5395                           l3744:; BSR set to: 0
  5396  0012AC                     
  5397                           ;/opt/microchip/xc8/v2.00/pic/sources/c99/common/doprnt.c: 468:         ++i;
  5398                           	infsnz	((efgtoa@i))&0ffh
  5399  0012AC  4B8A               	incf	((efgtoa@i+1))&0ffh
  5400  0012AE  2B8B               	goto	l3746
  5401  0012B0  EF5A  F009         	line	469
  5402                           ;/opt/microchip/xc8/v2.00/pic/sources/c99/common/doprnt.c: 469:     }
  5403                           	
  5404                           l229:; BSR set to: 0
  5405  0012B4                     
  5406                           	line	446
  5407                           	
  5408                           l3746:; BSR set to: 0
  5409  0012B4                     
  5410                           ;/opt/microchip/xc8/v2.00/pic/sources/c99/common/doprnt.c: 446:     while ((i < m) && (n
                                  < (80 - 5))) {
  5411                           		movf	((efgtoa@m))&0ffh,w
  5412  0012B4  5174               	subwf	((efgtoa@i))&0ffh,w
  5413  0012B6  5D8A               	movf	((efgtoa@i+1))&0ffh,w
  5414  0012B8  518B               	xorlw	80h
  5415  0012BA  0A80               	movwf	(??_efgtoa+0+0)&0ffh,c
  5416  0012BC  6E3B               	movf	((efgtoa@m+1))&0ffh,w
  5417  0012BE  5175               	xorlw	80h
  5418  0012C0  0A80               	subwfb	(??_efgtoa+0+0)&0ffh,c,w
  5419  0012C2  583B               	btfsc	status,0
  5420  0012C4  B0D8               	goto	u4421
  5421  0012C6  EF67  F009         	goto	u4420
  5422  0012CA  EF69  F009         
  5423                           u4421:
  5424  0012CE                     	goto	l3750
  5425  0012CE  EF7B  F009         u4420:
  5426  0012D2                     	
  5427                           l3748:; BSR set to: 0
  5428  0012D2                     
  5429                           	btfsc	((efgtoa@n+1))&0ffh,7
  5430  0012D2  BF93               	goto	u4431
  5431  0012D4  EF75  F009         	movf	((efgtoa@n+1))&0ffh,w
  5432  0012D8  5193               	bnz	u4430
  5433  0012DA  E109               	movlw	75
  5434  0012DC  0E4B               	subwf	 ((efgtoa@n))&0ffh,w
  5435  0012DE  5D92               	btfss	status,0
  5436  0012E0  A0D8               	goto	u4431
  5437  0012E2  EF75  F009         	goto	u4430
  5438  0012E6  EF77  F009         
  5439                           u4431:
  5440  0012EA                     	goto	l3698
  5441  0012EA  EF63  F008         u4430:
  5442  0012EE                     	goto	l3750
  5443  0012EE  EF7B  F009         	
  5444                           l238:; BSR set to: 0
  5445  0012F2                     
  5446                           	goto	l3750
  5447  0012F2  EF7B  F009         	
  5448                           l239:; BSR set to: 0
  5449  0012F6                     
  5450                           	line	470
  5451                           	
  5452                           l3750:; BSR set to: 0
  5453  0012F6                     
  5454                           ;/opt/microchip/xc8/v2.00/pic/sources/c99/common/doprnt.c: 470:     if (!pp && (flags & 
                                 (1 << 4))) {
  5455                           	movf	((efgtoa@pp))&0ffh,w
  5456  0012F6  5172               iorwf	((efgtoa@pp+1))&0ffh,w
  5457  0012F8  1173               	btfss	status,2
  5458  0012FA  A4D8               	goto	u4441
  5459  0012FC  EF82  F009         	goto	u4440
  5460  001300  EF84  F009         
  5461                           u4441:
  5462  001304                     	goto	l3758
  5463  001304  EF97  F009         u4440:
  5464  001308                     	
  5465                           l3752:; BSR set to: 0
  5466  001308                     
  5467                           	
  5468                           	btfss	((_flags))&0ffh,(4)&7
  5469  001308  A9C8               	goto	u4451
  5470  00130A  EF89  F009         	goto	u4450
  5471  00130E  EF8B  F009         u4451:
  5472  001312                     	goto	l3758
  5473  001312  EF97  F009         u4450:
  5474  001316                     	line	471
  5475                           	
  5476                           l3754:; BSR set to: 0
  5477  001316                     
  5478                           ;/opt/microchip/xc8/v2.00/pic/sources/c99/common/doprnt.c: 471:         dbuf[n++] = '.';
                                 
  5479                           	movlw	low(_dbuf)
  5480  001316  0E00               	addwf	((efgtoa@n))&0ffh,w
  5481  001318  2592               	movwf	c:fsr2l
  5482  00131A  6ED9               	movlw	high(_dbuf)
  5483  00131C  0E01               	addwfc	((efgtoa@n+1))&0ffh,w
  5484  00131E  2193               	movwf	1+c:fsr2l
  5485  001320  6EDA               	movlw	low(02Eh)
  5486  001322  0E2E               	movwf	indf2
  5487  001324  6EDF               	
  5488                           l3756:; BSR set to: 0
  5489  001326                     
  5490                           	infsnz	((efgtoa@n))&0ffh
  5491  001326  4B92               	incf	((efgtoa@n+1))&0ffh
  5492  001328  2B93               	goto	l3758
  5493  00132A  EF97  F009         	line	472
  5494                           ;/opt/microchip/xc8/v2.00/pic/sources/c99/common/doprnt.c: 472:     }
  5495                           	
  5496                           l240:; BSR set to: 0
  5497  00132E                     
  5498                           	line	473
  5499                           	
  5500                           l3758:; BSR set to: 0
  5501  00132E                     
  5502                           ;/opt/microchip/xc8/v2.00/pic/sources/c99/common/doprnt.c: 473:     dbuf[n] = '\0';
  5503                           	movlw	low(_dbuf)
  5504  00132E  0E00               	addwf	((efgtoa@n))&0ffh,w
  5505  001330  2592               	movwf	c:fsr2l
  5506  001332  6ED9               	movlw	high(_dbuf)
  5507  001334  0E01               	addwfc	((efgtoa@n+1))&0ffh,w
  5508  001336  2193               	movwf	1+c:fsr2l
  5509  001338  6EDA               	movlw	low(0)
  5510  00133A  0E00               	movwf	indf2
  5511  00133C  6EDF               	line	476
  5512                           	
  5513                           l3760:; BSR set to: 0
  5514  00133E                     
  5515                           ;/opt/microchip/xc8/v2.00/pic/sources/c99/common/doprnt.c: 476:     if (nmode == 'e') {

  5516                           		movlw	101
  5517  00133E  0E65               	xorwf	((efgtoa@nmode))&0ffh,w
  5518  001340  197E               	btfss	status,2
  5519  001342  A4D8               	goto	u4461
  5520  001344  EFA6  F009         	goto	u4460
  5521  001348  EFA8  F009         
  5522                           u4461:
  5523  00134C                     	goto	l3820
  5524  00134C  EF92  F00A         u4460:
  5525  001350                     	line	477
  5526                           	
  5527                           l3762:; BSR set to: 0
  5528  001350                     
  5529                           ;/opt/microchip/xc8/v2.00/pic/sources/c99/common/doprnt.c: 477:         i = sizeof(dbuf)
                                  - 1;
  5530                           	movlw	high(04Fh)
  5531  001350  0E00               	movwf	((efgtoa@i+1))&0ffh
  5532  001352  6F8B               	movlw	low(04Fh)
  5533  001354  0E4F               	movwf	((efgtoa@i))&0ffh
  5534  001356  6F8A               	line	478
  5535                           	
  5536                           l3764:; BSR set to: 0
  5537  001358                     
  5538                           ;/opt/microchip/xc8/v2.00/pic/sources/c99/common/doprnt.c: 478:         dbuf[i] = '\0';

  5539                           	movlw	low(_dbuf)
  5540  001358  0E00               	addwf	((efgtoa@i))&0ffh,w
  5541  00135A  258A               	movwf	c:fsr2l
  5542  00135C  6ED9               	movlw	high(_dbuf)
  5543  00135E  0E01               	addwfc	((efgtoa@i+1))&0ffh,w
  5544  001360  218B               	movwf	1+c:fsr2l
  5545  001362  6EDA               	movlw	low(0)
  5546  001364  0E00               	movwf	indf2
  5547  001366  6EDF               	line	479
  5548                           	
  5549                           l3766:; BSR set to: 0
  5550  001368                     
  5551                           ;/opt/microchip/xc8/v2.00/pic/sources/c99/common/doprnt.c: 479:         sign = 0;
  5552                           	movlw	high(0)
  5553  001368  0E00               	movwf	((efgtoa@sign+1))&0ffh
  5554  00136A  6F7B               	movlw	low(0)
  5555  00136C  0E00               	movwf	((efgtoa@sign))&0ffh
  5556  00136E  6F7A               	line	480
  5557                           	
  5558                           l3768:; BSR set to: 0
  5559  001370                     
  5560                           ;/opt/microchip/xc8/v2.00/pic/sources/c99/common/doprnt.c: 480:         if (e < 0) {
  5561                           	btfsc	((efgtoa@e+1))&0ffh,7
  5562  001370  BF91               	goto	u4470
  5563  001372  EFBF  F009         	goto	u4471
  5564  001376  EFBD  F009         
  5565                           u4471:
  5566  00137A                     	goto	l3774
  5567  00137A  EFC9  F009         u4470:
  5568  00137E                     	line	481
  5569                           	
  5570                           l3770:; BSR set to: 0
  5571  00137E                     
  5572                           ;/opt/microchip/xc8/v2.00/pic/sources/c99/common/doprnt.c: 481:             sign = 1;
  5573                           	movlw	high(01h)
  5574  00137E  0E00               	movwf	((efgtoa@sign+1))&0ffh
  5575  001380  6F7B               	movlw	low(01h)
  5576  001382  0E01               	movwf	((efgtoa@sign))&0ffh
  5577  001384  6F7A               	line	482
  5578                           	
  5579                           l3772:; BSR set to: 0
  5580  001386                     
  5581                           ;/opt/microchip/xc8/v2.00/pic/sources/c99/common/doprnt.c: 482:             e = -e;
  5582                           	negf	((efgtoa@e))&0ffh
  5583  001386  6D90               	comf	((efgtoa@e+1))&0ffh
  5584  001388  1F91               	btfsc	status,0
  5585  00138A  B0D8               	incf	((efgtoa@e+1))&0ffh
  5586  00138C  2B91               	goto	l3774
  5587  00138E  EFC9  F009         	line	483
  5588                           ;/opt/microchip/xc8/v2.00/pic/sources/c99/common/doprnt.c: 483:         }
  5589                           	
  5590                           l242:; BSR set to: 0
  5591  001392                     
  5592                           	line	484
  5593                           	
  5594                           l3774:; BSR set to: 0
  5595  001392                     
  5596                           ;/opt/microchip/xc8/v2.00/pic/sources/c99/common/doprnt.c: 484:         p = 2;
  5597                           	movlw	high(02h)
  5598  001392  0E00               	movwf	((efgtoa@p+1))&0ffh
  5599  001394  6F7D               	movlw	low(02h)
  5600  001396  0E02               	movwf	((efgtoa@p))&0ffh
  5601  001398  6F7C               	line	485
  5602                           ;/opt/microchip/xc8/v2.00/pic/sources/c99/common/doprnt.c: 485:         while (e || (0 <
                                  p)) {
  5603                           	goto	l3786
  5604  00139A  EFFC  F009         	
  5605                           l244:; BSR set to: 0
  5606  00139E                     
  5607                           	line	486
  5608                           	
  5609                           l3776:; BSR set to: 0
  5610  00139E                     
  5611                           ;/opt/microchip/xc8/v2.00/pic/sources/c99/common/doprnt.c: 486:             --i;
  5612                           	decf	((efgtoa@i))&0ffh
  5613  00139E  078A               	btfss	status,0
  5614  0013A0  A0D8               	decf	((efgtoa@i+1))&0ffh
  5615  0013A2  078B               	line	487
  5616                           	
  5617                           l3778:; BSR set to: 0
  5618  0013A4                     
  5619                           ;/opt/microchip/xc8/v2.00/pic/sources/c99/common/doprnt.c: 487:             dbuf[i] = '0
                                 ' + (e % 10);
  5620                           	movlw	low(_dbuf)
  5621  0013A4  0E00               	addwf	((efgtoa@i))&0ffh,w
  5622  0013A6  258A               	movwf	c:fsr2l
  5623  0013A8  6ED9               	movlw	high(_dbuf)
  5624  0013AA  0E01               	addwfc	((efgtoa@i+1))&0ffh,w
  5625  0013AC  218B               	movwf	1+c:fsr2l
  5626  0013AE  6EDA               	movff	(efgtoa@e),(c:___awmod@dividend)
  5627  0013B0  C090  F001         	movff	(efgtoa@e+1),(c:___awmod@dividend+1)
  5628  0013B4  C091  F002         	movlw	high(0Ah)
  5629  0013B8  0E00               	movwf	((c:___awmod@divisor+1)),c
  5630  0013BA  6E04               	movlw	low(0Ah)
  5631  0013BC  0E0A               	movwf	((c:___awmod@divisor)),c
  5632  0013BE  6E03               	call	___awmod	;wreg free
  5633  0013C0  EC02  F01D         	movf	(0+?___awmod),c,w
  5634  0013C4  5001               	addlw	low(030h)
  5635  0013C6  0F30               	movwf	indf2,c
  5636  0013C8  6EDF               
  5637                           	line	488
  5638                           	
  5639                           l3780:
  5640  0013CA                     ;/opt/microchip/xc8/v2.00/pic/sources/c99/common/doprnt.c: 488:             e = e / 10;

  5641                           	movff	(efgtoa@e),(c:___awdiv@dividend)
  5642  0013CA  C090  F001         	movff	(efgtoa@e+1),(c:___awdiv@dividend+1)
  5643  0013CE  C091  F002         	movlw	high(0Ah)
  5644  0013D2  0E00               	movwf	((c:___awdiv@divisor+1)),c
  5645  0013D4  6E04               	movlw	low(0Ah)
  5646  0013D6  0E0A               	movwf	((c:___awdiv@divisor)),c
  5647  0013D8  6E03               	call	___awdiv	;wreg free
  5648  0013DA  EC1D  F01C         	movff	0+?___awdiv,(efgtoa@e)
  5649  0013DE  C001  F090         	movff	1+?___awdiv,(efgtoa@e+1)
  5650  0013E2  C002  F091         	line	489
  5651                           	
  5652                           l3782:
  5653  0013E6                     ;/opt/microchip/xc8/v2.00/pic/sources/c99/common/doprnt.c: 489:             --p;
  5654                           	movlb	0	; () banked
  5655  0013E6  0100               	decf	((efgtoa@p))&0ffh
  5656  0013E8  077C               	btfss	status,0
  5657  0013EA  A0D8               	decf	((efgtoa@p+1))&0ffh
  5658  0013EC  077D               	line	490
  5659                           	
  5660                           l3784:; BSR set to: 0
  5661  0013EE                     
  5662                           ;/opt/microchip/xc8/v2.00/pic/sources/c99/common/doprnt.c: 490:             --w;
  5663                           	decf	((efgtoa@w))&0ffh
  5664  0013EE  077F               	btfss	status,0
  5665  0013F0  A0D8               	decf	((efgtoa@w+1))&0ffh
  5666  0013F2  0780               	goto	l3786
  5667  0013F4  EFFC  F009         	line	491
  5668                           ;/opt/microchip/xc8/v2.00/pic/sources/c99/common/doprnt.c: 491:         }
  5669                           	
  5670                           l243:; BSR set to: 0
  5671  0013F8                     
  5672                           	line	485
  5673                           	
  5674                           l3786:; BSR set to: 0
  5675  0013F8                     
  5676                           ;/opt/microchip/xc8/v2.00/pic/sources/c99/common/doprnt.c: 485:         while (e || (0 <
                                  p)) {
  5677                           	movf	((efgtoa@e))&0ffh,w
  5678  0013F8  5190               iorwf	((efgtoa@e+1))&0ffh,w
  5679  0013FA  1191               	btfss	status,2
  5680  0013FC  A4D8               	goto	u4481
  5681  0013FE  EF03  F00A         	goto	u4480
  5682  001402  EF05  F00A         
  5683                           u4481:
  5684  001406                     	goto	l3776
  5685  001406  EFCF  F009         u4480:
  5686  00140A                     	
  5687                           l3788:; BSR set to: 0
  5688  00140A                     
  5689                           	btfsc	((efgtoa@p+1))&0ffh,7
  5690  00140A  BF7D               	goto	u4490
  5691  00140C  EF12  F00A         	movf	((efgtoa@p+1))&0ffh,w
  5692  001410  517D               	bnz	u4491
  5693  001412  E106               	decf	((efgtoa@p))&0ffh,w
  5694  001414  057C               	btfsc	status,0
  5695  001416  B0D8               	goto	u4491
  5696  001418  EF10  F00A         	goto	u4490
  5697  00141C  EF12  F00A         
  5698                           u4491:
  5699  001420                     	goto	l3776
  5700  001420  EFCF  F009         u4490:
  5701  001424                     	goto	l3790
  5702  001424  EF14  F00A         	
  5703                           l245:; BSR set to: 0
  5704  001428                     
  5705                           	line	492
  5706                           	
  5707                           l3790:; BSR set to: 0
  5708  001428                     
  5709                           ;/opt/microchip/xc8/v2.00/pic/sources/c99/common/doprnt.c: 492:         --i;
  5710                           	decf	((efgtoa@i))&0ffh
  5711  001428  078A               	btfss	status,0
  5712  00142A  A0D8               	decf	((efgtoa@i+1))&0ffh
  5713  00142C  078B               	line	493
  5714                           	
  5715                           l3792:; BSR set to: 0
  5716  00142E                     
  5717                           ;/opt/microchip/xc8/v2.00/pic/sources/c99/common/doprnt.c: 493:         dbuf[i] = sign ?
                                  '-' : '+';
  5718                           	movf	((efgtoa@sign))&0ffh,w
  5719  00142E  517A               iorwf	((efgtoa@sign+1))&0ffh,w
  5720  001430  117B               	btfss	status,2
  5721  001432  A4D8               	goto	u4501
  5722  001434  EF1E  F00A         	goto	u4500
  5723  001438  EF20  F00A         
  5724                           u4501:
  5725  00143C                     	goto	l3796
  5726  00143C  EF26  F00A         u4500:
  5727  001440                     	
  5728                           l3794:; BSR set to: 0
  5729  001440                     
  5730                           	movlw	high(02Bh)
  5731  001440  0E00               	movwf	((_efgtoa$455+1))&0ffh
  5732  001442  6F6B               	movlw	low(02Bh)
  5733  001444  0E2B               	movwf	((_efgtoa$455))&0ffh
  5734  001446  6F6A               	goto	l3798
  5735  001448  EF2C  F00A         	
  5736                           l247:; BSR set to: 0
  5737  00144C                     
  5738                           	
  5739                           l3796:; BSR set to: 0
  5740  00144C                     
  5741                           	movlw	high(02Dh)
  5742  00144C  0E00               	movwf	((_efgtoa$455+1))&0ffh
  5743  00144E  6F6B               	movlw	low(02Dh)
  5744  001450  0E2D               	movwf	((_efgtoa$455))&0ffh
  5745  001452  6F6A               	goto	l3798
  5746  001454  EF2C  F00A         	
  5747                           l249:; BSR set to: 0
  5748  001458                     
  5749                           	
  5750                           l3798:; BSR set to: 0
  5751  001458                     
  5752                           	movlw	low(_dbuf)
  5753  001458  0E00               	addwf	((efgtoa@i))&0ffh,w
  5754  00145A  258A               	movwf	c:fsr2l
  5755  00145C  6ED9               	movlw	high(_dbuf)
  5756  00145E  0E01               	addwfc	((efgtoa@i+1))&0ffh,w
  5757  001460  218B               	movwf	1+c:fsr2l
  5758  001462  6EDA               	movff	(_efgtoa$455),indf2
  5759  001464  C06A  FFDF         
  5760                           	line	494
  5761                           	
  5762                           l3800:; BSR set to: 0
  5763  001468                     
  5764                           ;/opt/microchip/xc8/v2.00/pic/sources/c99/common/doprnt.c: 494:         --w;
  5765                           	decf	((efgtoa@w))&0ffh
  5766  001468  077F               	btfss	status,0
  5767  00146A  A0D8               	decf	((efgtoa@w+1))&0ffh
  5768  00146C  0780               	line	495
  5769                           	
  5770                           l3802:; BSR set to: 0
  5771  00146E                     
  5772                           ;/opt/microchip/xc8/v2.00/pic/sources/c99/common/doprnt.c: 496:         dbuf[i] = (0 ? i
                                 supper((int)c) : ((unsigned)((int)c)-'A') < 26) ? 'E' : 'e';
  5773                           	decf	((efgtoa@i))&0ffh
  5774  00146E  078A               	btfss	status,0
  5775  001470  A0D8               	decf	((efgtoa@i+1))&0ffh
  5776  001472  078B               	line	496
  5777                           	
  5778                           l3804:; BSR set to: 0
  5779  001474                     
  5780                           	movlw	low(0FFBFh)
  5781  001474  0EBF               	movwf	(??_efgtoa+0+0)&0ffh,c
  5782  001476  6E3B               	movlw	high(0FFBFh)
  5783  001478  0EFF               	movwf	1+(??_efgtoa+0+0)&0ffh,c
  5784  00147A  6E3C               	movf	((c:efgtoa@c)),c,w
  5785  00147C  503A               	movwf	(??_efgtoa+2+0)&0ffh,c
  5786  00147E  6E3D               	clrf	(??_efgtoa+2+0+1)&0ffh,c
  5787  001480  6A3E               
  5788                           	movf	(??_efgtoa+0+0),c,w
  5789  001482  503B               	addwf	(??_efgtoa+2+0),c
  5790  001484  263D               	movf	(??_efgtoa+0+1),c,w
  5791  001486  503C               	addwfc	(??_efgtoa+2+1),c
  5792  001488  223E               		movf	(??_efgtoa+2+1),c,w
  5793  00148A  503E               	bnz	u4510
  5794  00148C  E10A               	movlw	26
  5795  00148E  0E1A               	subwf	 (??_efgtoa+2+0),c,w
  5796  001490  5C3D               	btfss	status,0
  5797  001492  A0D8               	goto	u4511
  5798  001494  EF4E  F00A         	goto	u4510
  5799  001498  EF51  F00A         
  5800                           u4511:
  5801  00149C                     	movlw	1
  5802  00149C  0E01               	goto	u4520
  5803  00149E  EF52  F00A         u4510:
  5804  0014A2                     	movlw	0
  5805  0014A2  0E00               u4520:
  5806  0014A4                     	movwf	((_efgtoa$457))&0ffh
  5807  0014A4  6F6E               	clrf	((_efgtoa$457+1))&0ffh
  5808  0014A6  6B6F               	goto	l3808
  5809  0014A8  EF61  F00A         	
  5810                           l255:; BSR set to: 0
  5811  0014AC                     
  5812                           	
  5813                           l3806:; BSR set to: 0
  5814  0014AC                     
  5815                           	movff	(c:efgtoa@c),(c:isupper@c)
  5816  0014AC  C03A  F001         	clrf	((c:isupper@c+1)),c
  5817  0014B0  6A02               	call	_isupper	;wreg free
  5818  0014B2  ECD2  F020         	movff	0+?_isupper,(_efgtoa$457)
  5819  0014B6  C001  F06E         	movff	1+?_isupper,(_efgtoa$457+1)
  5820  0014BA  C002  F06F         	goto	l3808
  5821  0014BE  EF61  F00A         	
  5822                           l257:
  5823  0014C2                     	
  5824                           l3808:
  5825  0014C2                     	movlb	0	; () banked
  5826  0014C2  0100               	movf	((_efgtoa$457))&0ffh,w
  5827  0014C4  516E               iorwf	((_efgtoa$457+1))&0ffh,w
  5828  0014C6  116F               	btfss	status,2
  5829  0014C8  A4D8               	goto	u4531
  5830  0014CA  EF69  F00A         	goto	u4530
  5831  0014CE  EF6B  F00A         
  5832                           u4531:
  5833  0014D2                     	goto	l3812
  5834  0014D2  EF71  F00A         u4530:
  5835  0014D6                     	
  5836                           l3810:; BSR set to: 0
  5837  0014D6                     
  5838                           	movlw	high(065h)
  5839  0014D6  0E00               	movwf	((_efgtoa$456+1))&0ffh
  5840  0014D8  6F6D               	movlw	low(065h)
  5841  0014DA  0E65               	movwf	((_efgtoa$456))&0ffh
  5842  0014DC  6F6C               	goto	l3814
  5843  0014DE  EF77  F00A         	
  5844                           l251:; BSR set to: 0
  5845  0014E2                     
  5846                           	
  5847                           l3812:; BSR set to: 0
  5848  0014E2                     
  5849                           	movlw	high(045h)
  5850  0014E2  0E00               	movwf	((_efgtoa$456+1))&0ffh
  5851  0014E4  6F6D               	movlw	low(045h)
  5852  0014E6  0E45               	movwf	((_efgtoa$456))&0ffh
  5853  0014E8  6F6C               	goto	l3814
  5854  0014EA  EF77  F00A         	
  5855                           l253:; BSR set to: 0
  5856  0014EE                     
  5857                           	
  5858                           l3814:; BSR set to: 0
  5859  0014EE                     
  5860                           	movlw	low(_dbuf)
  5861  0014EE  0E00               	addwf	((efgtoa@i))&0ffh,w
  5862  0014F0  258A               	movwf	c:fsr2l
  5863  0014F2  6ED9               	movlw	high(_dbuf)
  5864  0014F4  0E01               	addwfc	((efgtoa@i+1))&0ffh,w
  5865  0014F6  218B               	movwf	1+c:fsr2l
  5866  0014F8  6EDA               	movff	(_efgtoa$456),indf2
  5867  0014FA  C06C  FFDF         
  5868                           	line	497
  5869                           	
  5870                           l3816:; BSR set to: 0
  5871  0014FE                     
  5872                           ;/opt/microchip/xc8/v2.00/pic/sources/c99/common/doprnt.c: 497:         --w;
  5873                           	decf	((efgtoa@w))&0ffh
  5874  0014FE  077F               	btfss	status,0
  5875  001500  A0D8               	decf	((efgtoa@w+1))&0ffh
  5876  001502  0780               	line	498
  5877                           	
  5878                           l3818:; BSR set to: 0
  5879  001504                     
  5880                           ;/opt/microchip/xc8/v2.00/pic/sources/c99/common/doprnt.c: 498:         strcpy(&dbuf[n],
                                  &dbuf[i]);
  5881                           	movlw	low(_dbuf)
  5882  001504  0E00               	addwf	((efgtoa@n))&0ffh,w
  5883  001506  2592               	movwf	((c:strcpy@dest)),c
  5884  001508  6E07               	movlw	high(_dbuf)
  5885  00150A  0E01               	addwfc	((efgtoa@n+1))&0ffh,w
  5886  00150C  2193               	movwf	1+((c:strcpy@dest)),c
  5887  00150E  6E08               	movlw	low(_dbuf)
  5888  001510  0E00               	addwf	((efgtoa@i))&0ffh,w
  5889  001512  258A               	movwf	((c:strcpy@src)),c
  5890  001514  6E09               	movlw	high(_dbuf)
  5891  001516  0E01               	addwfc	((efgtoa@i+1))&0ffh,w
  5892  001518  218B               	movwf	1+((c:strcpy@src)),c
  5893  00151A  6E0A               	call	_strcpy	;wreg free
  5894  00151C  EC7B  F01F         	goto	l3820
  5895  001520  EF92  F00A         	line	499
  5896                           ;/opt/microchip/xc8/v2.00/pic/sources/c99/common/doprnt.c: 499:     }
  5897                           	
  5898                           l241:
  5899  001524                     	line	502
  5900                           	
  5901                           l3820:
  5902  001524                     ;/opt/microchip/xc8/v2.00/pic/sources/c99/common/doprnt.c: 502:     return pad(fp, &dbuf
                                 [0], w);
  5903                           		movff	(c:efgtoa@fp),(c:pad@fp)
  5904  001524  C034  F011         	movff	(c:efgtoa@fp+1),(c:pad@fp+1)
  5905  001528  C035  F012         
  5906                           		movlw	low(_dbuf)
  5907  00152C  0E00               	movwf	((c:pad@buf)),c
  5908  00152E  6E13               	movlw	high(_dbuf)
  5909  001530  0E01               	movwf	((c:pad@buf+1)),c
  5910  001532  6E14               
  5911                           	movff	(efgtoa@w),(c:pad@p)
  5912  001534  C07F  F015         	movff	(efgtoa@w+1),(c:pad@p+1)
  5913  001538  C080  F016         	call	_pad	;wreg free
  5914  00153C  EC6E  F01D         	movff	0+?_pad,(c:?_efgtoa)
  5915  001540  C011  F034         	movff	1+?_pad,(c:?_efgtoa+1)
  5916  001544  C012  F035         	goto	l184
  5917  001548  EFA6  F00A         	
  5918                           l3822:
  5919  00154C                     	line	503
  5920                           	
  5921                           l184:
  5922  00154C                     	return	;funcret
  5923  00154C  0012               	opt stack 0
  5924                           GLOBAL	__end_of_efgtoa
  5925                           	__end_of_efgtoa:
  5926  00154E                     	signat	_efgtoa,12410
  5927                           	global	_tolower
  5928                           
  5929 ;; *************** function _tolower *****************
  5930 ;; Defined at:
  5931 ;;		line 4 in file "/opt/microchip/xc8/v2.00/pic/sources/c99/common/tolower.c"
  5932 ;; Parameters:    Size  Location     Type
  5933 ;;  c               2    6[COMRAM] int 
  5934 ;; Auto vars:     Size  Location     Type
  5935 ;;		None
  5936 ;; Return value:  Size  Location     Type
  5937 ;;                  2    6[COMRAM] int 
  5938 ;; Registers used:
  5939 ;;		wreg, status,2, status,0, cstack
  5940 ;; Tracked objects:
  5941 ;;		On entry : 0/0
  5942 ;;		On exit  : 0/0
  5943 ;;		Unchanged: 0/0
  5944 ;; Data sizes:     COMRAM   BANK0   BANK1   BANK2   BANK3   BANK4   BANK5   BANK6   BANK7
  5945 ;;      Params:         2       0       0       0       0       0       0       0       0
  5946 ;;      Locals:         2       0       0       0       0       0       0       0       0
  5947 ;;      Temps:          4       0       0       0       0       0       0       0       0
  5948 ;;      Totals:         8       0       0       0       0       0       0       0       0
  5949 ;;Total ram usage:        8 bytes
  5950 ;; Hardware stack levels used:    1
  5951 ;; Hardware stack levels required when called:    1
  5952 ;; This function calls:
  5953 ;;		_isupper
  5954 ;; This function is called by:
  5955 ;;		_efgtoa
  5956 ;;		_vfpfcnvrt
  5957 ;; This function uses a non-reentrant model
  5958 ;;
  5959                           psect	text7,class=CODE,space=0,reloc=2,group=2
  5960                           	file	"/opt/microchip/xc8/v2.00/pic/sources/c99/common/tolower.c"
  5961                           	line	4
  5962                           global __ptext7
  5963                           __ptext7:
  5964  003E76                     psect	text7
  5965                           	file	"/opt/microchip/xc8/v2.00/pic/sources/c99/common/tolower.c"
  5966                           	line	4
  5967                           	global	__size_of_tolower
  5968                           	__size_of_tolower	equ	__end_of_tolower-_tolower
  5969  0000                     	
  5970                           _tolower:
  5971  003E76                     ;incstack = 0
  5972                           	opt	stack 26
  5973                           	line	6
  5974                           	
  5975                           l3022:
  5976  003E76                     	movlw	low(0FFBFh)
  5977  003E76  0EBF               	movwf	(??_tolower+0+0)&0ffh,c
  5978  003E78  6E09               	movlw	high(0FFBFh)
  5979  003E7A  0EFF               	movwf	1+(??_tolower+0+0)&0ffh,c
  5980  003E7C  6E0A               	movff	(c:tolower@c),??_tolower+2+0
  5981  003E7E  C007  F00B         	movff	(c:tolower@c+1),??_tolower+2+0+1
  5982  003E82  C008  F00C         	movf	(??_tolower+0+0),c,w
  5983  003E86  5009               	addwf	(??_tolower+2+0),c
  5984  003E88  260B               	movf	(??_tolower+0+1),c,w
  5985  003E8A  500A               	addwfc	(??_tolower+2+1),c
  5986  003E8C  220C               		movf	(??_tolower+2+1),c,w
  5987  003E8E  500C               	bnz	u3150
  5988  003E90  E10A               	movlw	26
  5989  003E92  0E1A               	subwf	 (??_tolower+2+0),c,w
  5990  003E94  5C0B               	btfss	status,0
  5991  003E96  A0D8               	goto	u3151
  5992  003E98  EF50  F01F         	goto	u3150
  5993  003E9C  EF53  F01F         
  5994                           u3151:
  5995  003EA0                     	movlw	1
  5996  003EA0  0E01               	goto	u3160
  5997  003EA2  EF54  F01F         u3150:
  5998  003EA6                     	movlw	0
  5999  003EA6  0E00               u3160:
  6000  003EA8                     	movwf	((c:_tolower$1069)),c
  6001  003EA8  6E0D               	clrf	((c:_tolower$1069+1)),c
  6002  003EAA  6A0E               	goto	l3026
  6003  003EAC  EF64  F01F         	
  6004                           l1102:
  6005  003EB0                     	
  6006                           l3024:
  6007  003EB0                     	movff	(c:tolower@c),(c:isupper@c)
  6008  003EB0  C007  F001         	movff	(c:tolower@c+1),(c:isupper@c+1)
  6009  003EB4  C008  F002         	call	_isupper	;wreg free
  6010  003EB8  ECD2  F020         	movff	0+?_isupper,(c:_tolower$1069)
  6011  003EBC  C001  F00D         	movff	1+?_isupper,(c:_tolower$1069+1)
  6012  003EC0  C002  F00E         	goto	l3026
  6013  003EC4  EF64  F01F         	
  6014                           l1104:
  6015  003EC8                     	
  6016                           l3026:
  6017  003EC8                     	movf	((c:_tolower$1069)),c,w
  6018  003EC8  500D               iorwf	((c:_tolower$1069+1)),c,w
  6019  003ECA  100E               	btfsc	status,2
  6020  003ECC  B4D8               	goto	u3171
  6021  003ECE  EF6B  F01F         	goto	u3170
  6022  003ED2  EF6D  F01F         
  6023                           u3171:
  6024  003ED6                     	goto	l1100
  6025  003ED6  EF76  F01F         u3170:
  6026  003EDA                     	
  6027                           l3028:
  6028  003EDA                     	movlw	020h
  6029  003EDA  0E20               	iorwf	((c:tolower@c)),c,w
  6030  003EDC  1007               	movwf	((c:?_tolower)),c
  6031  003EDE  6E07               	movf	((c:tolower@c+1)),c,w
  6032  003EE0  5008               	movwf	1+((c:?_tolower)),c
  6033  003EE2  6E08               	goto	l1105
  6034  003EE4  EF7A  F01F         	
  6035                           l3030:
  6036  003EE8                     	goto	l1105
  6037  003EE8  EF7A  F01F         	
  6038                           l1100:
  6039  003EEC                     	line	7
  6040                           	movff	(c:tolower@c),(c:?_tolower)
  6041  003EEC  C007  F007         	movff	(c:tolower@c+1),(c:?_tolower+1)
  6042  003EF0  C008  F008         	line	8
  6043                           	
  6044                           l1105:
  6045  003EF4                     	return	;funcret
  6046  003EF4  0012               	opt stack 0
  6047                           GLOBAL	__end_of_tolower
  6048                           	__end_of_tolower:
  6049  003EF6                     	signat	_tolower,4218
  6050                           	global	_isupper
  6051                           
  6052 ;; *************** function _isupper *****************
  6053 ;; Defined at:
  6054 ;;		line 5 in file "/opt/microchip/xc8/v2.00/pic/sources/c99/common/isupper.c"
  6055 ;; Parameters:    Size  Location     Type
  6056 ;;  c               2    0[COMRAM] int 
  6057 ;; Auto vars:     Size  Location     Type
  6058 ;;		None
  6059 ;; Return value:  Size  Location     Type
  6060 ;;                  2    0[COMRAM] int 
  6061 ;; Registers used:
  6062 ;;		wreg, status,2, status,0
  6063 ;; Tracked objects:
  6064 ;;		On entry : 0/0
  6065 ;;		On exit  : 0/0
  6066 ;;		Unchanged: 0/0
  6067 ;; Data sizes:     COMRAM   BANK0   BANK1   BANK2   BANK3   BANK4   BANK5   BANK6   BANK7
  6068 ;;      Params:         2       0       0       0       0       0       0       0       0
  6069 ;;      Locals:         0       0       0       0       0       0       0       0       0
  6070 ;;      Temps:          4       0       0       0       0       0       0       0       0
  6071 ;;      Totals:         6       0       0       0       0       0       0       0       0
  6072 ;;Total ram usage:        6 bytes
  6073 ;; Hardware stack levels used:    1
  6074 ;; This function calls:
  6075 ;;		Nothing
  6076 ;; This function is called by:
  6077 ;;		_efgtoa
  6078 ;;		_vfpfcnvrt
  6079 ;;		_tolower
  6080 ;; This function uses a non-reentrant model
  6081 ;;
  6082                           psect	text8,class=CODE,space=0,reloc=2,group=2
  6083                           	file	"/opt/microchip/xc8/v2.00/pic/sources/c99/common/isupper.c"
  6084                           	line	5
  6085                           global __ptext8
  6086                           __ptext8:
  6087  0041A4                     psect	text8
  6088                           	file	"/opt/microchip/xc8/v2.00/pic/sources/c99/common/isupper.c"
  6089                           	line	5
  6090                           	global	__size_of_isupper
  6091                           	__size_of_isupper	equ	__end_of_isupper-_isupper
  6092  0000                     	
  6093                           _isupper:
  6094  0041A4                     ;incstack = 0
  6095                           	opt	stack 26
  6096                           	line	7
  6097                           	
  6098                           l2768:
  6099  0041A4                     	movlw	low(0FFBFh)
  6100  0041A4  0EBF               	movwf	(??_isupper+0+0)&0ffh,c
  6101  0041A6  6E03               	movlw	high(0FFBFh)
  6102  0041A8  0EFF               	movwf	1+(??_isupper+0+0)&0ffh,c
  6103  0041AA  6E04               	movff	(c:isupper@c),??_isupper+2+0
  6104  0041AC  C001  F005         	movff	(c:isupper@c+1),??_isupper+2+0+1
  6105  0041B0  C002  F006         	movf	(??_isupper+0+0),c,w
  6106  0041B4  5003               	addwf	(??_isupper+2+0),c
  6107  0041B6  2605               	movf	(??_isupper+0+1),c,w
  6108  0041B8  5004               	addwfc	(??_isupper+2+1),c
  6109  0041BA  2206               		movf	(??_isupper+2+1),c,w
  6110  0041BC  5006               	bnz	u2610
  6111  0041BE  E10A               	movlw	26
  6112  0041C0  0E1A               	subwf	 (??_isupper+2+0),c,w
  6113  0041C2  5C05               	btfss	status,0
  6114  0041C4  A0D8               	goto	u2611
  6115  0041C6  EFE7  F020         	goto	u2610
  6116  0041CA  EFEA  F020         
  6117                           u2611:
  6118  0041CE                     	movlw	1
  6119  0041CE  0E01               	goto	u2620
  6120  0041D0  EFEB  F020         u2610:
  6121  0041D4                     	movlw	0
  6122  0041D4  0E00               u2620:
  6123  0041D6                     	movwf	((c:?_isupper)),c
  6124  0041D6  6E01               	clrf	((c:?_isupper+1)),c
  6125  0041D8  6A02               	goto	l1034
  6126  0041DA  EFEF  F020         	
  6127                           l2770:
  6128  0041DE                     	line	8
  6129                           	
  6130                           l1034:
  6131  0041DE                     	return	;funcret
  6132  0041DE  0012               	opt stack 0
  6133                           GLOBAL	__end_of_isupper
  6134                           	__end_of_isupper:
  6135  0041E0                     	signat	_isupper,4218
  6136                           	global	_strcpy
  6137                           
  6138 ;; *************** function _strcpy *****************
  6139 ;; Defined at:
  6140 ;;		line 7 in file "/opt/microchip/xc8/v2.00/pic/sources/c99/common/strcpy.c"
  6141 ;; Parameters:    Size  Location     Type
  6142 ;;  dest            2    6[COMRAM] PTR unsigned char 
  6143 ;;		 -> dbuf(80), main@data(10), 
  6144 ;;  src             2    8[COMRAM] PTR const unsigned char 
  6145 ;;		 -> STR_9(4), STR_8(4), STR_5(4), STR_4(4), 
  6146 ;;		 -> dbuf(80), STR_3(4), 
  6147 ;; Auto vars:     Size  Location     Type
  6148 ;;  d               2   14[COMRAM] PTR unsigned char 
  6149 ;;		 -> dbuf(80), main@data(10), 
  6150 ;;  s               2   12[COMRAM] PTR const unsigned char 
  6151 ;;		 -> STR_9(4), STR_8(4), STR_5(4), STR_4(4), 
  6152 ;;		 -> dbuf(80), STR_3(4), 
  6153 ;; Return value:  Size  Location     Type
  6154 ;;                  2    6[COMRAM] PTR unsigned char 
  6155 ;; Registers used:
  6156 ;;		wreg, fsr1l, fsr1h, fsr2l, fsr2h, status,2, status,0, tblptrl, tblptrh, tblptru
  6157 ;; Tracked objects:
  6158 ;;		On entry : 0/0
  6159 ;;		On exit  : 0/0
  6160 ;;		Unchanged: 0/0
  6161 ;; Data sizes:     COMRAM   BANK0   BANK1   BANK2   BANK3   BANK4   BANK5   BANK6   BANK7
  6162 ;;      Params:         4       0       0       0       0       0       0       0       0
  6163 ;;      Locals:         4       0       0       0       0       0       0       0       0
  6164 ;;      Temps:          2       0       0       0       0       0       0       0       0
  6165 ;;      Totals:        10       0       0       0       0       0       0       0       0
  6166 ;;Total ram usage:       10 bytes
  6167 ;; Hardware stack levels used:    1
  6168 ;; This function calls:
  6169 ;;		Nothing
  6170 ;; This function is called by:
  6171 ;;		_efgtoa
  6172 ;;		_strcat
  6173 ;; This function uses a non-reentrant model
  6174 ;;
  6175                           psect	text9,class=CODE,space=0,reloc=2,group=2
  6176                           	file	"/opt/microchip/xc8/v2.00/pic/sources/c99/common/strcpy.c"
  6177                           	line	7
  6178                           global __ptext9
  6179                           __ptext9:
  6180  003EF6                     psect	text9
  6181                           	file	"/opt/microchip/xc8/v2.00/pic/sources/c99/common/strcpy.c"
  6182                           	line	7
  6183                           	global	__size_of_strcpy
  6184                           	__size_of_strcpy	equ	__end_of_strcpy-_strcpy
  6185  0000                     	
  6186                           _strcpy:
  6187  003EF6                     ;incstack = 0
  6188                           	opt	stack 29
  6189                           	line	13
  6190                           	
  6191                           l3018:
  6192  003EF6                     		movff	(c:strcpy@src),(c:strcpy@s)
  6193  003EF6  C009  F00D         	movff	(c:strcpy@src+1),(c:strcpy@s+1)
  6194  003EFA  C00A  F00E         
  6195                           	line	14
  6196                           		movff	(c:strcpy@dest),(c:strcpy@d)
  6197  003EFE  C007  F00F         	movff	(c:strcpy@dest+1),(c:strcpy@d+1)
  6198  003F02  C008  F010         
  6199                           	line	15
  6200                           	goto	l3020
  6201  003F06  EF87  F01F         	
  6202                           l1078:
  6203  003F0A                     	goto	l3020
  6204  003F0A  EF87  F01F         	
  6205                           l1077:
  6206  003F0E                     	
  6207                           l3020:
  6208  003F0E                     	movf	((c:strcpy@s)),c,w
  6209  003F0E  500D               	movwf	(??_strcpy+0+0)&0ffh,c
  6210  003F10  6E0B               	movf	((c:strcpy@s+1)),c,w
  6211  003F12  500E               	movwf	1+(??_strcpy+0+0)&0ffh,c
  6212  003F14  6E0C               	infsnz	((c:strcpy@s)),c
  6213  003F16  4A0D               	incf	((c:strcpy@s+1)),c
  6214  003F18  2A0E               	movff	??_strcpy+0+0,tblptrl
  6215  003F1A  C00B  FFF6         	movff	??_strcpy+0+1,tblptrh
  6216  003F1E  C00C  FFF7         	clrf	tblptru
  6217  003F22  6AF8               	
  6218                           	movff	(c:strcpy@d),fsr2l
  6219  003F24  C00F  FFD9         	movff	(c:strcpy@d+1),fsr2h
  6220  003F28  C010  FFDA         	infsnz	((c:strcpy@d)),c
  6221  003F2C  4A0F               	incf	((c:strcpy@d+1)),c
  6222  003F2E  2A10               	movlw	high __ramtop-1
  6223  003F30  0E07               	cpfsgt	tblptrh
  6224  003F32  64F7               	bra	u3137
  6225  003F34  D003               	tblrd	*
  6226  003F36  0008               	
  6227                           	movf	tablat,w
  6228  003F38  50F5               	bra	u3130
  6229  003F3A  D005               u3137:
  6230  003F3C                     	movff	tblptrl,fsr1l
  6231  003F3C  CFF6 FFE1          	movff	tblptrh,fsr1h
  6232  003F40  CFF7 FFE2          	movf	indf1,w
  6233  003F44  50E7               u3130:
  6234  003F46                     	movwf	indf2
  6235  003F46  6EDF               	movf	indf2,w
  6236  003F48  50DF               	btfss	status,2
  6237  003F4A  A4D8               	goto	u3141
  6238  003F4C  EFAA  F01F         	goto	u3140
  6239  003F50  EFAC  F01F         u3141:
  6240  003F54                     	goto	l3020
  6241  003F54  EF87  F01F         u3140:
  6242  003F58                     	goto	l1080
  6243  003F58  EFAE  F01F         	
  6244                           l1079:
  6245  003F5C                     	line	18
  6246                           ;	Return value of _strcpy is never used
  6247                           	
  6248                           l1080:
  6249  003F5C                     	return	;funcret
  6250  003F5C  0012               	opt stack 0
  6251                           GLOBAL	__end_of_strcpy
  6252                           	__end_of_strcpy:
  6253  003F5E                     	signat	_strcpy,8314
  6254                           	global	_pad
  6255                           
  6256 ;; *************** function _pad *****************
  6257 ;; Defined at:
  6258 ;;		line 72 in file "/opt/microchip/xc8/v2.00/pic/sources/c99/common/doprnt.c"
  6259 ;; Parameters:    Size  Location     Type
  6260 ;;  fp              2   16[COMRAM] PTR struct _IO_FILE
  6261 ;;		 -> sprintf@f(6), 
  6262 ;;  buf             2   18[COMRAM] PTR unsigned char 
  6263 ;;		 -> dbuf(80), 
  6264 ;;  p               2   20[COMRAM] int 
  6265 ;; Auto vars:     Size  Location     Type
  6266 ;;  w               2   25[COMRAM] int 
  6267 ;;  i               2   23[COMRAM] int 
  6268 ;; Return value:  Size  Location     Type
  6269 ;;                  2   16[COMRAM] int 
  6270 ;; Registers used:
  6271 ;;		wreg, fsr1l, fsr1h, fsr2l, fsr2h, status,2, status,0, cstack
  6272 ;; Tracked objects:
  6273 ;;		On entry : 0/0
  6274 ;;		On exit  : 0/0
  6275 ;;		Unchanged: 0/0
  6276 ;; Data sizes:     COMRAM   BANK0   BANK1   BANK2   BANK3   BANK4   BANK5   BANK6   BANK7
  6277 ;;      Params:         6       0       0       0       0       0       0       0       0
  6278 ;;      Locals:         4       0       0       0       0       0       0       0       0
  6279 ;;      Temps:          1       0       0       0       0       0       0       0       0
  6280 ;;      Totals:        11       0       0       0       0       0       0       0       0
  6281 ;;Total ram usage:       11 bytes
  6282 ;; Hardware stack levels used:    1
  6283 ;; Hardware stack levels required when called:    3
  6284 ;; This function calls:
  6285 ;;		_fputc
  6286 ;;		_fputs
  6287 ;;		_strlen
  6288 ;; This function is called by:
  6289 ;;		_efgtoa
  6290 ;; This function uses a non-reentrant model
  6291 ;;
  6292                           psect	text10,class=CODE,space=0,reloc=2,group=0
  6293                           	file	"/opt/microchip/xc8/v2.00/pic/sources/c99/common/doprnt.c"
  6294                           	line	72
  6295                           global __ptext10
  6296                           __ptext10:
  6297  003ADC                     psect	text10
  6298                           	file	"/opt/microchip/xc8/v2.00/pic/sources/c99/common/doprnt.c"
  6299                           	line	72
  6300                           	global	__size_of_pad
  6301                           	__size_of_pad	equ	__end_of_pad-_pad
  6302  0000                     	
  6303                           _pad:
  6304  003ADC                     ;incstack = 0
  6305                           	opt	stack 23
  6306                           	line	77
  6307                           	
  6308                           l2974:
  6309  003ADC                     ;/opt/microchip/xc8/v2.00/pic/sources/c99/common/doprnt.c: 72: static int pad(FILE *fp, 
                                 char *buf, int p);/opt/microchip/xc8/v2.00/pic/sources/c99/common/doprnt.c: 73: {;/opt/m
                                 icrochip/xc8/v2.00/pic/sources/c99/common/doprnt.c: 74:     int i, w;;/opt/microchip/xc8
                                 /v2.00/pic/sources/c99/common/doprnt.c: 77:     if (flags & (1 << 0)) {
  6310                           	movlb	0	; () banked
  6311  003ADC  0100               	
  6312                           	btfss	((_flags))&0ffh,(0)&7
  6313  003ADE  A1C8               	goto	u3021
  6314  003AE0  EF74  F01D         	goto	u3020
  6315  003AE4  EF76  F01D         u3021:
  6316  003AE8                     	goto	l2978
  6317  003AE8  EF82  F01D         u3020:
  6318  003AEC                     	line	78
  6319                           	
  6320                           l2976:; BSR set to: 0
  6321  003AEC                     
  6322                           ;/opt/microchip/xc8/v2.00/pic/sources/c99/common/doprnt.c: 78:         fputs((const char
                                  *)buf, fp);
  6323                           		movff	(c:pad@buf),(c:fputs@s)
  6324  003AEC  C013  F00A         	movff	(c:pad@buf+1),(c:fputs@s+1)
  6325  003AF0  C014  F00B         
  6326                           		movff	(c:pad@fp),(c:fputs@fp)
  6327  003AF4  C011  F00C         	movff	(c:pad@fp+1),(c:fputs@fp+1)
  6328  003AF8  C012  F00D         
  6329                           	call	_fputs	;wreg free
  6330  003AFC  EC67  F020         	goto	l2978
  6331  003B00  EF82  F01D         	line	79
  6332                           ;/opt/microchip/xc8/v2.00/pic/sources/c99/common/doprnt.c: 79:     }
  6333                           	
  6334                           l157:
  6335  003B04                     	line	82
  6336                           	
  6337                           l2978:
  6338  003B04                     ;/opt/microchip/xc8/v2.00/pic/sources/c99/common/doprnt.c: 82:     w = (p < 0) ? 0 : p;

  6339                           	btfsc	((c:pad@p+1)),c,7
  6340  003B04  BE16               	goto	u3031
  6341  003B06  EF87  F01D         	goto	u3030
  6342  003B0A  EF89  F01D         
  6343                           u3031:
  6344  003B0E                     	goto	l2982
  6345  003B0E  EF8F  F01D         u3030:
  6346  003B12                     	
  6347                           l2980:
  6348  003B12                     	movff	(c:pad@p),(c:pad@w)
  6349  003B12  C015  F01A         	movff	(c:pad@p+1),(c:pad@w+1)
  6350  003B16  C016  F01B         	goto	l161
  6351  003B1A  EF93  F01D         	
  6352                           l159:
  6353  003B1E                     	
  6354                           l2982:
  6355  003B1E                     	movlw	high(0)
  6356  003B1E  0E00               	movwf	((c:pad@w+1)),c
  6357  003B20  6E1B               	movlw	low(0)
  6358  003B22  0E00               	movwf	((c:pad@w)),c
  6359  003B24  6E1A               	
  6360                           l161:
  6361  003B26                     	line	83
  6362                           ;/opt/microchip/xc8/v2.00/pic/sources/c99/common/doprnt.c: 83:     i = 0;
  6363                           	movlw	high(0)
  6364  003B26  0E00               	movwf	((c:pad@i+1)),c
  6365  003B28  6E19               	movlw	low(0)
  6366  003B2A  0E00               	movwf	((c:pad@i)),c
  6367  003B2C  6E18               	line	84
  6368                           ;/opt/microchip/xc8/v2.00/pic/sources/c99/common/doprnt.c: 84:     while (i < w) {
  6369                           	goto	l2988
  6370  003B2E  EFA7  F01D         	
  6371                           l163:
  6372  003B32                     	line	85
  6373                           	
  6374                           l2984:
  6375  003B32                     ;/opt/microchip/xc8/v2.00/pic/sources/c99/common/doprnt.c: 85:         fputc(' ', fp);
  6376                           	movlw	high(020h)
  6377  003B32  0E00               	movwf	((c:fputc@c+1)),c
  6378  003B34  6E02               	movlw	low(020h)
  6379  003B36  0E20               	movwf	((c:fputc@c)),c
  6380  003B38  6E01               		movff	(c:pad@fp),(c:fputc@fp)
  6381  003B3A  C011  F003         	movff	(c:pad@fp+1),(c:fputc@fp+1)
  6382  003B3E  C012  F004         
  6383                           	call	_fputc	;wreg free
  6384  003B42  EC93  F01C         	line	86
  6385                           	
  6386                           l2986:
  6387  003B46                     ;/opt/microchip/xc8/v2.00/pic/sources/c99/common/doprnt.c: 86:         ++i;
  6388                           	infsnz	((c:pad@i)),c
  6389  003B46  4A18               	incf	((c:pad@i+1)),c
  6390  003B48  2A19               	goto	l2988
  6391  003B4A  EFA7  F01D         	line	87
  6392                           ;/opt/microchip/xc8/v2.00/pic/sources/c99/common/doprnt.c: 87:     }
  6393                           	
  6394                           l162:
  6395  003B4E                     	line	84
  6396                           	
  6397                           l2988:
  6398  003B4E                     ;/opt/microchip/xc8/v2.00/pic/sources/c99/common/doprnt.c: 84:     while (i < w) {
  6399                           		movf	((c:pad@w)),c,w
  6400  003B4E  501A               	subwf	((c:pad@i)),c,w
  6401  003B50  5C18               	movf	((c:pad@i+1)),c,w
  6402  003B52  5019               	xorlw	80h
  6403  003B54  0A80               	movwf	(??_pad+0+0)&0ffh,c
  6404  003B56  6E17               	movf	((c:pad@w+1)),c,w
  6405  003B58  501B               	xorlw	80h
  6406  003B5A  0A80               	subwfb	(??_pad+0+0)&0ffh,c,w
  6407  003B5C  5817               	btfss	status,0
  6408  003B5E  A0D8               	goto	u3041
  6409  003B60  EFB4  F01D         	goto	u3040
  6410  003B64  EFB6  F01D         
  6411                           u3041:
  6412  003B68                     	goto	l2984
  6413  003B68  EF99  F01D         u3040:
  6414  003B6C                     	
  6415                           l164:
  6416  003B6C                     	line	90
  6417                           ;/opt/microchip/xc8/v2.00/pic/sources/c99/common/doprnt.c: 90:     if (!(flags & (1 << 0
                                 ))) {
  6418                           	movlb	0	; () banked
  6419  003B6C  0100               	
  6420                           	btfsc	((_flags))&0ffh,(0)&7
  6421  003B6E  B1C8               	goto	u3051
  6422  003B70  EFBC  F01D         	goto	u3050
  6423  003B74  EFBE  F01D         u3051:
  6424  003B78                     	goto	l2992
  6425  003B78  EFCA  F01D         u3050:
  6426  003B7C                     	line	91
  6427                           	
  6428                           l2990:; BSR set to: 0
  6429  003B7C                     
  6430                           ;/opt/microchip/xc8/v2.00/pic/sources/c99/common/doprnt.c: 91:         fputs((const char
                                  *)buf, fp);
  6431                           		movff	(c:pad@buf),(c:fputs@s)
  6432  003B7C  C013  F00A         	movff	(c:pad@buf+1),(c:fputs@s+1)
  6433  003B80  C014  F00B         
  6434                           		movff	(c:pad@fp),(c:fputs@fp)
  6435  003B84  C011  F00C         	movff	(c:pad@fp+1),(c:fputs@fp+1)
  6436  003B88  C012  F00D         
  6437                           	call	_fputs	;wreg free
  6438  003B8C  EC67  F020         	goto	l2992
  6439  003B90  EFCA  F01D         	line	92
  6440                           ;/opt/microchip/xc8/v2.00/pic/sources/c99/common/doprnt.c: 92:     }
  6441                           	
  6442                           l165:
  6443  003B94                     	line	94
  6444                           	
  6445                           l2992:
  6446  003B94                     ;/opt/microchip/xc8/v2.00/pic/sources/c99/common/doprnt.c: 94:     return strlen(buf) + 
                                 w;
  6447                           		movff	(c:pad@buf),(c:strlen@s)
  6448  003B94  C013  F001         	movff	(c:pad@buf+1),(c:strlen@s+1)
  6449  003B98  C014  F002         
  6450                           	call	_strlen	;wreg free
  6451  003B9C  EC3E  F020         	movf	((c:pad@w)),c,w
  6452  003BA0  501A               	addwf	(0+?_strlen),c,w
  6453  003BA2  2401               	movwf	((c:?_pad)),c
  6454  003BA4  6E11               	movf	((c:pad@w+1)),c,w
  6455  003BA6  501B               	addwfc	(1+?_strlen),c,w
  6456  003BA8  2002               	movwf	1+((c:?_pad)),c
  6457  003BAA  6E12               	goto	l166
  6458  003BAC  EFD8  F01D         	
  6459                           l2994:
  6460  003BB0                     	line	95
  6461                           	
  6462                           l166:
  6463  003BB0                     	return	;funcret
  6464  003BB0  0012               	opt stack 0
  6465                           GLOBAL	__end_of_pad
  6466                           	__end_of_pad:
  6467  003BB2                     	signat	_pad,12410
  6468                           	global	_strlen
  6469                           
  6470 ;; *************** function _strlen *****************
  6471 ;; Defined at:
  6472 ;;		line 12 in file "/opt/microchip/xc8/v2.00/pic/sources/c99/common/strlen.c"
  6473 ;; Parameters:    Size  Location     Type
  6474 ;;  s               2    0[COMRAM] PTR const unsigned char 
  6475 ;;		 -> dbuf(80), main@data(10), 
  6476 ;; Auto vars:     Size  Location     Type
  6477 ;;  a               2    4[COMRAM] PTR const unsigned char 
  6478 ;;		 -> dbuf(80), main@data(10), 
  6479 ;; Return value:  Size  Location     Type
  6480 ;;                  2    0[COMRAM] unsigned int 
  6481 ;; Registers used:
  6482 ;;		wreg, fsr2l, fsr2h, status,2, status,0
  6483 ;; Tracked objects:
  6484 ;;		On entry : 0/0
  6485 ;;		On exit  : 0/0
  6486 ;;		Unchanged: 0/0
  6487 ;; Data sizes:     COMRAM   BANK0   BANK1   BANK2   BANK3   BANK4   BANK5   BANK6   BANK7
  6488 ;;      Params:         2       0       0       0       0       0       0       0       0
  6489 ;;      Locals:         2       0       0       0       0       0       0       0       0
  6490 ;;      Temps:          2       0       0       0       0       0       0       0       0
  6491 ;;      Totals:         6       0       0       0       0       0       0       0       0
  6492 ;;Total ram usage:        6 bytes
  6493 ;; Hardware stack levels used:    1
  6494 ;; This function calls:
  6495 ;;		Nothing
  6496 ;; This function is called by:
  6497 ;;		_pad
  6498 ;;		_strcat
  6499 ;; This function uses a non-reentrant model
  6500 ;;
  6501                           psect	text11,class=CODE,space=0,reloc=2,group=2
  6502                           	file	"/opt/microchip/xc8/v2.00/pic/sources/c99/common/strlen.c"
  6503                           	line	12
  6504                           global __ptext11
  6505                           __ptext11:
  6506  00407C                     psect	text11
  6507                           	file	"/opt/microchip/xc8/v2.00/pic/sources/c99/common/strlen.c"
  6508                           	line	12
  6509                           	global	__size_of_strlen
  6510                           	__size_of_strlen	equ	__end_of_strlen-_strlen
  6511  0000                     	
  6512                           _strlen:
  6513  00407C                     ;incstack = 0
  6514                           	opt	stack 29
  6515                           	line	14
  6516                           	
  6517                           l2758:
  6518  00407C                     		movff	(c:strlen@s),(c:strlen@a)
  6519  00407C  C001  F005         	movff	(c:strlen@s+1),(c:strlen@a+1)
  6520  004080  C002  F006         
  6521                           	line	16
  6522                           	goto	l2762
  6523  004084  EF48  F020         	
  6524                           l1084:
  6525  004088                     	line	17
  6526                           	
  6527                           l2760:
  6528  004088                     	infsnz	((c:strlen@s)),c
  6529  004088  4A01               	incf	((c:strlen@s+1)),c
  6530  00408A  2A02               	goto	l2762
  6531  00408C  EF48  F020         	line	18
  6532                           	
  6533                           l1083:
  6534  004090                     	line	16
  6535                           	
  6536                           l2762:
  6537  004090                     	movff	(c:strlen@s),fsr2l
  6538  004090  C001  FFD9         	movff	(c:strlen@s+1),fsr2h
  6539  004094  C002  FFDA         	movf	indf2,w
  6540  004098  50DF               	btfss	status,2
  6541  00409A  A4D8               	goto	u2601
  6542  00409C  EF52  F020         	goto	u2600
  6543  0040A0  EF54  F020         u2601:
  6544  0040A4                     	goto	l2760
  6545  0040A4  EF44  F020         u2600:
  6546  0040A8                     	goto	l2764
  6547  0040A8  EF56  F020         	
  6548                           l1085:
  6549  0040AC                     	line	25
  6550                           	
  6551                           l2764:
  6552  0040AC                     	movff	(c:strlen@a),??_strlen+0+0
  6553  0040AC  C005  F003         	movff	(c:strlen@a+1),??_strlen+0+0+1
  6554  0040B0  C006  F004         	comf	(??_strlen+0+0),c
  6555  0040B4  1E03               	comf	(??_strlen+0+1),c
  6556  0040B6  1E04               	infsnz	(??_strlen+0+0),c
  6557  0040B8  4A03               	incf	(??_strlen+0+1),c
  6558  0040BA  2A04               	movf	((c:strlen@s)),c,w
  6559  0040BC  5001               	addwf	(??_strlen+0+0),c,w
  6560  0040BE  2403               	movwf	((c:?_strlen)),c
  6561  0040C0  6E01               	movf	((c:strlen@s+1)),c,w
  6562  0040C2  5002               	addwfc	(??_strlen+0+1),c,w
  6563  0040C4  2004               	movwf	1+((c:?_strlen)),c
  6564  0040C6  6E02               	goto	l1086
  6565  0040C8  EF66  F020         	
  6566                           l2766:
  6567  0040CC                     	line	26
  6568                           	
  6569                           l1086:
  6570  0040CC                     	return	;funcret
  6571  0040CC  0012               	opt stack 0
  6572                           GLOBAL	__end_of_strlen
  6573                           	__end_of_strlen:
  6574  0040CE                     	signat	_strlen,4218
  6575                           	global	_fputs
  6576                           
  6577 ;; *************** function _fputs *****************
  6578 ;; Defined at:
  6579 ;;		line 8 in file "/opt/microchip/xc8/v2.00/pic/sources/c99/common/nf_fputs.c"
  6580 ;; Parameters:    Size  Location     Type
  6581 ;;  s               2    9[COMRAM] PTR const unsigned char 
  6582 ;;		 -> dbuf(80), 
  6583 ;;  fp              2   11[COMRAM] PTR struct _IO_FILE
  6584 ;;		 -> sprintf@f(6), 
  6585 ;; Auto vars:     Size  Location     Type
  6586 ;;  i               2   14[COMRAM] int 
  6587 ;;  c               1   13[COMRAM] unsigned char 
  6588 ;; Return value:  Size  Location     Type
  6589 ;;                  2    9[COMRAM] int 
  6590 ;; Registers used:
  6591 ;;		wreg, fsr1l, fsr1h, fsr2l, fsr2h, status,2, status,0, cstack
  6592 ;; Tracked objects:
  6593 ;;		On entry : 0/0
  6594 ;;		On exit  : 0/0
  6595 ;;		Unchanged: 0/0
  6596 ;; Data sizes:     COMRAM   BANK0   BANK1   BANK2   BANK3   BANK4   BANK5   BANK6   BANK7
  6597 ;;      Params:         4       0       0       0       0       0       0       0       0
  6598 ;;      Locals:         3       0       0       0       0       0       0       0       0
  6599 ;;      Temps:          0       0       0       0       0       0       0       0       0
  6600 ;;      Totals:         7       0       0       0       0       0       0       0       0
  6601 ;;Total ram usage:        7 bytes
  6602 ;; Hardware stack levels used:    1
  6603 ;; Hardware stack levels required when called:    2
  6604 ;; This function calls:
  6605 ;;		_fputc
  6606 ;; This function is called by:
  6607 ;;		_pad
  6608 ;; This function uses a non-reentrant model
  6609 ;;
  6610                           psect	text12,class=CODE,space=0,reloc=2,group=2
  6611                           	file	"/opt/microchip/xc8/v2.00/pic/sources/c99/common/nf_fputs.c"
  6612                           	line	8
  6613                           global __ptext12
  6614                           __ptext12:
  6615  0040CE                     psect	text12
  6616                           	file	"/opt/microchip/xc8/v2.00/pic/sources/c99/common/nf_fputs.c"
  6617                           	line	8
  6618                           	global	__size_of_fputs
  6619                           	__size_of_fputs	equ	__end_of_fputs-_fputs
  6620  0000                     	
  6621                           _fputs:
  6622  0040CE                     ;incstack = 0
  6623                           	opt	stack 23
  6624                           	line	13
  6625                           	
  6626                           l2750:
  6627  0040CE                     	movlw	high(0)
  6628  0040CE  0E00               	movwf	((c:fputs@i+1)),c
  6629  0040D0  6E10               	movlw	low(0)
  6630  0040D2  0E00               	movwf	((c:fputs@i)),c
  6631  0040D4  6E0F               	line	14
  6632                           	goto	l2756
  6633  0040D6  EF7A  F020         	
  6634                           l1055:
  6635  0040DA                     	line	15
  6636                           	
  6637                           l2752:
  6638  0040DA                     	movff	(c:fputs@c),(c:fputc@c)
  6639  0040DA  C00E  F001         	clrf	((c:fputc@c+1)),c
  6640  0040DE  6A02               		movff	(c:fputs@fp),(c:fputc@fp)
  6641  0040E0  C00C  F003         	movff	(c:fputs@fp+1),(c:fputc@fp+1)
  6642  0040E4  C00D  F004         
  6643                           	call	_fputc	;wreg free
  6644  0040E8  EC93  F01C         	line	16
  6645                           	
  6646                           l2754:
  6647  0040EC                     	infsnz	((c:fputs@i)),c
  6648  0040EC  4A0F               	incf	((c:fputs@i+1)),c
  6649  0040EE  2A10               	goto	l2756
  6650  0040F0  EF7A  F020         	line	17
  6651                           	
  6652                           l1054:
  6653  0040F4                     	line	14
  6654                           	
  6655                           l2756:
  6656  0040F4                     	movf	((c:fputs@i)),c,w
  6657  0040F4  500F               	addwf	((c:fputs@s)),c,w
  6658  0040F6  240A               	movwf	c:fsr2l
  6659  0040F8  6ED9               	movf	((c:fputs@i+1)),c,w
  6660  0040FA  5010               	addwfc	((c:fputs@s+1)),c,w
  6661  0040FC  200B               	movwf	1+c:fsr2l
  6662  0040FE  6EDA               	movf	indf2,w
  6663  004100  50DF               	movwf	((c:fputs@c)),c
  6664  004102  6E0E               	movf	((c:fputs@c)),c,w
  6665  004104  500E               	btfss	status,2
  6666  004106  A4D8               	goto	u2591
  6667  004108  EF88  F020         	goto	u2590
  6668  00410C  EF8A  F020         u2591:
  6669  004110                     	goto	l2752
  6670  004110  EF6D  F020         u2590:
  6671  004114                     	goto	l1057
  6672  004114  EF8C  F020         	
  6673                           l1056:
  6674  004118                     	line	19
  6675                           ;	Return value of _fputs is never used
  6676                           	
  6677                           l1057:
  6678  004118                     	return	;funcret
  6679  004118  0012               	opt stack 0
  6680                           GLOBAL	__end_of_fputs
  6681                           	__end_of_fputs:
  6682  00411A                     	signat	_fputs,8314
  6683                           	global	_fputc
  6684                           
  6685 ;; *************** function _fputc *****************
  6686 ;; Defined at:
  6687 ;;		line 8 in file "/opt/microchip/xc8/v2.00/pic/sources/c99/common/nf_fputc.c"
  6688 ;; Parameters:    Size  Location     Type
  6689 ;;  c               2    0[COMRAM] int 
  6690 ;;  fp              2    2[COMRAM] PTR struct _IO_FILE
  6691 ;;		 -> sprintf@f(6), 
  6692 ;; Auto vars:     Size  Location     Type
  6693 ;;		None
  6694 ;; Return value:  Size  Location     Type
  6695 ;;                  2    0[COMRAM] int 
  6696 ;; Registers used:
  6697 ;;		wreg, fsr1l, fsr1h, fsr2l, fsr2h, status,2, status,0, cstack
  6698 ;; Tracked objects:
  6699 ;;		On entry : 0/0
  6700 ;;		On exit  : 0/0
  6701 ;;		Unchanged: 0/0
  6702 ;; Data sizes:     COMRAM   BANK0   BANK1   BANK2   BANK3   BANK4   BANK5   BANK6   BANK7
  6703 ;;      Params:         4       0       0       0       0       0       0       0       0
  6704 ;;      Locals:         0       0       0       0       0       0       0       0       0
  6705 ;;      Temps:          5       0       0       0       0       0       0       0       0
  6706 ;;      Totals:         9       0       0       0       0       0       0       0       0
  6707 ;;Total ram usage:        9 bytes
  6708 ;; Hardware stack levels used:    1
  6709 ;; Hardware stack levels required when called:    1
  6710 ;; This function calls:
  6711 ;;		_putch
  6712 ;; This function is called by:
  6713 ;;		_pad
  6714 ;;		_vfpfcnvrt
  6715 ;;		_fputs
  6716 ;; This function uses a non-reentrant model
  6717 ;;
  6718                           psect	text13,class=CODE,space=0,reloc=2,group=2
  6719                           	file	"/opt/microchip/xc8/v2.00/pic/sources/c99/common/nf_fputc.c"
  6720                           	line	8
  6721                           global __ptext13
  6722                           __ptext13:
  6723  003926                     psect	text13
  6724                           	file	"/opt/microchip/xc8/v2.00/pic/sources/c99/common/nf_fputc.c"
  6725                           	line	8
  6726                           	global	__size_of_fputc
  6727                           	__size_of_fputc	equ	__end_of_fputc-_fputc
  6728  0000                     	
  6729                           _fputc:
  6730  003926                     ;incstack = 0
  6731                           	opt	stack 26
  6732                           	line	12
  6733                           	
  6734                           l2736:
  6735  003926                     	movf	((c:fputc@fp)),c,w
  6736  003926  5003               iorwf	((c:fputc@fp+1)),c,w
  6737  003928  1004               	btfsc	status,2
  6738  00392A  B4D8               	goto	u2551
  6739  00392C  EF9A  F01C         	goto	u2550
  6740  003930  EF9C  F01C         
  6741                           u2551:
  6742  003934                     	goto	l2740
  6743  003934  EFA7  F01C         u2550:
  6744  003938                     	
  6745                           l2738:
  6746  003938                     	movf	((c:fputc@fp)),c,w
  6747  003938  5003               iorwf	((c:fputc@fp+1)),c,w
  6748  00393A  1004               	btfss	status,2
  6749  00393C  A4D8               	goto	u2561
  6750  00393E  EFA3  F01C         	goto	u2560
  6751  003942  EFA5  F01C         
  6752                           u2561:
  6753  003946                     	goto	l2742
  6754  003946  EFAC  F01C         u2560:
  6755  00394A                     	goto	l2740
  6756  00394A  EFA7  F01C         	
  6757                           l1044:
  6758  00394E                     	line	13
  6759                           	
  6760                           l2740:
  6761  00394E                     	movf	((c:fputc@c)),c,w
  6762  00394E  5001               	
  6763                           	call	_putch
  6764  003950  EC6C  F021         	line	14
  6765                           	goto	l1049
  6766  003954  EF01  F01D         	
  6767                           l1042:
  6768  003958                     	line	15
  6769                           	
  6770                           l2742:
  6771  003958                     	lfsr	2,04h
  6772  003958  EE20 F004          	movf	((c:fputc@fp)),c,w
  6773  00395C  5003               	addwf	fsr2l
  6774  00395E  26D9               	movf	((c:fputc@fp+1)),c,w
  6775  003960  5004               	addwfc	fsr2h
  6776  003962  22DA               	movf	postinc2,w
  6777  003964  50DE               iorwf	postinc2,w
  6778  003966  10DE               	btfsc	status,2
  6779  003968  B4D8               	goto	u2571
  6780  00396A  EFB9  F01C         	goto	u2570
  6781  00396E  EFBB  F01C         
  6782                           u2571:
  6783  003972                     	goto	l2746
  6784  003972  EFD8  F01C         u2570:
  6785  003976                     	
  6786                           l2744:
  6787  003976                     	lfsr	2,04h
  6788  003976  EE20 F004          	movf	((c:fputc@fp)),c,w
  6789  00397A  5003               	addwf	fsr2l
  6790  00397C  26D9               	movf	((c:fputc@fp+1)),c,w
  6791  00397E  5004               	addwfc	fsr2h
  6792  003980  22DA               	lfsr	1,02h
  6793  003982  EE10 F002          	movf	((c:fputc@fp)),c,w
  6794  003986  5003               	addwf	fsr1l
  6795  003988  26E1               	movf	((c:fputc@fp+1)),c,w
  6796  00398A  5004               	addwfc	fsr1h
  6797  00398C  22E2               		movf	postinc2,w
  6798  00398E  50DE               	subwf	postinc1,w
  6799  003990  5CE6               	movf	postinc1,w
  6800  003992  50E6               	xorlw	80h
  6801  003994  0A80               	movwf	(??_fputc+4+0)&0ffh,c
  6802  003996  6E09               	movf	postinc2,w
  6803  003998  50DE               	xorlw	80h
  6804  00399A  0A80               	subwfb	(??_fputc+4+0)&0ffh,c,w
  6805  00399C  5809               	btfsc	status,0
  6806  00399E  B0D8               	goto	u2581
  6807  0039A0  EFD4  F01C         	goto	u2580
  6808  0039A4  EFD6  F01C         
  6809                           u2581:
  6810  0039A8                     	goto	l1049
  6811  0039A8  EF01  F01D         u2580:
  6812  0039AC                     	goto	l2746
  6813  0039AC  EFD8  F01C         	
  6814                           l1048:
  6815  0039B0                     	line	16
  6816                           	
  6817                           l2746:
  6818  0039B0                     	lfsr	2,02h
  6819  0039B0  EE20 F002          	movf	((c:fputc@fp)),c,w
  6820  0039B4  5003               	addwf	fsr2l
  6821  0039B6  26D9               	movf	((c:fputc@fp+1)),c,w
  6822  0039B8  5004               	addwfc	fsr2h
  6823  0039BA  22DA               	movff	postinc2,??_fputc+0+0
  6824  0039BC  CFDE F005          	movff	postdec2,??_fputc+0+0+1
  6825  0039C0  CFDD F006          	movff	(c:fputc@fp),fsr2l
  6826  0039C4  C003  FFD9         	movff	(c:fputc@fp+1),fsr2h
  6827  0039C8  C004  FFDA         	movff	postinc2,??_fputc+2+0
  6828  0039CC  CFDE F007          	movff	postdec2,??_fputc+2+0+1
  6829  0039D0  CFDD F008          	movf	(??_fputc+0+0),c,w
  6830  0039D4  5005               	addwf	(??_fputc+2+0),c,w
  6831  0039D6  2407               	movwf	c:fsr2l
  6832  0039D8  6ED9               	movf	(??_fputc+0+1),c,w
  6833  0039DA  5006               	addwfc	(??_fputc+2+1),c,w
  6834  0039DC  2008               	movwf	1+c:fsr2l
  6835  0039DE  6EDA               	movff	(c:fputc@c),indf2
  6836  0039E0  C001  FFDF         
  6837                           	line	17
  6838                           	lfsr	2,02h
  6839  0039E4  EE20 F002          	movf	((c:fputc@fp)),c,w
  6840  0039E8  5003               	addwf	fsr2l
  6841  0039EA  26D9               	movf	((c:fputc@fp+1)),c,w
  6842  0039EC  5004               	addwfc	fsr2h
  6843  0039EE  22DA               	incf	postinc2
  6844  0039F0  2ADE               	movlw	0
  6845  0039F2  0E00               	addwfc	postdec2
  6846  0039F4  22DD               	goto	l1049
  6847  0039F6  EF01  F01D         	line	18
  6848                           	
  6849                           l1046:
  6850  0039FA                     	goto	l1049
  6851  0039FA  EF01  F01D         	line	19
  6852                           	
  6853                           l1045:
  6854  0039FE                     	goto	l1049
  6855  0039FE  EF01  F01D         	line	20
  6856                           	
  6857                           l2748:
  6858  003A02                     	line	21
  6859                           ;	Return value of _fputc is never used
  6860                           	
  6861                           l1049:
  6862  003A02                     	return	;funcret
  6863  003A02  0012               	opt stack 0
  6864                           GLOBAL	__end_of_fputc
  6865                           	__end_of_fputc:
  6866  003A04                     	signat	_fputc,8314
  6867                           	global	_putch
  6868                           
  6869 ;; *************** function _putch *****************
  6870 ;; Defined at:
  6871 ;;		line 7 in file "/opt/microchip/xc8/v2.00/pic/sources/c99/common/putch.c"
  6872 ;; Parameters:    Size  Location     Type
  6873 ;;  c               1    wreg     unsigned char 
  6874 ;; Auto vars:     Size  Location     Type
  6875 ;;  c               1    0[COMRAM] unsigned char 
  6876 ;; Return value:  Size  Location     Type
  6877 ;;                  1    wreg      void 
  6878 ;; Registers used:
  6879 ;;		wreg
  6880 ;; Tracked objects:
  6881 ;;		On entry : 0/0
  6882 ;;		On exit  : 0/0
  6883 ;;		Unchanged: 0/0
  6884 ;; Data sizes:     COMRAM   BANK0   BANK1   BANK2   BANK3   BANK4   BANK5   BANK6   BANK7
  6885 ;;      Params:         0       0       0       0       0       0       0       0       0
  6886 ;;      Locals:         0       0       0       0       0       0       0       0       0
  6887 ;;      Temps:          0       0       0       0       0       0       0       0       0
  6888 ;;      Totals:         0       0       0       0       0       0       0       0       0
  6889 ;;Total ram usage:        0 bytes
  6890 ;; Hardware stack levels used:    1
  6891 ;; This function calls:
  6892 ;;		Nothing
  6893 ;; This function is called by:
  6894 ;;		_fputc
  6895 ;; This function uses a non-reentrant model
  6896 ;;
  6897                           psect	text14,class=CODE,space=0,reloc=2,group=2
  6898                           	file	"/opt/microchip/xc8/v2.00/pic/sources/c99/common/putch.c"
  6899                           	line	7
  6900                           global __ptext14
  6901                           __ptext14:
  6902  0042D8                     psect	text14
  6903                           	file	"/opt/microchip/xc8/v2.00/pic/sources/c99/common/putch.c"
  6904                           	line	7
  6905                           	global	__size_of_putch
  6906                           	__size_of_putch	equ	__end_of_putch-_putch
  6907  0000                     	
  6908                           _putch:
  6909  0042D8                     ;incstack = 0
  6910                           	opt	stack 26
  6911                           	line	9
  6912                           	
  6913                           l1067:
  6914  0042D8                     	return	;funcret
  6915  0042D8  0012               	opt stack 0
  6916                           GLOBAL	__end_of_putch
  6917                           	__end_of_putch:
  6918  0042DA                     	signat	_putch,4217
  6919                           	global	_floorf
  6920                           
  6921 ;; *************** function _floorf *****************
  6922 ;; Defined at:
  6923 ;;		line 3 in file "/opt/microchip/xc8/v2.00/pic/sources/c99/common/floorf.c"
  6924 ;; Parameters:    Size  Location     Type
  6925 ;;  x               4   25[COMRAM] float 
  6926 ;; Auto vars:     Size  Location     Type
  6927 ;;  u               4   41[COMRAM] struct .
  6928 ;;  m               4   35[COMRAM] unsigned long 
  6929 ;;  e               2   39[COMRAM] int 
  6930 ;; Return value:  Size  Location     Type
  6931 ;;                  4   25[COMRAM] float 
  6932 ;; Registers used:
  6933 ;;		wreg, status,2, status,0
  6934 ;; Tracked objects:
  6935 ;;		On entry : 0/0
  6936 ;;		On exit  : 0/0
  6937 ;;		Unchanged: 0/0
  6938 ;; Data sizes:     COMRAM   BANK0   BANK1   BANK2   BANK3   BANK4   BANK5   BANK6   BANK7
  6939 ;;      Params:         4       0       0       0       0       0       0       0       0
  6940 ;;      Locals:        10       0       0       0       0       0       0       0       0
  6941 ;;      Temps:          6       0       0       0       0       0       0       0       0
  6942 ;;      Totals:        20       0       0       0       0       0       0       0       0
  6943 ;;Total ram usage:       20 bytes
  6944 ;; Hardware stack levels used:    1
  6945 ;; This function calls:
  6946 ;;		Nothing
  6947 ;; This function is called by:
  6948 ;;		_efgtoa
  6949 ;; This function uses a non-reentrant model
  6950 ;;
  6951                           psect	text15,class=CODE,space=0,reloc=2,group=2
  6952                           	file	"/opt/microchip/xc8/v2.00/pic/sources/c99/common/floorf.c"
  6953                           	line	3
  6954                           global __ptext15
  6955                           __ptext15:
  6956  002870                     psect	text15
  6957                           	file	"/opt/microchip/xc8/v2.00/pic/sources/c99/common/floorf.c"
  6958                           	line	3
  6959                           	global	__size_of_floorf
  6960                           	__size_of_floorf	equ	__end_of_floorf-_floorf
  6961  0000                     	
  6962                           _floorf:
  6963  002870                     ;incstack = 0
  6964                           	opt	stack 26
  6965                           	line	5
  6966                           	
  6967                           l3032:
  6968  002870                     	movff	(floorf@F520),(c:floorf@u)
  6969  002870  C0BA  F02A         	movff	(floorf@F520+1),(c:floorf@u+1)
  6970  002874  C0BB  F02B         	movff	(floorf@F520+2),(c:floorf@u+2)
  6971  002878  C0BC  F02C         	movff	(floorf@F520+3),(c:floorf@u+3)
  6972  00287C  C0BD  F02D         	movff	(c:floorf@x),(c:floorf@u)
  6973  002880  C01A  F02A         	movff	(c:floorf@x+1),(c:floorf@u+1)
  6974  002884  C01B  F02B         	movff	(c:floorf@x+2),(c:floorf@u+2)
  6975  002888  C01C  F02C         	movff	(c:floorf@x+3),(c:floorf@u+3)
  6976  00288C  C01D  F02D         	line	6
  6977                           	
  6978                           l3034:
  6979  002890                     	movlw	low(-127)
  6980  002890  0E81               	movwf	(??_floorf+0+0)&0ffh,c
  6981  002892  6E1E               	movlw	high(-127)
  6982  002894  0EFF               	movwf	1+(??_floorf+0+0)&0ffh,c
  6983  002896  6E1F               	movff	(c:floorf@u),??_floorf+2+0
  6984  002898  C02A  F020         	movff	(c:floorf@u+1),??_floorf+2+0+1
  6985  00289C  C02B  F021         	movff	(c:floorf@u+2),??_floorf+2+0+2
  6986  0028A0  C02C  F022         	movff	(c:floorf@u+3),??_floorf+2+0+3
  6987  0028A4  C02D  F023         	movlw	017h+1
  6988  0028A8  0E18               	goto	u3180
  6989  0028AA  EF5C  F014         u3185:
  6990  0028AE                     	bcf	status,0
  6991  0028AE  90D8               	rrcf	(??_floorf+2+3),c
  6992  0028B0  3223               	rrcf	(??_floorf+2+2),c
  6993  0028B2  3222               	rrcf	(??_floorf+2+1),c
  6994  0028B4  3221               	rrcf	(??_floorf+2+0),c
  6995  0028B6  3220               u3180:
  6996  0028B8                     	decfsz	wreg
  6997  0028B8  2EE8               	goto	u3185
  6998  0028BA  EF57  F014         	movf	(??_floorf+2+0),c,w
  6999  0028BE  5020               	addwf	(??_floorf+0+0),c,w
  7000  0028C0  241E               	movwf	((c:floorf@e)),c
  7001  0028C2  6E28               	movlw	0
  7002  0028C4  0E00               	addwfc	(??_floorf+0+1),c,w
  7003  0028C6  201F               	movwf	1+((c:floorf@e)),c
  7004  0028C8  6E29               	line	9
  7005                           	btfsc	((c:floorf@e+1)),c,7
  7006  0028CA  BE29               	goto	u3191
  7007  0028CC  EF71  F014         	movf	((c:floorf@e+1)),c,w
  7008  0028D0  5029               	bnz	u3190
  7009  0028D2  E109               	movlw	23
  7010  0028D4  0E17               	subwf	 ((c:floorf@e)),c,w
  7011  0028D6  5C28               	btfss	status,0
  7012  0028D8  A0D8               	goto	u3191
  7013  0028DA  EF71  F014         	goto	u3190
  7014  0028DE  EF73  F014         
  7015                           u3191:
  7016  0028E2                     	goto	l3038
  7017  0028E2  EF7D  F014         u3190:
  7018  0028E6                     	line	10
  7019                           	
  7020                           l3036:
  7021  0028E6                     	movff	(c:floorf@x),(c:?_floorf)
  7022  0028E6  C01A  F01A         	movff	(c:floorf@x+1),(c:?_floorf+1)
  7023  0028EA  C01B  F01B         	movff	(c:floorf@x+2),(c:?_floorf+2)
  7024  0028EE  C01C  F01C         	movff	(c:floorf@x+3),(c:?_floorf+3)
  7025  0028F2  C01D  F01D         	goto	l1010
  7026  0028F6  EF50  F015         	
  7027                           l1009:
  7028  0028FA                     	line	11
  7029                           	
  7030                           l3038:
  7031  0028FA                     	btfsc	((c:floorf@e+1)),c,7
  7032  0028FA  BE29               	goto	u3201
  7033  0028FC  EF82  F014         	goto	u3200
  7034  002900  EF84  F014         
  7035                           u3201:
  7036  002904                     	goto	l3048
  7037  002904  EFFC  F014         u3200:
  7038  002908                     	line	12
  7039                           	
  7040                           l3040:
  7041  002908                     	movff	(c:floorf@e),??_floorf+0+0
  7042  002908  C028  F01E         	movlw	0FFh
  7043  00290C  0EFF               	movwf	(??_floorf+1+0)&0ffh,c
  7044  00290E  6E1F               	movlw	0FFh
  7045  002910  0EFF               	movwf	(??_floorf+1+0+1)&0ffh,c
  7046  002912  6E20               	movlw	07Fh
  7047  002914  0E7F               	movwf	(??_floorf+1+0+2)&0ffh,c
  7048  002916  6E21               	movlw	0
  7049  002918  0E00               	movwf	(??_floorf+1+0+3)&0ffh,c
  7050  00291A  6E22               u3215:
  7051  00291C                     	tstfsz	(??_floorf+0+0),c
  7052  00291C  661E               	goto	u3216
  7053  00291E  EF93  F014         	goto	u3217
  7054  002922  EF9B  F014         	u3216:
  7055  002926                     	rlcf	(??_floorf+1+3),c,w
  7056  002926  3422               	rrcf	(??_floorf+1+3),c
  7057  002928  3222               	rrcf	(??_floorf+1+2),c
  7058  00292A  3221               	rrcf	(??_floorf+1+1),c
  7059  00292C  3220               	rrcf	(??_floorf+1+0),c
  7060  00292E  321F               	decfsz	(??_floorf+0+0),c
  7061  002930  2E1E               	goto	u3215
  7062  002932  EF8E  F014         	u3217:
  7063  002936                     	
  7064                           	movff	??_floorf+1+0,(c:floorf@m)
  7065  002936  C01F  F024         	movff	??_floorf+1+1,(c:floorf@m+1)
  7066  00293A  C020  F025         	movff	??_floorf+1+2,(c:floorf@m+2)
  7067  00293E  C021  F026         	movff	??_floorf+1+3,(c:floorf@m+3)
  7068  002942  C022  F027         	line	13
  7069                           	movf	((c:floorf@m)),c,w
  7070  002946  5024               	andwf	((c:floorf@u)),c,w
  7071  002948  142A               	movwf	(??_floorf+0+0)&0ffh,c
  7072  00294A  6E1E               	movf	((c:floorf@m+1)),c,w
  7073  00294C  5025               	andwf	((c:floorf@u+1)),c,w
  7074  00294E  142B               	movwf	1+(??_floorf+0+0)&0ffh,c
  7075  002950  6E1F               	
  7076                           	movf	((c:floorf@m+2)),c,w
  7077  002952  5026               	andwf	((c:floorf@u+2)),c,w
  7078  002954  142C               	movwf	2+(??_floorf+0+0)&0ffh,c
  7079  002956  6E20               	
  7080                           	movf	((c:floorf@m+3)),c,w
  7081  002958  5027               	andwf	((c:floorf@u+3)),c,w
  7082  00295A  142D               	movwf	3+(??_floorf+0+0)&0ffh,c
  7083  00295C  6E21               	movf	(??_floorf+0+0),c,w
  7084  00295E  501E               iorwf	(??_floorf+0+1),c,w
  7085  002960  101F               iorwf	(??_floorf+0+2),c,w
  7086  002962  1020               iorwf	(??_floorf+0+3),c,w
  7087  002964  1021               	btfss	status,2
  7088  002966  A4D8               	goto	u3221
  7089  002968  EFB8  F014         	goto	u3220
  7090  00296C  EFBA  F014         
  7091                           u3221:
  7092  002970                     	goto	l3044
  7093  002970  EFC4  F014         u3220:
  7094  002974                     	line	14
  7095                           	
  7096                           l3042:
  7097  002974                     	movff	(c:floorf@x),(c:?_floorf)
  7098  002974  C01A  F01A         	movff	(c:floorf@x+1),(c:?_floorf+1)
  7099  002978  C01B  F01B         	movff	(c:floorf@x+2),(c:?_floorf+2)
  7100  00297C  C01C  F01C         	movff	(c:floorf@x+3),(c:?_floorf+3)
  7101  002980  C01D  F01D         	goto	l1010
  7102  002984  EF50  F015         	
  7103                           l1012:
  7104  002988                     	line	16
  7105                           	
  7106                           l3044:
  7107  002988                     	movff	(c:floorf@u),??_floorf+0+0
  7108  002988  C02A  F01E         	movff	(c:floorf@u+1),??_floorf+0+0+1
  7109  00298C  C02B  F01F         	movff	(c:floorf@u+2),??_floorf+0+0+2
  7110  002990  C02C  F020         	movff	(c:floorf@u+3),??_floorf+0+0+3
  7111  002994  C02D  F021         	movlw	01Fh+1
  7112  002998  0E20               	goto	u3230
  7113  00299A  EFD4  F014         u3235:
  7114  00299E                     	bcf	status,0
  7115  00299E  90D8               	rrcf	(??_floorf+0+3),c
  7116  0029A0  3221               	rrcf	(??_floorf+0+2),c
  7117  0029A2  3220               	rrcf	(??_floorf+0+1),c
  7118  0029A4  321F               	rrcf	(??_floorf+0+0),c
  7119  0029A6  321E               u3230:
  7120  0029A8                     	decfsz	wreg
  7121  0029A8  2EE8               	goto	u3235
  7122  0029AA  EFCF  F014         	movf	(??_floorf+0+0),c,w
  7123  0029AE  501E               iorwf	(??_floorf+0+1),c,w
  7124  0029B0  101F               iorwf	(??_floorf+0+2),c,w
  7125  0029B2  1020               iorwf	(??_floorf+0+3),c,w
  7126  0029B4  1021               	btfsc	status,2
  7127  0029B6  B4D8               	goto	u3241
  7128  0029B8  EFE0  F014         	goto	u3240
  7129  0029BC  EFE2  F014         
  7130                           u3241:
  7131  0029C0                     	goto	l1013
  7132  0029C0  EFEA  F014         u3240:
  7133  0029C4                     	line	17
  7134                           	
  7135                           l3046:
  7136  0029C4                     	movf	((c:floorf@m)),c,w
  7137  0029C4  5024               	addwf	((c:floorf@u)),c
  7138  0029C6  262A               	movf	((c:floorf@m+1)),c,w
  7139  0029C8  5025               	addwfc	((c:floorf@u+1)),c
  7140  0029CA  222B               	movf	((c:floorf@m+2)),c,w
  7141  0029CC  5026               	addwfc	((c:floorf@u+2)),c
  7142  0029CE  222C               	movf	((c:floorf@m+3)),c,w
  7143  0029D0  5027               	addwfc	((c:floorf@u+3)),c
  7144  0029D2  222D               	
  7145                           l1013:
  7146  0029D4                     	line	18
  7147                           	comf	((c:floorf@m)),c,w
  7148  0029D4  1C24               
  7149                           	movwf	(??_floorf+0+0)&0ffh,c
  7150  0029D6  6E1E               	comf	((c:floorf@m+1)),c,w
  7151  0029D8  1C25               	movwf	1+(??_floorf+0+0)&0ffh,c
  7152  0029DA  6E1F               	
  7153                           	comf	((c:floorf@m+2)),c,w
  7154  0029DC  1C26               	movwf	2+(??_floorf+0+0)&0ffh,c
  7155  0029DE  6E20               	
  7156                           	comf	((c:floorf@m+3)),c,w
  7157  0029E0  1C27               	movwf	3+(??_floorf+0+0)&0ffh,c
  7158  0029E2  6E21               	
  7159                           	movf	(??_floorf+0+0),c,w
  7160  0029E4  501E               	andwf	((c:floorf@u)),c
  7161  0029E6  162A               	movf	(??_floorf+0+1),c,w
  7162  0029E8  501F               	andwf	((c:floorf@u+1)),c
  7163  0029EA  162B               	movf	(??_floorf+0+2),c,w
  7164  0029EC  5020               	andwf	((c:floorf@u+2)),c
  7165  0029EE  162C               	movf	(??_floorf+0+3),c,w
  7166  0029F0  5021               	andwf	((c:floorf@u+3)),c
  7167  0029F2  162D               
  7168                           	line	19
  7169                           	goto	l3056
  7170  0029F4  EF46  F015         	
  7171                           l1011:
  7172  0029F8                     	line	21
  7173                           	
  7174                           l3048:
  7175  0029F8                     	movff	(c:floorf@u),??_floorf+0+0
  7176  0029F8  C02A  F01E         	movff	(c:floorf@u+1),??_floorf+0+0+1
  7177  0029FC  C02B  F01F         	movff	(c:floorf@u+2),??_floorf+0+0+2
  7178  002A00  C02C  F020         	movff	(c:floorf@u+3),??_floorf+0+0+3
  7179  002A04  C02D  F021         	movlw	01Fh+1
  7180  002A08  0E20               	goto	u3250
  7181  002A0A  EF0C  F015         u3255:
  7182  002A0E                     	bcf	status,0
  7183  002A0E  90D8               	rrcf	(??_floorf+0+3),c
  7184  002A10  3221               	rrcf	(??_floorf+0+2),c
  7185  002A12  3220               	rrcf	(??_floorf+0+1),c
  7186  002A14  321F               	rrcf	(??_floorf+0+0),c
  7187  002A16  321E               u3250:
  7188  002A18                     	decfsz	wreg
  7189  002A18  2EE8               	goto	u3255
  7190  002A1A  EF07  F015         	movf	(??_floorf+0+0),c,w
  7191  002A1E  501E               iorwf	(??_floorf+0+1),c,w
  7192  002A20  101F               iorwf	(??_floorf+0+2),c,w
  7193  002A22  1020               iorwf	(??_floorf+0+3),c,w
  7194  002A24  1021               	btfss	status,2
  7195  002A26  A4D8               	goto	u3261
  7196  002A28  EF18  F015         	goto	u3260
  7197  002A2C  EF1A  F015         
  7198                           u3261:
  7199  002A30                     	goto	l3052
  7200  002A30  EF24  F015         u3260:
  7201  002A34                     	line	22
  7202                           	
  7203                           l3050:
  7204  002A34                     	movlw	low(0)
  7205  002A34  0E00               	movwf	((c:floorf@u)),c
  7206  002A36  6E2A               	movlw	high(0)
  7207  002A38  0E00               	movwf	((c:floorf@u+1)),c
  7208  002A3A  6E2B               	movlw	low highword(0)
  7209  002A3C  0E00               	movwf	((c:floorf@u+2)),c
  7210  002A3E  6E2C               	movlw	high highword(0)
  7211  002A40  0E00               	movwf	((c:floorf@u+3)),c
  7212  002A42  6E2D               	goto	l3056
  7213  002A44  EF46  F015         	line	23
  7214                           	
  7215                           l1015:
  7216  002A48                     	
  7217                           l3052:
  7218  002A48                     	bcf	status,0
  7219  002A48  90D8               	rlcf	((c:floorf@u)),c,w
  7220  002A4A  342A               	movwf	(??_floorf+0+0)&0ffh,c
  7221  002A4C  6E1E               	rlcf	((c:floorf@u+1)),c,w
  7222  002A4E  342B               	movwf	1+(??_floorf+0+0)&0ffh,c
  7223  002A50  6E1F               	
  7224                           	rlcf	((c:floorf@u+2)),c,w
  7225  002A52  342C               	movwf	2+(??_floorf+0+0)&0ffh,c
  7226  002A54  6E20               	
  7227                           	rlcf	((c:floorf@u+3)),c,w
  7228  002A56  342D               	movwf	3+(??_floorf+0+0)&0ffh,c
  7229  002A58  6E21               	movf	(??_floorf+0+0),c,w
  7230  002A5A  501E               iorwf	(??_floorf+0+1),c,w
  7231  002A5C  101F               iorwf	(??_floorf+0+2),c,w
  7232  002A5E  1020               iorwf	(??_floorf+0+3),c,w
  7233  002A60  1021               	btfsc	status,2
  7234  002A62  B4D8               	goto	u3271
  7235  002A64  EF36  F015         	goto	u3270
  7236  002A68  EF38  F015         
  7237                           u3271:
  7238  002A6C                     	goto	l3056
  7239  002A6C  EF46  F015         u3270:
  7240  002A70                     	line	24
  7241                           	
  7242                           l3054:
  7243  002A70                     	movlw	low(normalize32(0xbf800000))
  7244  002A70  0E00               	movwf	((c:floorf@u)),c
  7245  002A72  6E2A               	movlw	high(normalize32(0xbf800000))
  7246  002A74  0E00               	movwf	((c:floorf@u+1)),c
  7247  002A76  6E2B               	movlw	low highword(normalize32(0xbf800000))
  7248  002A78  0E80               	movwf	((c:floorf@u+2)),c
  7249  002A7A  6E2C               	movlw	high highword(normalize32(0xbf800000))
  7250  002A7C  0EBF               	movwf	((c:floorf@u+3)),c
  7251  002A7E  6E2D               	goto	l3056
  7252  002A80  EF46  F015         	
  7253                           l1017:
  7254  002A84                     	goto	l3056
  7255  002A84  EF46  F015         	
  7256                           l1016:
  7257  002A88                     	goto	l3056
  7258  002A88  EF46  F015         	line	25
  7259                           	
  7260                           l1014:
  7261  002A8C                     	line	26
  7262                           	
  7263                           l3056:
  7264  002A8C                     	movff	(c:floorf@u),(c:?_floorf)
  7265  002A8C  C02A  F01A         	movff	(c:floorf@u+1),(c:?_floorf+1)
  7266  002A90  C02B  F01B         	movff	(c:floorf@u+2),(c:?_floorf+2)
  7267  002A94  C02C  F01C         	movff	(c:floorf@u+3),(c:?_floorf+3)
  7268  002A98  C02D  F01D         	goto	l1010
  7269  002A9C  EF50  F015         	
  7270                           l3058:
  7271  002AA0                     	line	27
  7272                           	
  7273                           l1010:
  7274  002AA0                     	return	;funcret
  7275  002AA0  0012               	opt stack 0
  7276                           GLOBAL	__end_of_floorf
  7277                           	__end_of_floorf:
  7278  002AA2                     	signat	_floorf,4220
  7279                           	global	___fpclassifyf
  7280                           
  7281 ;; *************** function ___fpclassifyf *****************
  7282 ;; Defined at:
  7283 ;;		line 4 in file "/opt/microchip/xc8/v2.00/pic/sources/c99/common/__fpclassifyf.c"
  7284 ;; Parameters:    Size  Location     Type
  7285 ;;  x               4    0[COMRAM] float 
  7286 ;; Auto vars:     Size  Location     Type
  7287 ;;  u               4   10[COMRAM] struct .
  7288 ;;  e               2    8[COMRAM] int 
  7289 ;; Return value:  Size  Location     Type
  7290 ;;                  2    0[COMRAM] int 
  7291 ;; Registers used:
  7292 ;;		wreg, status,2, status,0
  7293 ;; Tracked objects:
  7294 ;;		On entry : 0/0
  7295 ;;		On exit  : 0/0
  7296 ;;		Unchanged: 0/0
  7297 ;; Data sizes:     COMRAM   BANK0   BANK1   BANK2   BANK3   BANK4   BANK5   BANK6   BANK7
  7298 ;;      Params:         4       0       0       0       0       0       0       0       0
  7299 ;;      Locals:         6       0       0       0       0       0       0       0       0
  7300 ;;      Temps:          4       0       0       0       0       0       0       0       0
  7301 ;;      Totals:        14       0       0       0       0       0       0       0       0
  7302 ;;Total ram usage:       14 bytes
  7303 ;; Hardware stack levels used:    1
  7304 ;; This function calls:
  7305 ;;		Nothing
  7306 ;; This function is called by:
  7307 ;;		_efgtoa
  7308 ;; This function uses a non-reentrant model
  7309 ;;
  7310                           psect	text16,class=CODE,space=0,reloc=2,group=2
  7311                           	file	"/opt/microchip/xc8/v2.00/pic/sources/c99/common/__fpclassifyf.c"
  7312                           	line	4
  7313                           global __ptext16
  7314                           __ptext16:
  7315  003630                     psect	text16
  7316                           	file	"/opt/microchip/xc8/v2.00/pic/sources/c99/common/__fpclassifyf.c"
  7317                           	line	4
  7318                           	global	__size_of___fpclassifyf
  7319                           	__size_of___fpclassifyf	equ	__end_of___fpclassifyf-___fpclassifyf
  7320  0000                     	
  7321                           ___fpclassifyf:
  7322  003630                     ;incstack = 0
  7323                           	opt	stack 26
  7324                           	line	6
  7325                           	
  7326                           l2996:
  7327  003630                     	movff	(___fpclassifyf@F459),(c:___fpclassifyf@u)
  7328  003630  C0BE  F00B         	movff	(___fpclassifyf@F459+1),(c:___fpclassifyf@u+1)
  7329  003634  C0BF  F00C         	movff	(___fpclassifyf@F459+2),(c:___fpclassifyf@u+2)
  7330  003638  C0C0  F00D         	movff	(___fpclassifyf@F459+3),(c:___fpclassifyf@u+3)
  7331  00363C  C0C1  F00E         	movff	(c:___fpclassifyf@x),(c:___fpclassifyf@u)
  7332  003640  C001  F00B         	movff	(c:___fpclassifyf@x+1),(c:___fpclassifyf@u+1)
  7333  003644  C002  F00C         	movff	(c:___fpclassifyf@x+2),(c:___fpclassifyf@u+2)
  7334  003648  C003  F00D         	movff	(c:___fpclassifyf@x+3),(c:___fpclassifyf@u+3)
  7335  00364C  C004  F00E         	line	7
  7336                           	
  7337                           l2998:
  7338  003650                     	movff	(c:___fpclassifyf@u),??___fpclassifyf+0+0
  7339  003650  C00B  F005         	movff	(c:___fpclassifyf@u+1),??___fpclassifyf+0+0+1
  7340  003654  C00C  F006         	movff	(c:___fpclassifyf@u+2),??___fpclassifyf+0+0+2
  7341  003658  C00D  F007         	movff	(c:___fpclassifyf@u+3),??___fpclassifyf+0+0+3
  7342  00365C  C00E  F008         	movlw	017h+1
  7343  003660  0E18               	goto	u3060
  7344  003662  EF38  F01B         u3065:
  7345  003666                     	bcf	status,0
  7346  003666  90D8               	rrcf	(??___fpclassifyf+0+3),c
  7347  003668  3208               	rrcf	(??___fpclassifyf+0+2),c
  7348  00366A  3207               	rrcf	(??___fpclassifyf+0+1),c
  7349  00366C  3206               	rrcf	(??___fpclassifyf+0+0),c
  7350  00366E  3205               u3060:
  7351  003670                     	decfsz	wreg
  7352  003670  2EE8               	goto	u3065
  7353  003672  EF33  F01B         	movf	(??___fpclassifyf+0+0),c,w
  7354  003676  5005               	movwf	((c:___fpclassifyf@e)),c
  7355  003678  6E09               	clrf	((c:___fpclassifyf@e+1)),c
  7356  00367A  6A0A               	line	8
  7357                           	movf	((c:___fpclassifyf@e)),c,w
  7358  00367C  5009               iorwf	((c:___fpclassifyf@e+1)),c,w
  7359  00367E  100A               	btfss	status,2
  7360  003680  A4D8               	goto	u3071
  7361  003682  EF45  F01B         	goto	u3070
  7362  003686  EF47  F01B         
  7363                           u3071:
  7364  00368A                     	goto	l3008
  7365  00368A  EF6B  F01B         u3070:
  7366  00368E                     	
  7367                           l3000:
  7368  00368E                     	bcf	status,0
  7369  00368E  90D8               	rlcf	((c:___fpclassifyf@u)),c,w
  7370  003690  340B               	movwf	(??___fpclassifyf+0+0)&0ffh,c
  7371  003692  6E05               	rlcf	((c:___fpclassifyf@u+1)),c,w
  7372  003694  340C               	movwf	1+(??___fpclassifyf+0+0)&0ffh,c
  7373  003696  6E06               	
  7374                           	rlcf	((c:___fpclassifyf@u+2)),c,w
  7375  003698  340D               	movwf	2+(??___fpclassifyf+0+0)&0ffh,c
  7376  00369A  6E07               	
  7377                           	rlcf	((c:___fpclassifyf@u+3)),c,w
  7378  00369C  340E               	movwf	3+(??___fpclassifyf+0+0)&0ffh,c
  7379  00369E  6E08               	movf	(??___fpclassifyf+0+0),c,w
  7380  0036A0  5005               iorwf	(??___fpclassifyf+0+1),c,w
  7381  0036A2  1006               iorwf	(??___fpclassifyf+0+2),c,w
  7382  0036A4  1007               iorwf	(??___fpclassifyf+0+3),c,w
  7383  0036A6  1008               	btfss	status,2
  7384  0036A8  A4D8               	goto	u3081
  7385  0036AA  EF59  F01B         	goto	u3080
  7386  0036AE  EF5B  F01B         
  7387                           u3081:
  7388  0036B2                     	goto	l3004
  7389  0036B2  EF61  F01B         u3080:
  7390  0036B6                     	
  7391                           l3002:
  7392  0036B6                     	movlw	high(02h)
  7393  0036B6  0E00               	movwf	((c:?___fpclassifyf+1)),c
  7394  0036B8  6E02               	movlw	low(02h)
  7395  0036BA  0E02               	movwf	((c:?___fpclassifyf)),c
  7396  0036BC  6E01               	goto	l972
  7397  0036BE  EF9E  F01B         	
  7398                           l969:
  7399  0036C2                     	
  7400                           l3004:
  7401  0036C2                     	movlw	high(03h)
  7402  0036C2  0E00               	movwf	((c:?___fpclassifyf+1)),c
  7403  0036C4  6E02               	movlw	low(03h)
  7404  0036C6  0E03               	movwf	((c:?___fpclassifyf)),c
  7405  0036C8  6E01               	goto	l972
  7406  0036CA  EF9E  F01B         	
  7407                           l971:
  7408  0036CE                     	goto	l972
  7409  0036CE  EF9E  F01B         	
  7410                           l3006:
  7411  0036D2                     	goto	l972
  7412  0036D2  EF9E  F01B         	
  7413                           l967:
  7414  0036D6                     	line	9
  7415                           	
  7416                           l3008:
  7417  0036D6                     		incf	((c:___fpclassifyf@e)),c,w
  7418  0036D6  2809               iorwf	((c:___fpclassifyf@e+1)),c,w
  7419  0036D8  100A               	btfss	status,2
  7420  0036DA  A4D8               	goto	u3091
  7421  0036DC  EF72  F01B         	goto	u3090
  7422  0036E0  EF74  F01B         
  7423                           u3091:
  7424  0036E4                     	goto	l3014
  7425  0036E4  EF98  F01B         u3090:
  7426  0036E8                     	
  7427                           l3010:
  7428  0036E8                     	movff	(c:___fpclassifyf@u),??___fpclassifyf+0+0
  7429  0036E8  C00B  F005         	movff	(c:___fpclassifyf@u+1),??___fpclassifyf+0+0+1
  7430  0036EC  C00C  F006         	movff	(c:___fpclassifyf@u+2),??___fpclassifyf+0+0+2
  7431  0036F0  C00D  F007         	movff	(c:___fpclassifyf@u+3),??___fpclassifyf+0+0+3
  7432  0036F4  C00E  F008         	movlw	09h
  7433  0036F8  0E09               u3105:
  7434  0036FA                     	bcf	status,0
  7435  0036FA  90D8               	rlcf	(??___fpclassifyf+0+0),c
  7436  0036FC  3605               	rlcf	(??___fpclassifyf+0+1),c
  7437  0036FE  3606               	rlcf	(??___fpclassifyf+0+2),c
  7438  003700  3607               	rlcf	(??___fpclassifyf+0+3),c
  7439  003702  3608               	decfsz	wreg
  7440  003704  2EE8               	goto	u3105
  7441  003706  EF7D  F01B         	movf	(??___fpclassifyf+0+0),c,w
  7442  00370A  5005               iorwf	(??___fpclassifyf+0+1),c,w
  7443  00370C  1006               iorwf	(??___fpclassifyf+0+2),c,w
  7444  00370E  1007               iorwf	(??___fpclassifyf+0+3),c,w
  7445  003710  1008               	btfsc	status,2
  7446  003712  B4D8               	goto	u3111
  7447  003714  EF8E  F01B         	goto	u3110
  7448  003718  EF91  F01B         
  7449                           u3111:
  7450  00371C                     	movlw	1
  7451  00371C  0E01               	goto	u3120
  7452  00371E  EF92  F01B         u3110:
  7453  003722                     	movlw	0
  7454  003722  0E00               u3120:
  7455  003724                     	movwf	((c:?___fpclassifyf)),c
  7456  003724  6E01               	clrf	((c:?___fpclassifyf+1)),c
  7457  003726  6A02               	goto	l972
  7458  003728  EF9E  F01B         	
  7459                           l3012:
  7460  00372C                     	goto	l972
  7461  00372C  EF9E  F01B         	
  7462                           l973:
  7463  003730                     	line	10
  7464                           	
  7465                           l3014:
  7466  003730                     	movlw	high(04h)
  7467  003730  0E00               	movwf	((c:?___fpclassifyf+1)),c
  7468  003732  6E02               	movlw	low(04h)
  7469  003734  0E04               	movwf	((c:?___fpclassifyf)),c
  7470  003736  6E01               	goto	l972
  7471  003738  EF9E  F01B         	
  7472                           l3016:
  7473  00373C                     	line	11
  7474                           	
  7475                           l972:
  7476  00373C                     	return	;funcret
  7477  00373C  0012               	opt stack 0
  7478                           GLOBAL	__end_of___fpclassifyf
  7479                           	__end_of___fpclassifyf:
  7480  00373E                     	signat	___fpclassifyf,4218
  7481                           	global	___fltol
  7482                           
  7483 ;; *************** function ___fltol *****************
  7484 ;; Defined at:
  7485 ;;		line 43 in file "/opt/microchip/xc8/v2.00/pic/sources/c99/common/fltol.c"
  7486 ;; Parameters:    Size  Location     Type
  7487 ;;  f1              4    0[COMRAM] int 
  7488 ;; Auto vars:     Size  Location     Type
  7489 ;;  exp1            1    9[COMRAM] unsigned char 
  7490 ;;  sign1           1    8[COMRAM] unsigned char 
  7491 ;; Return value:  Size  Location     Type
  7492 ;;                  4    0[COMRAM] long 
  7493 ;; Registers used:
  7494 ;;		wreg, status,2, status,0
  7495 ;; Tracked objects:
  7496 ;;		On entry : 0/0
  7497 ;;		On exit  : 0/0
  7498 ;;		Unchanged: 0/0
  7499 ;; Data sizes:     COMRAM   BANK0   BANK1   BANK2   BANK3   BANK4   BANK5   BANK6   BANK7
  7500 ;;      Params:         4       0       0       0       0       0       0       0       0
  7501 ;;      Locals:         2       0       0       0       0       0       0       0       0
  7502 ;;      Temps:          4       0       0       0       0       0       0       0       0
  7503 ;;      Totals:        10       0       0       0       0       0       0       0       0
  7504 ;;Total ram usage:       10 bytes
  7505 ;; Hardware stack levels used:    1
  7506 ;; This function calls:
  7507 ;;		Nothing
  7508 ;; This function is called by:
  7509 ;;		_efgtoa
  7510 ;; This function uses a non-reentrant model
  7511 ;;
  7512                           psect	text17,class=CODE,space=0,reloc=2,group=1
  7513                           	file	"/opt/microchip/xc8/v2.00/pic/sources/c99/common/fltol.c"
  7514                           	line	43
  7515                           global __ptext17
  7516                           __ptext17:
  7517  002FF4                     psect	text17
  7518                           	file	"/opt/microchip/xc8/v2.00/pic/sources/c99/common/fltol.c"
  7519                           	line	43
  7520                           	global	__size_of___fltol
  7521                           	__size_of___fltol	equ	__end_of___fltol-___fltol
  7522  0000                     	
  7523                           ___fltol:
  7524  002FF4                     ;incstack = 0
  7525                           	opt	stack 26
  7526                           	line	47
  7527                           	
  7528                           l3470:
  7529  002FF4                     	rlcf	((c:___fltol@f1+2)),c,w
  7530  002FF4  3403               	rlcf	((c:___fltol@f1+3)),c,w
  7531  002FF6  3404               	movwf	((c:___fltol@exp1)),c
  7532  002FF8  6E0A               	movf	((c:___fltol@exp1)),c,w
  7533  002FFA  500A               	btfss	status,2
  7534  002FFC  A4D8               	goto	u3931
  7535  002FFE  EF03  F018         	goto	u3930
  7536  003002  EF05  F018         u3931:
  7537  003006                     	goto	l3476
  7538  003006  EF11  F018         u3930:
  7539  00300A                     	line	48
  7540                           	
  7541                           l3472:
  7542  00300A                     	movlw	low(0)
  7543  00300A  0E00               	movwf	((c:?___fltol)),c
  7544  00300C  6E01               	movlw	high(0)
  7545  00300E  0E00               	movwf	((c:?___fltol+1)),c
  7546  003010  6E02               	movlw	low highword(0)
  7547  003012  0E00               	movwf	((c:?___fltol+2)),c
  7548  003014  6E03               	movlw	high highword(0)
  7549  003016  0E00               	movwf	((c:?___fltol+3)),c
  7550  003018  6E04               	goto	l588
  7551  00301A  EFA2  F018         	
  7552                           l3474:
  7553  00301E                     	goto	l588
  7554  00301E  EFA2  F018         	
  7555                           l587:
  7556  003022                     	line	49
  7557                           	
  7558                           l3476:
  7559  003022                     	movff	(c:___fltol@f1),??___fltol+0+0
  7560  003022  C001  F005         	movff	(c:___fltol@f1+1),??___fltol+0+0+1
  7561  003026  C002  F006         	movff	(c:___fltol@f1+2),??___fltol+0+0+2
  7562  00302A  C003  F007         	movff	(c:___fltol@f1+3),??___fltol+0+0+3
  7563  00302E  C004  F008         	movlw	01Fh+1
  7564  003032  0E20               	goto	u3940
  7565  003034  EF21  F018         u3945:
  7566  003038                     	bcf	status,0
  7567  003038  90D8               	rrcf	(??___fltol+0+3),c
  7568  00303A  3208               	rrcf	(??___fltol+0+2),c
  7569  00303C  3207               	rrcf	(??___fltol+0+1),c
  7570  00303E  3206               	rrcf	(??___fltol+0+0),c
  7571  003040  3205               u3940:
  7572  003042                     	decfsz	wreg
  7573  003042  2EE8               	goto	u3945
  7574  003044  EF1C  F018         	movf	(??___fltol+0+0),c,w
  7575  003048  5005               	movwf	((c:___fltol@sign1)),c
  7576  00304A  6E09               	line	50
  7577                           	
  7578                           l3478:
  7579  00304C                     	bsf	(0+(23/8)+(c:___fltol@f1)),c,(23)&7
  7580  00304C  8E03               	line	51
  7581                           	
  7582                           l3480:
  7583  00304E                     	movlw	0FFh
  7584  00304E  0EFF               	andwf	((c:___fltol@f1)),c
  7585  003050  1601               	movlw	0FFh
  7586  003052  0EFF               	andwf	((c:___fltol@f1+1)),c
  7587  003054  1602               	movlw	0FFh
  7588  003056  0EFF               	andwf	((c:___fltol@f1+2)),c
  7589  003058  1603               	movlw	0
  7590  00305A  0E00               	andwf	((c:___fltol@f1+3)),c
  7591  00305C  1604               	line	52
  7592                           	
  7593                           l3482:
  7594  00305E                     	movlw	(096h)&0ffh
  7595  00305E  0E96               	subwf	((c:___fltol@exp1)),c
  7596  003060  5E0A               	line	53
  7597                           	
  7598                           l3484:
  7599  003062                     	btfsc	((c:___fltol@exp1)),c,7
  7600  003062  BE0A               	goto	u3950
  7601  003064  EF38  F018         	goto	u3951
  7602  003068  EF36  F018         
  7603                           u3951:
  7604  00306C                     	goto	l3496
  7605  00306C  EF5C  F018         u3950:
  7606  003070                     	line	54
  7607                           	
  7608                           l3486:
  7609  003070                     		movf	((c:___fltol@exp1)),c,w
  7610  003070  500A               	xorlw	80h
  7611  003072  0A80               	addlw	-(80h^-23)
  7612  003074  0F97               	btfsc	status,0
  7613  003076  B0D8               	goto	u3961
  7614  003078  EF40  F018         	goto	u3960
  7615  00307C  EF42  F018         
  7616                           u3961:
  7617  003080                     	goto	l3492
  7618  003080  EF50  F018         u3960:
  7619  003084                     	line	55
  7620                           	
  7621                           l3488:
  7622  003084                     	movlw	low(0)
  7623  003084  0E00               	movwf	((c:?___fltol)),c
  7624  003086  6E01               	movlw	high(0)
  7625  003088  0E00               	movwf	((c:?___fltol+1)),c
  7626  00308A  6E02               	movlw	low highword(0)
  7627  00308C  0E00               	movwf	((c:?___fltol+2)),c
  7628  00308E  6E03               	movlw	high highword(0)
  7629  003090  0E00               	movwf	((c:?___fltol+3)),c
  7630  003092  6E04               	goto	l588
  7631  003094  EFA2  F018         	
  7632                           l3490:
  7633  003098                     	goto	l588
  7634  003098  EFA2  F018         	
  7635                           l590:
  7636  00309C                     	goto	l3492
  7637  00309C  EF50  F018         	line	56
  7638                           	
  7639                           l591:
  7640  0030A0                     	line	57
  7641                           	
  7642                           l3492:
  7643  0030A0                     	bcf	status,0
  7644  0030A0  90D8               	rrcf	((c:___fltol@f1+3)),c
  7645  0030A2  3204               	rrcf	((c:___fltol@f1+2)),c
  7646  0030A4  3203               	rrcf	((c:___fltol@f1+1)),c
  7647  0030A6  3202               	rrcf	((c:___fltol@f1)),c
  7648  0030A8  3201               	
  7649                           l3494:
  7650  0030AA                     	incfsz	((c:___fltol@exp1)),c
  7651  0030AA  3E0A               	
  7652                           	goto	l3492
  7653  0030AC  EF50  F018         	goto	l3506
  7654  0030B0  EF86  F018         	
  7655                           l592:
  7656  0030B4                     	line	59
  7657                           	goto	l3506
  7658  0030B4  EF86  F018         	
  7659                           l589:
  7660  0030B8                     	line	60
  7661                           	
  7662                           l3496:
  7663  0030B8                     		movlw	020h-1
  7664  0030B8  0E1F               	cpfsgt	((c:___fltol@exp1)),c
  7665  0030BA  640A               	goto	u3971
  7666  0030BC  EF62  F018         	goto	u3970
  7667  0030C0  EF64  F018         
  7668                           u3971:
  7669  0030C4                     	goto	l3504
  7670  0030C4  EF7A  F018         u3970:
  7671  0030C8                     	line	61
  7672                           	
  7673                           l3498:
  7674  0030C8                     	movlw	low(0)
  7675  0030C8  0E00               	movwf	((c:?___fltol)),c
  7676  0030CA  6E01               	movlw	high(0)
  7677  0030CC  0E00               	movwf	((c:?___fltol+1)),c
  7678  0030CE  6E02               	movlw	low highword(0)
  7679  0030D0  0E00               	movwf	((c:?___fltol+2)),c
  7680  0030D2  6E03               	movlw	high highword(0)
  7681  0030D4  0E00               	movwf	((c:?___fltol+3)),c
  7682  0030D6  6E04               	goto	l588
  7683  0030D8  EFA2  F018         	
  7684                           l3500:
  7685  0030DC                     	goto	l588
  7686  0030DC  EFA2  F018         	
  7687                           l594:
  7688  0030E0                     	line	62
  7689                           	goto	l3504
  7690  0030E0  EF7A  F018         	
  7691                           l596:
  7692  0030E4                     	line	63
  7693                           	
  7694                           l3502:
  7695  0030E4                     	bcf	status,0
  7696  0030E4  90D8               	rlcf	((c:___fltol@f1)),c
  7697  0030E6  3601               	rlcf	((c:___fltol@f1+1)),c
  7698  0030E8  3602               	rlcf	((c:___fltol@f1+2)),c
  7699  0030EA  3603               	rlcf	((c:___fltol@f1+3)),c
  7700  0030EC  3604               	line	64
  7701                           	decf	((c:___fltol@exp1)),c
  7702  0030EE  060A               	goto	l3504
  7703  0030F0  EF7A  F018         	line	65
  7704                           	
  7705                           l595:
  7706  0030F4                     	line	62
  7707                           	
  7708                           l3504:
  7709  0030F4                     	movf	((c:___fltol@exp1)),c,w
  7710  0030F4  500A               	btfss	status,2
  7711  0030F6  A4D8               	goto	u3981
  7712  0030F8  EF80  F018         	goto	u3980
  7713  0030FC  EF82  F018         u3981:
  7714  003100                     	goto	l3502
  7715  003100  EF72  F018         u3980:
  7716  003104                     	goto	l3506
  7717  003104  EF86  F018         	
  7718                           l597:
  7719  003108                     	goto	l3506
  7720  003108  EF86  F018         	line	66
  7721                           	
  7722                           l593:
  7723  00310C                     	line	67
  7724                           	
  7725                           l3506:
  7726  00310C                     	movf	((c:___fltol@sign1)),c,w
  7727  00310C  5009               	btfsc	status,2
  7728  00310E  B4D8               	goto	u3991
  7729  003110  EF8C  F018         	goto	u3990
  7730  003114  EF8E  F018         u3991:
  7731  003118                     	goto	l3510
  7732  003118  EF98  F018         u3990:
  7733  00311C                     	line	68
  7734                           	
  7735                           l3508:
  7736  00311C                     	comf	((c:___fltol@f1+3)),c
  7737  00311C  1E04               	comf	((c:___fltol@f1+2)),c
  7738  00311E  1E03               	comf	((c:___fltol@f1+1)),c
  7739  003120  1E02               	negf	((c:___fltol@f1)),c
  7740  003122  6C01               	movlw	0
  7741  003124  0E00               	addwfc	((c:___fltol@f1+1)),c
  7742  003126  2202               	addwfc	((c:___fltol@f1+2)),c
  7743  003128  2203               	addwfc	((c:___fltol@f1+3)),c
  7744  00312A  2204               	goto	l3510
  7745  00312C  EF98  F018         	
  7746                           l598:
  7747  003130                     	line	69
  7748                           	
  7749                           l3510:
  7750  003130                     	movff	(c:___fltol@f1),(c:?___fltol)
  7751  003130  C001  F001         	movff	(c:___fltol@f1+1),(c:?___fltol+1)
  7752  003134  C002  F002         	movff	(c:___fltol@f1+2),(c:?___fltol+2)
  7753  003138  C003  F003         	movff	(c:___fltol@f1+3),(c:?___fltol+3)
  7754  00313C  C004  F004         	goto	l588
  7755  003140  EFA2  F018         	
  7756                           l3512:
  7757  003144                     	line	70
  7758                           	
  7759                           l588:
  7760  003144                     	return	;funcret
  7761  003144  0012               	opt stack 0
  7762                           GLOBAL	__end_of___fltol
  7763                           	__end_of___fltol:
  7764  003146                     	signat	___fltol,4220
  7765                           	global	___flsub
  7766                           
  7767 ;; *************** function ___flsub *****************
  7768 ;; Defined at:
  7769 ;;		line 245 in file "/opt/microchip/xc8/v2.00/pic/sources/c99/common/sprcadd.c"
  7770 ;; Parameters:    Size  Location     Type
  7771 ;;  b               4   39[COMRAM] long 
  7772 ;;  a               4   43[COMRAM] long 
  7773 ;; Auto vars:     Size  Location     Type
  7774 ;;		None
  7775 ;; Return value:  Size  Location     Type
  7776 ;;                  4   39[COMRAM] long 
  7777 ;; Registers used:
  7778 ;;		wreg, status,2, status,0, cstack
  7779 ;; Tracked objects:
  7780 ;;		On entry : 0/0
  7781 ;;		On exit  : 0/0
  7782 ;;		Unchanged: 0/0
  7783 ;; Data sizes:     COMRAM   BANK0   BANK1   BANK2   BANK3   BANK4   BANK5   BANK6   BANK7
  7784 ;;      Params:         8       0       0       0       0       0       0       0       0
  7785 ;;      Locals:         0       0       0       0       0       0       0       0       0
  7786 ;;      Temps:          0       0       0       0       0       0       0       0       0
  7787 ;;      Totals:         8       0       0       0       0       0       0       0       0
  7788 ;;Total ram usage:        8 bytes
  7789 ;; Hardware stack levels used:    1
  7790 ;; Hardware stack levels required when called:    1
  7791 ;; This function calls:
  7792 ;;		___fladd
  7793 ;; This function is called by:
  7794 ;;		_efgtoa
  7795 ;; This function uses a non-reentrant model
  7796 ;;
  7797                           psect	text18,class=CODE,space=0,reloc=2,group=1
  7798                           	file	"/opt/microchip/xc8/v2.00/pic/sources/c99/common/sprcadd.c"
  7799                           	line	245
  7800                           global __ptext18
  7801                           __ptext18:
  7802  00411A                     psect	text18
  7803                           	file	"/opt/microchip/xc8/v2.00/pic/sources/c99/common/sprcadd.c"
  7804                           	line	245
  7805                           	global	__size_of___flsub
  7806                           	__size_of___flsub	equ	__end_of___flsub-___flsub
  7807  0000                     	
  7808                           ___flsub:
  7809  00411A                     ;incstack = 0
  7810                           	opt	stack 25
  7811                           	line	248
  7812                           	
  7813                           l3338:
  7814  00411A                     	movlw	0
  7815  00411A  0E00               	xorwf	((c:___flsub@a)),c
  7816  00411C  1A2C               	movlw	0
  7817  00411E  0E00               	xorwf	((c:___flsub@a+1)),c
  7818  004120  1A2D               	movlw	0
  7819  004122  0E00               	xorwf	((c:___flsub@a+2)),c
  7820  004124  1A2E               	movlw	080h
  7821  004126  0E80               	xorwf	((c:___flsub@a+3)),c
  7822  004128  1A2F               	line	249
  7823                           	
  7824                           l3340:
  7825  00412A                     	movff	(c:___flsub@b),(c:___fladd@b)
  7826  00412A  C028  F001         	movff	(c:___flsub@b+1),(c:___fladd@b+1)
  7827  00412E  C029  F002         	movff	(c:___flsub@b+2),(c:___fladd@b+2)
  7828  004132  C02A  F003         	movff	(c:___flsub@b+3),(c:___fladd@b+3)
  7829  004136  C02B  F004         	movff	(c:___flsub@a),(c:___fladd@a)
  7830  00413A  C02C  F005         	movff	(c:___flsub@a+1),(c:___fladd@a+1)
  7831  00413E  C02D  F006         	movff	(c:___flsub@a+2),(c:___fladd@a+2)
  7832  004142  C02E  F007         	movff	(c:___flsub@a+3),(c:___fladd@a+3)
  7833  004146  C02F  F008         	call	___fladd	;wreg free
  7834  00414A  ECA7  F00A         	movff	0+?___fladd,(c:?___flsub)
  7835  00414E  C001  F028         	movff	1+?___fladd,(c:?___flsub+1)
  7836  004152  C002  F029         	movff	2+?___fladd,(c:?___flsub+2)
  7837  004156  C003  F02A         	movff	3+?___fladd,(c:?___flsub+3)
  7838  00415A  C004  F02B         	
  7839                           	goto	l861
  7840  00415E  EFB1  F020         	
  7841                           l3342:
  7842  004162                     	line	250
  7843                           	
  7844                           l861:
  7845  004162                     	return	;funcret
  7846  004162  0012               	opt stack 0
  7847                           GLOBAL	__end_of___flsub
  7848                           	__end_of___flsub:
  7849  004164                     	signat	___flsub,8316
  7850                           	global	___fladd
  7851                           
  7852 ;; *************** function ___fladd *****************
  7853 ;; Defined at:
  7854 ;;		line 10 in file "/opt/microchip/xc8/v2.00/pic/sources/c99/common/sprcadd.c"
  7855 ;; Parameters:    Size  Location     Type
  7856 ;;  b               4    0[COMRAM] long 
  7857 ;;  a               4    4[COMRAM] long 
  7858 ;; Auto vars:     Size  Location     Type
  7859 ;;  grs             1   19[COMRAM] unsigned char 
  7860 ;;  bexp            1   18[COMRAM] unsigned char 
  7861 ;;  aexp            1   17[COMRAM] unsigned char 
  7862 ;;  signs           1   16[COMRAM] unsigned char 
  7863 ;; Return value:  Size  Location     Type
  7864 ;;                  4    0[COMRAM] unsigned char 
  7865 ;; Registers used:
  7866 ;;		wreg, status,2, status,0
  7867 ;; Tracked objects:
  7868 ;;		On entry : 0/0
  7869 ;;		On exit  : 0/0
  7870 ;;		Unchanged: 0/0
  7871 ;; Data sizes:     COMRAM   BANK0   BANK1   BANK2   BANK3   BANK4   BANK5   BANK6   BANK7
  7872 ;;      Params:         8       0       0       0       0       0       0       0       0
  7873 ;;      Locals:         4       0       0       0       0       0       0       0       0
  7874 ;;      Temps:          8       0       0       0       0       0       0       0       0
  7875 ;;      Totals:        20       0       0       0       0       0       0       0       0
  7876 ;;Total ram usage:       20 bytes
  7877 ;; Hardware stack levels used:    1
  7878 ;; This function calls:
  7879 ;;		Nothing
  7880 ;; This function is called by:
  7881 ;;		_efgtoa
  7882 ;;		___flsub
  7883 ;; This function uses a non-reentrant model
  7884 ;;
  7885                           psect	text19,class=CODE,space=0,reloc=2,group=1
  7886                           	line	10
  7887                           global __ptext19
  7888                           __ptext19:
  7889  00154E                     psect	text19
  7890                           	file	"/opt/microchip/xc8/v2.00/pic/sources/c99/common/sprcadd.c"
  7891                           	line	10
  7892                           	global	__size_of___fladd
  7893                           	__size_of___fladd	equ	__end_of___fladd-___fladd
  7894  0000                     	
  7895                           ___fladd:
  7896  00154E                     ;incstack = 0
  7897                           	opt	stack 25
  7898                           	line	21
  7899                           	
  7900                           l2772:
  7901  00154E                     	movf	(0+((c:___fladd@b)+03h)),c,w
  7902  00154E  5004               	andlw	low(080h)
  7903  001550  0B80               	movwf	((c:___fladd@signs)),c
  7904  001552  6E11               	line	22
  7905                           	movf	(0+((c:___fladd@b)+03h)),c,w
  7906  001554  5004               	addwf	(0+((c:___fladd@b)+03h)),c,w
  7907  001556  2404               	movwf	((c:___fladd@bexp)),c
  7908  001558  6E13               	line	23
  7909                           	
  7910                           l2774:
  7911  00155A                     	
  7912                           	btfss	(0+((c:___fladd@b)+02h)),c,(7)&7
  7913  00155A  AE03               	goto	u2631
  7914  00155C  EFB2  F00A         	goto	u2630
  7915  001560  EFB4  F00A         u2631:
  7916  001564                     	goto	l2778
  7917  001564  EFB7  F00A         u2630:
  7918  001568                     	line	24
  7919                           	
  7920                           l2776:
  7921  001568                     	bsf	(0+(0/8)+(c:___fladd@bexp)),c,(0)&7
  7922  001568  8013               	goto	l2778
  7923  00156A  EFB7  F00A         	line	25
  7924                           	
  7925                           l807:
  7926  00156E                     	line	28
  7927                           	
  7928                           l2778:
  7929  00156E                     	movf	((c:___fladd@bexp)),c,w
  7930  00156E  5013               	btfsc	status,2
  7931  001570  B4D8               	goto	u2641
  7932  001572  EFBD  F00A         	goto	u2640
  7933  001576  EFBF  F00A         u2641:
  7934  00157A                     	goto	l2788
  7935  00157A  EFD6  F00A         u2640:
  7936  00157E                     	line	30
  7937                           	
  7938                           l2780:
  7939  00157E                     		incf	((c:___fladd@bexp)),c,w
  7940  00157E  2813               	btfss	status,2
  7941  001580  A4D8               	goto	u2651
  7942  001582  EFC5  F00A         	goto	u2650
  7943  001586  EFC7  F00A         
  7944                           u2651:
  7945  00158A                     	goto	l2784
  7946  00158A  EFD1  F00A         u2650:
  7947  00158E                     	line	32
  7948                           	
  7949                           l2782:
  7950  00158E                     	movlw	low(normalize32(0x0))
  7951  00158E  0E00               	movwf	((c:___fladd@b)),c
  7952  001590  6E01               	movlw	high(normalize32(0x0))
  7953  001592  0E00               	movwf	((c:___fladd@b+1)),c
  7954  001594  6E02               	movlw	low highword(normalize32(0x0))
  7955  001596  0E00               	movwf	((c:___fladd@b+2)),c
  7956  001598  6E03               	movlw	high highword(normalize32(0x0))
  7957  00159A  0E00               	movwf	((c:___fladd@b+3)),c
  7958  00159C  6E04               	goto	l2784
  7959  00159E  EFD1  F00A         	line	33
  7960                           	
  7961                           l809:
  7962  0015A2                     	line	35
  7963                           	
  7964                           l2784:
  7965  0015A2                     	bsf	(0+(23/8)+(c:___fladd@b)),c,(23)&7
  7966  0015A2  8E03               	line	37
  7967                           	
  7968                           l2786:
  7969  0015A4                     	movlw	low(0)
  7970  0015A4  0E00               	movwf	(0+((c:___fladd@b)+03h)),c
  7971  0015A6  6E04               	line	38
  7972                           	goto	l2790
  7973  0015A8  EFE0  F00A         	line	39
  7974                           	
  7975                           l808:
  7976  0015AC                     	line	41
  7977                           	
  7978                           l2788:
  7979  0015AC                     	movlw	low(normalize32(0x0))
  7980  0015AC  0E00               	movwf	((c:___fladd@b)),c
  7981  0015AE  6E01               	movlw	high(normalize32(0x0))
  7982  0015B0  0E00               	movwf	((c:___fladd@b+1)),c
  7983  0015B2  6E02               	movlw	low highword(normalize32(0x0))
  7984  0015B4  0E00               	movwf	((c:___fladd@b+2)),c
  7985  0015B6  6E03               	movlw	high highword(normalize32(0x0))
  7986  0015B8  0E00               	movwf	((c:___fladd@b+3)),c
  7987  0015BA  6E04               	goto	l2790
  7988  0015BC  EFE0  F00A         	line	42
  7989                           	
  7990                           l810:
  7991  0015C0                     	line	44
  7992                           	
  7993                           l2790:
  7994  0015C0                     	movf	(0+((c:___fladd@a)+03h)),c,w
  7995  0015C0  5008               	andlw	low(080h)
  7996  0015C2  0B80               	movwf	((c:___fladd@aexp)),c
  7997  0015C4  6E12               	line	46
  7998                           	
  7999                           l2792:
  8000  0015C6                     	movf	((c:___fladd@signs)),c,w
  8001  0015C6  5011               xorwf	((c:___fladd@aexp)),c,w
  8002  0015C8  1812               	btfsc	status,2
  8003  0015CA  B4D8               	goto	u2661
  8004  0015CC  EFEA  F00A         	goto	u2660
  8005  0015D0  EFEC  F00A         
  8006                           u2661:
  8007  0015D4                     	goto	l2796
  8008  0015D4  EFEF  F00A         u2660:
  8009  0015D8                     	line	47
  8010                           	
  8011                           l2794:
  8012  0015D8                     	bsf	(0+(6/8)+(c:___fladd@signs)),c,(6)&7
  8013  0015D8  8C11               	goto	l2796
  8014  0015DA  EFEF  F00A         	line	48
  8015                           	
  8016                           l811:
  8017  0015DE                     	line	49
  8018                           	
  8019                           l2796:
  8020  0015DE                     	movf	(0+((c:___fladd@a)+03h)),c,w
  8021  0015DE  5008               	addwf	(0+((c:___fladd@a)+03h)),c,w
  8022  0015E0  2408               	movwf	((c:___fladd@aexp)),c
  8023  0015E2  6E12               	line	50
  8024                           	
  8025                           l2798:
  8026  0015E4                     	
  8027                           	btfss	(0+((c:___fladd@a)+02h)),c,(7)&7
  8028  0015E4  AE07               	goto	u2671
  8029  0015E6  EFF7  F00A         	goto	u2670
  8030  0015EA  EFF9  F00A         u2671:
  8031  0015EE                     	goto	l2802
  8032  0015EE  EFFC  F00A         u2670:
  8033  0015F2                     	line	51
  8034                           	
  8035                           l2800:
  8036  0015F2                     	bsf	(0+(0/8)+(c:___fladd@aexp)),c,(0)&7
  8037  0015F2  8012               	goto	l2802
  8038  0015F4  EFFC  F00A         	line	52
  8039                           	
  8040                           l812:
  8041  0015F8                     	line	55
  8042                           	
  8043                           l2802:
  8044  0015F8                     	movf	((c:___fladd@aexp)),c,w
  8045  0015F8  5012               	btfsc	status,2
  8046  0015FA  B4D8               	goto	u2681
  8047  0015FC  EF02  F00B         	goto	u2680
  8048  001600  EF04  F00B         u2681:
  8049  001604                     	goto	l2812
  8050  001604  EF1B  F00B         u2680:
  8051  001608                     	line	57
  8052                           	
  8053                           l2804:
  8054  001608                     		incf	((c:___fladd@aexp)),c,w
  8055  001608  2812               	btfss	status,2
  8056  00160A  A4D8               	goto	u2691
  8057  00160C  EF0A  F00B         	goto	u2690
  8058  001610  EF0C  F00B         
  8059                           u2691:
  8060  001614                     	goto	l2808
  8061  001614  EF16  F00B         u2690:
  8062  001618                     	line	59
  8063                           	
  8064                           l2806:
  8065  001618                     	movlw	low(normalize32(0x0))
  8066  001618  0E00               	movwf	((c:___fladd@a)),c
  8067  00161A  6E05               	movlw	high(normalize32(0x0))
  8068  00161C  0E00               	movwf	((c:___fladd@a+1)),c
  8069  00161E  6E06               	movlw	low highword(normalize32(0x0))
  8070  001620  0E00               	movwf	((c:___fladd@a+2)),c
  8071  001622  6E07               	movlw	high highword(normalize32(0x0))
  8072  001624  0E00               	movwf	((c:___fladd@a+3)),c
  8073  001626  6E08               	goto	l2808
  8074  001628  EF16  F00B         	line	60
  8075                           	
  8076                           l814:
  8077  00162C                     	line	62
  8078                           	
  8079                           l2808:
  8080  00162C                     	bsf	(0+(23/8)+(c:___fladd@a)),c,(23)&7
  8081  00162C  8E07               	line	64
  8082                           	
  8083                           l2810:
  8084  00162E                     	movlw	low(0)
  8085  00162E  0E00               	movwf	(0+((c:___fladd@a)+03h)),c
  8086  001630  6E08               	line	65
  8087                           	goto	l2814
  8088  001632  EF25  F00B         	line	66
  8089                           	
  8090                           l813:
  8091  001636                     	line	68
  8092                           	
  8093                           l2812:
  8094  001636                     	movlw	low(normalize32(0x0))
  8095  001636  0E00               	movwf	((c:___fladd@a)),c
  8096  001638  6E05               	movlw	high(normalize32(0x0))
  8097  00163A  0E00               	movwf	((c:___fladd@a+1)),c
  8098  00163C  6E06               	movlw	low highword(normalize32(0x0))
  8099  00163E  0E00               	movwf	((c:___fladd@a+2)),c
  8100  001640  6E07               	movlw	high highword(normalize32(0x0))
  8101  001642  0E00               	movwf	((c:___fladd@a+3)),c
  8102  001644  6E08               	goto	l2814
  8103  001646  EF25  F00B         	line	69
  8104                           	
  8105                           l815:
  8106  00164A                     	line	75
  8107                           	
  8108                           l2814:
  8109  00164A                     		movf	((c:___fladd@bexp)),c,w
  8110  00164A  5013               	subwf	((c:___fladd@aexp)),c,w
  8111  00164C  5C12               	btfsc	status,0
  8112  00164E  B0D8               	goto	u2701
  8113  001650  EF2C  F00B         	goto	u2700
  8114  001654  EF2E  F00B         
  8115                           u2701:
  8116  001658                     	goto	l2850
  8117  001658  EF59  F00B         u2700:
  8118  00165C                     	line	77
  8119                           	
  8120                           l2816:
  8121  00165C                     	
  8122                           	btfss	((c:___fladd@signs)),c,(6)&7
  8123  00165C  AC11               	goto	u2711
  8124  00165E  EF33  F00B         	goto	u2710
  8125  001662  EF35  F00B         u2711:
  8126  001666                     	goto	l2820
  8127  001666  EF39  F00B         u2710:
  8128  00166A                     	line	78
  8129                           	
  8130                           l2818:
  8131  00166A                     	movlw	(080h)&0ffh
  8132  00166A  0E80               	xorwf	((c:___fladd@signs)),c
  8133  00166C  1A11               	goto	l2820
  8134  00166E  EF39  F00B         	line	79
  8135                           	
  8136                           l817:
  8137  001672                     	line	81
  8138                           	
  8139                           l2820:
  8140  001672                     	movff	(c:___fladd@bexp),(c:___fladd@grs)
  8141  001672  C013  F014         	line	82
  8142                           	
  8143                           l2822:
  8144  001676                     	movff	(c:___fladd@aexp),(c:___fladd@bexp)
  8145  001676  C012  F013         	line	83
  8146                           	
  8147                           l2824:
  8148  00167A                     	movff	(c:___fladd@grs),(c:___fladd@aexp)
  8149  00167A  C014  F012         	line	84
  8150                           	
  8151                           l2826:
  8152  00167E                     	movff	(c:___fladd@b),(c:___fladd@grs)
  8153  00167E  C001  F014         	line	85
  8154                           	
  8155                           l2828:
  8156  001682                     	movff	(c:___fladd@a),(c:___fladd@b)
  8157  001682  C005  F001         	line	86
  8158                           	
  8159                           l2830:
  8160  001686                     	movff	(c:___fladd@grs),(c:___fladd@a)
  8161  001686  C014  F005         	line	87
  8162                           	
  8163                           l2832:
  8164  00168A                     	movff	0+((c:___fladd@b)+01h),(c:___fladd@grs)
  8165  00168A  C002  F014         	line	88
  8166                           	
  8167                           l2834:
  8168  00168E                     	movff	0+((c:___fladd@a)+01h),0+((c:___fladd@b)+01h)
  8169  00168E  C006  F002         	line	89
  8170                           	
  8171                           l2836:
  8172  001692                     	movff	(c:___fladd@grs),0+((c:___fladd@a)+01h)
  8173  001692  C014  F006         	line	90
  8174                           	
  8175                           l2838:
  8176  001696                     	movff	0+((c:___fladd@b)+02h),(c:___fladd@grs)
  8177  001696  C003  F014         	line	91
  8178                           	
  8179                           l2840:
  8180  00169A                     	movff	0+((c:___fladd@a)+02h),0+((c:___fladd@b)+02h)
  8181  00169A  C007  F003         	line	92
  8182                           	
  8183                           l2842:
  8184  00169E                     	movff	(c:___fladd@grs),0+((c:___fladd@a)+02h)
  8185  00169E  C014  F007         	line	93
  8186                           	
  8187                           l2844:
  8188  0016A2                     	movff	0+((c:___fladd@b)+03h),(c:___fladd@grs)
  8189  0016A2  C004  F014         	line	94
  8190                           	
  8191                           l2846:
  8192  0016A6                     	movff	0+((c:___fladd@a)+03h),0+((c:___fladd@b)+03h)
  8193  0016A6  C008  F004         	line	95
  8194                           	
  8195                           l2848:
  8196  0016AA                     	movff	(c:___fladd@grs),0+((c:___fladd@a)+03h)
  8197  0016AA  C014  F008         	goto	l2850
  8198  0016AE  EF59  F00B         	line	96
  8199                           	
  8200                           l816:
  8201  0016B2                     	line	98
  8202                           	
  8203                           l2850:
  8204  0016B2                     	movlw	low(0)
  8205  0016B2  0E00               	movwf	((c:___fladd@grs)),c
  8206  0016B4  6E14               	line	100
  8207                           	
  8208                           l2852:
  8209  0016B6                     	movf	((c:___fladd@bexp)),c,w
  8210  0016B6  5013               	movwf	(??___fladd+0+0)&0ffh,c
  8211  0016B8  6E09               	clrf	(??___fladd+0+0+1)&0ffh,c
  8212  0016BA  6A0A               
  8213                           	comf	(??___fladd+0+0),c
  8214  0016BC  1E09               	comf	(??___fladd+0+1),c
  8215  0016BE  1E0A               	infsnz	(??___fladd+0+0),c
  8216  0016C0  4A09               	incf	(??___fladd+0+1),c
  8217  0016C2  2A0A               	movf	((c:___fladd@aexp)),c,w
  8218  0016C4  5012               	movwf	(??___fladd+2+0)&0ffh,c
  8219  0016C6  6E0B               	clrf	(??___fladd+2+0+1)&0ffh,c
  8220  0016C8  6A0C               
  8221                           	movf	(??___fladd+0+0),c,w
  8222  0016CA  5009               	addwf	(??___fladd+2+0),c
  8223  0016CC  260B               	movf	(??___fladd+0+1),c,w
  8224  0016CE  500A               	addwfc	(??___fladd+2+1),c
  8225  0016D0  220C               	btfsc	(??___fladd+2+1),c,7
  8226  0016D2  BE0C               	goto	u2721
  8227  0016D4  EF75  F00B         	movf	(??___fladd+2+1),c,w
  8228  0016D8  500C               	bnz	u2720
  8229  0016DA  E109               	movlw	26
  8230  0016DC  0E1A               	subwf	 (??___fladd+2+0),c,w
  8231  0016DE  5C0B               	btfss	status,0
  8232  0016E0  A0D8               	goto	u2721
  8233  0016E2  EF75  F00B         	goto	u2720
  8234  0016E6  EF77  F00B         
  8235                           u2721:
  8236  0016EA                     	goto	l820
  8237  0016EA  EFB4  F00B         u2720:
  8238  0016EE                     	line	101
  8239                           	
  8240                           l2854:
  8241  0016EE                     	movf	((c:___fladd@b)),c,w
  8242  0016EE  5001               iorwf	((c:___fladd@b+1)),c,w
  8243  0016F0  1002               iorwf	((c:___fladd@b+2)),c,w
  8244  0016F2  1003               iorwf	((c:___fladd@b+3)),c,w
  8245  0016F4  1004               	btfss	status,2
  8246  0016F6  A4D8               	goto	u2731
  8247  0016F8  EF80  F00B         	goto	u2730
  8248  0016FC  EF83  F00B         
  8249                           u2731:
  8250  001700                     	movlw	1
  8251  001700  0E01               	goto	u2740
  8252  001702  EF84  F00B         u2730:
  8253  001706                     	movlw	0
  8254  001706  0E00               u2740:
  8255  001708                     	movwf	((c:___fladd@grs)),c
  8256  001708  6E14               	line	102
  8257                           	
  8258                           l2856:
  8259  00170A                     	movlw	low(0)
  8260  00170A  0E00               	movwf	((c:___fladd@b)),c
  8261  00170C  6E01               	movlw	high(0)
  8262  00170E  0E00               	movwf	((c:___fladd@b+1)),c
  8263  001710  6E02               	movlw	low highword(0)
  8264  001712  0E00               	movwf	((c:___fladd@b+2)),c
  8265  001714  6E03               	movlw	high highword(0)
  8266  001716  0E00               	movwf	((c:___fladd@b+3)),c
  8267  001718  6E04               	line	103
  8268                           	
  8269                           l2858:
  8270  00171A                     	movff	(c:___fladd@aexp),(c:___fladd@bexp)
  8271  00171A  C012  F013         	line	104
  8272                           	goto	l819
  8273  00171E  EFBF  F00B         	line	105
  8274                           	
  8275                           l818:
  8276  001722                     	line	106
  8277                           	goto	l820
  8278  001722  EFB4  F00B         	
  8279                           l821:
  8280  001726                     	line	109
  8281                           	
  8282                           	btfss	((c:___fladd@grs)),c,(0)&7
  8283  001726  A014               	goto	u2751
  8284  001728  EF98  F00B         	goto	u2750
  8285  00172C  EF9A  F00B         u2751:
  8286  001730                     	goto	l2862
  8287  001730  EFA0  F00B         u2750:
  8288  001734                     	line	110
  8289                           	
  8290                           l2860:
  8291  001734                     	bcf	status,0
  8292  001734  90D8               	rrcf	((c:___fladd@grs)),c,w
  8293  001736  3014               	iorlw	low(01h)
  8294  001738  0901               	movwf	((c:___fladd@grs)),c
  8295  00173A  6E14               	line	111
  8296                           	goto	l2864
  8297  00173C  EFA4  F00B         	line	112
  8298                           	
  8299                           l822:
  8300  001740                     	line	113
  8301                           	
  8302                           l2862:
  8303  001740                     	bcf status,0
  8304  001740  90D8               	rrcf	((c:___fladd@grs)),c
  8305  001742  3214               
  8306                           	goto	l2864
  8307  001744  EFA4  F00B         	line	114
  8308                           	
  8309                           l823:
  8310  001748                     	line	115
  8311                           	
  8312                           l2864:
  8313  001748                     	
  8314                           	btfss	((c:___fladd@b)),c,(0)&7
  8315  001748  A001               	goto	u2761
  8316  00174A  EFA9  F00B         	goto	u2760
  8317  00174E  EFAB  F00B         u2761:
  8318  001752                     	goto	l2868
  8319  001752  EFAE  F00B         u2760:
  8320  001756                     	line	116
  8321                           	
  8322                           l2866:
  8323  001756                     	bsf	(0+(7/8)+(c:___fladd@grs)),c,(7)&7
  8324  001756  8E14               	goto	l2868
  8325  001758  EFAE  F00B         	line	117
  8326                           	
  8327                           l824:
  8328  00175C                     	line	118
  8329                           	
  8330                           l2868:
  8331  00175C                     	rlcf	((c:___fladd@b+3)),c,w
  8332  00175C  3404               	rrcf	((c:___fladd@b+3)),c
  8333  00175E  3204               	rrcf	((c:___fladd@b+2)),c
  8334  001760  3203               	rrcf	((c:___fladd@b+1)),c
  8335  001762  3202               	rrcf	((c:___fladd@b)),c
  8336  001764  3201               	line	119
  8337                           	
  8338                           l2870:
  8339  001766                     	incf	((c:___fladd@bexp)),c
  8340  001766  2A13               	line	120
  8341                           	
  8342                           l820:
  8343  001768                     	line	106
  8344                           		movf	((c:___fladd@aexp)),c,w
  8345  001768  5012               	subwf	((c:___fladd@bexp)),c,w
  8346  00176A  5C13               	btfss	status,0
  8347  00176C  A0D8               	goto	u2771
  8348  00176E  EFBB  F00B         	goto	u2770
  8349  001772  EFBD  F00B         
  8350                           u2771:
  8351  001776                     	goto	l821
  8352  001776  EF93  F00B         u2770:
  8353  00177A                     	goto	l819
  8354  00177A  EFBF  F00B         	
  8355                           l825:
  8356  00177E                     	line	121
  8357                           	
  8358                           l819:
  8359  00177E                     	line	124
  8360                           	
  8361                           	btfsc	((c:___fladd@signs)),c,(6)&7
  8362  00177E  BC11               	goto	u2781
  8363  001780  EFC4  F00B         	goto	u2780
  8364  001784  EFC6  F00B         u2781:
  8365  001788                     	goto	l2896
  8366  001788  EF0E  F00C         u2780:
  8367  00178C                     	line	127
  8368                           	
  8369                           l2872:
  8370  00178C                     	movf	((c:___fladd@bexp)),c,w
  8371  00178C  5013               	btfss	status,2
  8372  00178E  A4D8               	goto	u2791
  8373  001790  EFCC  F00B         	goto	u2790
  8374  001794  EFCE  F00B         u2791:
  8375  001798                     	goto	l2878
  8376  001798  EFDA  F00B         u2790:
  8377  00179C                     	line	128
  8378                           	
  8379                           l2874:
  8380  00179C                     	movlw	low(normalize32(0x0))
  8381  00179C  0E00               	movwf	((c:?___fladd)),c
  8382  00179E  6E01               	movlw	high(normalize32(0x0))
  8383  0017A0  0E00               	movwf	((c:?___fladd+1)),c
  8384  0017A2  6E02               	movlw	low highword(normalize32(0x0))
  8385  0017A4  0E00               	movwf	((c:?___fladd+2)),c
  8386  0017A6  6E03               	movlw	high highword(normalize32(0x0))
  8387  0017A8  0E00               	movwf	((c:?___fladd+3)),c
  8388  0017AA  6E04               	goto	l828
  8389  0017AC  EF68  F00D         	
  8390                           l2876:
  8391  0017B0                     	goto	l828
  8392  0017B0  EF68  F00D         	line	129
  8393                           	
  8394                           l827:
  8395  0017B4                     	line	132
  8396                           	
  8397                           l2878:
  8398  0017B4                     	movf	((c:___fladd@a)),c,w
  8399  0017B4  5005               	addwf	((c:___fladd@b)),c
  8400  0017B6  2601               	movf	((c:___fladd@a+1)),c,w
  8401  0017B8  5006               	addwfc	((c:___fladd@b+1)),c
  8402  0017BA  2202               	movf	((c:___fladd@a+2)),c,w
  8403  0017BC  5007               	addwfc	((c:___fladd@b+2)),c
  8404  0017BE  2203               	movf	((c:___fladd@a+3)),c,w
  8405  0017C0  5008               	addwfc	((c:___fladd@b+3)),c
  8406  0017C2  2204               	line	134
  8407                           	
  8408                           l2880:
  8409  0017C4                     	
  8410                           	btfss	((c:___fladd@b+3)),c,(24)&7
  8411  0017C4  A004               	goto	u2801
  8412  0017C6  EFE7  F00B         	goto	u2800
  8413  0017CA  EFE9  F00B         u2801:
  8414  0017CE                     	goto	l2932
  8415  0017CE  EFBE  F00C         u2800:
  8416  0017D2                     	line	135
  8417                           	
  8418                           l2882:
  8419  0017D2                     	
  8420                           	btfss	((c:___fladd@grs)),c,(0)&7
  8421  0017D2  A014               	goto	u2811
  8422  0017D4  EFEE  F00B         	goto	u2810
  8423  0017D8  EFF0  F00B         u2811:
  8424  0017DC                     	goto	l2886
  8425  0017DC  EFF6  F00B         u2810:
  8426  0017E0                     	line	136
  8427                           	
  8428                           l2884:
  8429  0017E0                     	bcf	status,0
  8430  0017E0  90D8               	rrcf	((c:___fladd@grs)),c,w
  8431  0017E2  3014               	iorlw	low(01h)
  8432  0017E4  0901               	movwf	((c:___fladd@grs)),c
  8433  0017E6  6E14               	line	137
  8434                           	goto	l2888
  8435  0017E8  EFFA  F00B         	line	138
  8436                           	
  8437                           l830:
  8438  0017EC                     	line	139
  8439                           	
  8440                           l2886:
  8441  0017EC                     	bcf status,0
  8442  0017EC  90D8               	rrcf	((c:___fladd@grs)),c
  8443  0017EE  3214               
  8444                           	goto	l2888
  8445  0017F0  EFFA  F00B         	line	140
  8446                           	
  8447                           l831:
  8448  0017F4                     	line	141
  8449                           	
  8450                           l2888:
  8451  0017F4                     	
  8452                           	btfss	((c:___fladd@b)),c,(0)&7
  8453  0017F4  A001               	goto	u2821
  8454  0017F6  EFFF  F00B         	goto	u2820
  8455  0017FA  EF01  F00C         u2821:
  8456  0017FE                     	goto	l2892
  8457  0017FE  EF04  F00C         u2820:
  8458  001802                     	line	142
  8459                           	
  8460                           l2890:
  8461  001802                     	bsf	(0+(7/8)+(c:___fladd@grs)),c,(7)&7
  8462  001802  8E14               	goto	l2892
  8463  001804  EF04  F00C         	line	143
  8464                           	
  8465                           l832:
  8466  001808                     	line	144
  8467                           	
  8468                           l2892:
  8469  001808                     	rlcf	((c:___fladd@b+3)),c,w
  8470  001808  3404               	rrcf	((c:___fladd@b+3)),c
  8471  00180A  3204               	rrcf	((c:___fladd@b+2)),c
  8472  00180C  3203               	rrcf	((c:___fladd@b+1)),c
  8473  00180E  3202               	rrcf	((c:___fladd@b)),c
  8474  001810  3201               	line	145
  8475                           	
  8476                           l2894:
  8477  001812                     	incf	((c:___fladd@bexp)),c
  8478  001812  2A13               	goto	l2932
  8479  001814  EFBE  F00C         	line	146
  8480                           	
  8481                           l829:
  8482  001818                     	line	148
  8483                           	goto	l2932
  8484  001818  EFBE  F00C         	line	149
  8485                           	
  8486                           l826:
  8487  00181C                     	line	153
  8488                           	
  8489                           l2896:
  8490  00181C                     		movf	((c:___fladd@a)),c,w
  8491  00181C  5005               	subwf	((c:___fladd@b)),c,w
  8492  00181E  5C01               	movf	((c:___fladd@a+1)),c,w
  8493  001820  5006               	subwfb	((c:___fladd@b+1)),c,w
  8494  001822  5802               	movf	((c:___fladd@a+2)),c,w
  8495  001824  5007               	subwfb	((c:___fladd@b+2)),c,w
  8496  001826  5803               	movf	((c:___fladd@b+3)),c,w
  8497  001828  5004               	xorlw	80h
  8498  00182A  0A80               	movwf	(??___fladd+0+0)&0ffh,c
  8499  00182C  6E09               	movf	((c:___fladd@a+3)),c,w
  8500  00182E  5008               	xorlw	80h
  8501  001830  0A80               	subwfb	(??___fladd+0+0)&0ffh,c,w
  8502  001832  5809               	btfsc	status,0
  8503  001834  B0D8               	goto	u2831
  8504  001836  EF1F  F00C         	goto	u2830
  8505  00183A  EF21  F00C         
  8506                           u2831:
  8507  00183E                     	goto	l2906
  8508  00183E  EF5F  F00C         u2830:
  8509  001842                     	line	154
  8510                           	
  8511                           l2898:
  8512  001842                     	movff	(c:___fladd@b),??___fladd+0+0
  8513  001842  C001  F009         	movff	(c:___fladd@b+1),??___fladd+0+0+1
  8514  001846  C002  F00A         	movff	(c:___fladd@b+2),??___fladd+0+0+2
  8515  00184A  C003  F00B         	movff	(c:___fladd@b+3),??___fladd+0+0+3
  8516  00184E  C004  F00C         	comf	(??___fladd+0+0),c
  8517  001852  1E09               	comf	(??___fladd+0+1),c
  8518  001854  1E0A               	comf	(??___fladd+0+2),c
  8519  001856  1E0B               	comf	(??___fladd+0+3),c
  8520  001858  1E0C               	incf	(??___fladd+0+0),c
  8521  00185A  2A09               	movlw	0
  8522  00185C  0E00               	addwfc	(??___fladd+0+1),c
  8523  00185E  220A               	addwfc	(??___fladd+0+2),c
  8524  001860  220B               	addwfc	(??___fladd+0+3),c
  8525  001862  220C               	movf	((c:___fladd@a)),c,w
  8526  001864  5005               	addwf	(??___fladd+0+0),c,w
  8527  001866  2409               	movwf	(??___fladd+4+0)&0ffh,c
  8528  001868  6E0D               	movf	((c:___fladd@a+1)),c,w
  8529  00186A  5006               	addwfc	(??___fladd+0+1),c,w
  8530  00186C  200A               	movwf	1+(??___fladd+4+0)&0ffh,c
  8531  00186E  6E0E               	
  8532                           	movf	((c:___fladd@a+2)),c,w
  8533  001870  5007               	addwfc	(??___fladd+0+2),c,w
  8534  001872  200B               	movwf	2+(??___fladd+4+0)&0ffh,c
  8535  001874  6E0F               	
  8536                           	movf	((c:___fladd@a+3)),c,w
  8537  001876  5008               	addwfc	(??___fladd+0+3),c,w
  8538  001878  200C               	movwf	3+(??___fladd+4+0)&0ffh,c
  8539  00187A  6E10               	movlw	0FFh
  8540  00187C  0EFF               	addwf	(??___fladd+4+0),c,w
  8541  00187E  240D               	movwf	((c:___fladd@b)),c
  8542  001880  6E01               	movlw	0FFh
  8543  001882  0EFF               	addwfc	(??___fladd+4+1),c,w
  8544  001884  200E               	movwf	1+((c:___fladd@b)),c
  8545  001886  6E02               	
  8546                           	movlw	0FFh
  8547  001888  0EFF               	addwfc	(??___fladd+4+2),c,w
  8548  00188A  200F               	movwf	2+((c:___fladd@b)),c
  8549  00188C  6E03               	
  8550                           	movlw	0FFh
  8551  00188E  0EFF               	addwfc	(??___fladd+4+3),c,w
  8552  001890  2010               	movwf	3+((c:___fladd@b)),c
  8553  001892  6E04               	line	155
  8554                           	movlw	(080h)&0ffh
  8555  001894  0E80               	xorwf	((c:___fladd@signs)),c
  8556  001896  1A11               	line	156
  8557                           	
  8558                           l2900:
  8559  001898                     	negf	((c:___fladd@grs)),c
  8560  001898  6C14               	line	157
  8561                           	
  8562                           l2902:
  8563  00189A                     	movf	((c:___fladd@grs)),c,w
  8564  00189A  5014               	btfss	status,2
  8565  00189C  A4D8               	goto	u2841
  8566  00189E  EF53  F00C         	goto	u2840
  8567  0018A2  EF55  F00C         u2841:
  8568  0018A6                     	goto	l836
  8569  0018A6  EF67  F00C         u2840:
  8570  0018AA                     	line	158
  8571                           	
  8572                           l2904:
  8573  0018AA                     	movlw	low(01h)
  8574  0018AA  0E01               	addwf	((c:___fladd@b)),c
  8575  0018AC  2601               	movlw	0
  8576  0018AE  0E00               	addwfc	((c:___fladd@b+1)),c
  8577  0018B0  2202               	addwfc	((c:___fladd@b+2)),c
  8578  0018B2  2203               	addwfc	((c:___fladd@b+3)),c
  8579  0018B4  2204               	goto	l836
  8580  0018B6  EF67  F00C         	line	159
  8581                           	
  8582                           l835:
  8583  0018BA                     	line	160
  8584                           	goto	l836
  8585  0018BA  EF67  F00C         	line	161
  8586                           	
  8587                           l834:
  8588  0018BE                     	line	162
  8589                           	
  8590                           l2906:
  8591  0018BE                     	movf	((c:___fladd@a)),c,w
  8592  0018BE  5005               	subwf	((c:___fladd@b)),c
  8593  0018C0  5E01               	movf	((c:___fladd@a+1)),c,w
  8594  0018C2  5006               	subwfb	((c:___fladd@b+1)),c
  8595  0018C4  5A02               	movf	((c:___fladd@a+2)),c,w
  8596  0018C6  5007               	subwfb	((c:___fladd@b+2)),c
  8597  0018C8  5A03               	movf	((c:___fladd@a+3)),c,w
  8598  0018CA  5008               	subwfb	((c:___fladd@b+3)),c
  8599  0018CC  5A04               	line	163
  8600                           	
  8601                           l836:
  8602  0018CE                     	line	166
  8603                           	movf	((c:___fladd@b)),c,w
  8604  0018CE  5001               iorwf	((c:___fladd@b+1)),c,w
  8605  0018D0  1002               iorwf	((c:___fladd@b+2)),c,w
  8606  0018D2  1003               iorwf	((c:___fladd@b+3)),c,w
  8607  0018D4  1004               	btfss	status,2
  8608  0018D6  A4D8               	goto	u2851
  8609  0018D8  EF70  F00C         	goto	u2850
  8610  0018DC  EF72  F00C         
  8611                           u2851:
  8612  0018E0                     	goto	l2930
  8613  0018E0  EFB3  F00C         u2850:
  8614  0018E4                     	
  8615                           l2908:
  8616  0018E4                     	movf	((c:___fladd@grs)),c,w
  8617  0018E4  5014               	btfss	status,2
  8618  0018E6  A4D8               	goto	u2861
  8619  0018E8  EF78  F00C         	goto	u2860
  8620  0018EC  EF7A  F00C         u2861:
  8621  0018F0                     	goto	l2930
  8622  0018F0  EFB3  F00C         u2860:
  8623  0018F4                     	line	167
  8624                           	
  8625                           l2910:
  8626  0018F4                     	movlw	low(normalize32(0x0))
  8627  0018F4  0E00               	movwf	((c:?___fladd)),c
  8628  0018F6  6E01               	movlw	high(normalize32(0x0))
  8629  0018F8  0E00               	movwf	((c:?___fladd+1)),c
  8630  0018FA  6E02               	movlw	low highword(normalize32(0x0))
  8631  0018FC  0E00               	movwf	((c:?___fladd+2)),c
  8632  0018FE  6E03               	movlw	high highword(normalize32(0x0))
  8633  001900  0E00               	movwf	((c:?___fladd+3)),c
  8634  001902  6E04               	goto	l828
  8635  001904  EF68  F00D         	
  8636                           l2912:
  8637  001908                     	goto	l828
  8638  001908  EF68  F00D         	line	168
  8639                           	
  8640                           l837:
  8641  00190C                     	line	171
  8642                           	goto	l2930
  8643  00190C  EFB3  F00C         	
  8644                           l839:
  8645  001910                     	line	172
  8646                           	
  8647                           l2914:
  8648  001910                     	bcf	status,0
  8649  001910  90D8               	rlcf	((c:___fladd@b)),c
  8650  001912  3601               	rlcf	((c:___fladd@b+1)),c
  8651  001914  3602               	rlcf	((c:___fladd@b+2)),c
  8652  001916  3603               	rlcf	((c:___fladd@b+3)),c
  8653  001918  3604               	line	173
  8654                           	
  8655                           l2916:
  8656  00191A                     	
  8657                           	btfss	((c:___fladd@grs)),c,(7)&7
  8658  00191A  AE14               	goto	u2871
  8659  00191C  EF92  F00C         	goto	u2870
  8660  001920  EF94  F00C         u2871:
  8661  001924                     	goto	l2920
  8662  001924  EF97  F00C         u2870:
  8663  001928                     	line	174
  8664                           	
  8665                           l2918:
  8666  001928                     	bsf	(0+(0/8)+(c:___fladd@b)),c,(0)&7
  8667  001928  8001               	goto	l2920
  8668  00192A  EF97  F00C         	line	175
  8669                           	
  8670                           l840:
  8671  00192E                     	line	176
  8672                           	
  8673                           l2920:
  8674  00192E                     	
  8675                           	btfss	((c:___fladd@grs)),c,(0)&7
  8676  00192E  A014               	goto	u2881
  8677  001930  EF9C  F00C         	goto	u2880
  8678  001934  EF9E  F00C         u2881:
  8679  001938                     	goto	l2924
  8680  001938  EFA2  F00C         u2880:
  8681  00193C                     	line	177
  8682                           	
  8683                           l2922:
  8684  00193C                     	bsf	status,0
  8685  00193C  80D8               	
  8686                           	rlcf	((c:___fladd@grs)),c
  8687  00193E  3614               	line	178
  8688                           	goto	l2926
  8689  001940  EFA6  F00C         	line	179
  8690                           	
  8691                           l841:
  8692  001944                     	line	180
  8693                           	
  8694                           l2924:
  8695  001944                     	bcf status,0
  8696  001944  90D8               	rlcf	((c:___fladd@grs)),c
  8697  001946  3614               
  8698                           	goto	l2926
  8699  001948  EFA6  F00C         	line	181
  8700                           	
  8701                           l842:
  8702  00194C                     	line	182
  8703                           	
  8704                           l2926:
  8705  00194C                     	movf	((c:___fladd@bexp)),c,w
  8706  00194C  5013               	btfsc	status,2
  8707  00194E  B4D8               	goto	u2891
  8708  001950  EFAC  F00C         	goto	u2890
  8709  001954  EFAE  F00C         u2891:
  8710  001958                     	goto	l2930
  8711  001958  EFB3  F00C         u2890:
  8712  00195C                     	line	183
  8713                           	
  8714                           l2928:
  8715  00195C                     	decf	((c:___fladd@bexp)),c
  8716  00195C  0613               	goto	l2930
  8717  00195E  EFB3  F00C         	line	184
  8718                           	
  8719                           l843:
  8720  001962                     	goto	l2930
  8721  001962  EFB3  F00C         	line	185
  8722                           	
  8723                           l838:
  8724  001966                     	line	171
  8725                           	
  8726                           l2930:
  8727  001966                     	
  8728                           	btfss	((c:___fladd@b+2)),c,(23)&7
  8729  001966  AE03               	goto	u2901
  8730  001968  EFB8  F00C         	goto	u2900
  8731  00196C  EFBA  F00C         u2901:
  8732  001970                     	goto	l2914
  8733  001970  EF88  F00C         u2900:
  8734  001974                     	goto	l2932
  8735  001974  EFBE  F00C         	
  8736                           l844:
  8737  001978                     	goto	l2932
  8738  001978  EFBE  F00C         	line	186
  8739                           	
  8740                           l833:
  8741  00197C                     	line	192
  8742                           	
  8743                           l2932:
  8744  00197C                     	movlw	low(0)
  8745  00197C  0E00               	movwf	((c:___fladd@aexp)),c
  8746  00197E  6E12               	line	193
  8747                           	
  8748                           l2934:
  8749  001980                     	
  8750                           	btfss	((c:___fladd@grs)),c,(7)&7
  8751  001980  AE14               	goto	u2911
  8752  001982  EFC5  F00C         	goto	u2910
  8753  001986  EFC7  F00C         u2911:
  8754  00198A                     	goto	l845
  8755  00198A  EFE3  F00C         u2910:
  8756  00198E                     	line	194
  8757                           	
  8758                           l2936:
  8759  00198E                     	movff	(c:___fladd@grs),??___fladd+0+0
  8760  00198E  C014  F009         	movlw	07Fh
  8761  001992  0E7F               	andwf	(??___fladd+0+0),c
  8762  001994  1609               	btfsc	status,2
  8763  001996  B4D8               	goto	u2921
  8764  001998  EFD0  F00C         	goto	u2920
  8765  00199C  EFD2  F00C         u2921:
  8766  0019A0                     	goto	l846
  8767  0019A0  EFD6  F00C         u2920:
  8768  0019A4                     	line	195
  8769                           	
  8770                           l2938:
  8771  0019A4                     	movlw	low(01h)
  8772  0019A4  0E01               	movwf	((c:___fladd@aexp)),c
  8773  0019A6  6E12               	line	196
  8774                           	goto	l845
  8775  0019A8  EFE3  F00C         	line	197
  8776                           	
  8777                           l846:
  8778  0019AC                     	line	198
  8779                           	
  8780                           	btfss	((c:___fladd@b)),c,(0)&7
  8781  0019AC  A001               	goto	u2931
  8782  0019AE  EFDB  F00C         	goto	u2930
  8783  0019B2  EFDD  F00C         u2931:
  8784  0019B6                     	goto	l845
  8785  0019B6  EFE3  F00C         u2930:
  8786  0019BA                     	line	199
  8787                           	
  8788                           l2940:
  8789  0019BA                     	movlw	low(01h)
  8790  0019BA  0E01               	movwf	((c:___fladd@aexp)),c
  8791  0019BC  6E12               	goto	l845
  8792  0019BE  EFE3  F00C         	line	200
  8793                           	
  8794                           l848:
  8795  0019C2                     	goto	l845
  8796  0019C2  EFE3  F00C         	line	201
  8797                           	
  8798                           l847:
  8799  0019C6                     	line	202
  8800                           	
  8801                           l845:
  8802  0019C6                     	line	203
  8803                           	movf	((c:___fladd@aexp)),c,w
  8804  0019C6  5012               	btfsc	status,2
  8805  0019C8  B4D8               	goto	u2941
  8806  0019CA  EFE9  F00C         	goto	u2940
  8807  0019CE  EFEB  F00C         u2941:
  8808  0019D2                     	goto	l2950
  8809  0019D2  EF1C  F00D         u2940:
  8810  0019D6                     	line	204
  8811                           	
  8812                           l2942:
  8813  0019D6                     	movlw	low(01h)
  8814  0019D6  0E01               	addwf	((c:___fladd@b)),c
  8815  0019D8  2601               	movlw	0
  8816  0019DA  0E00               	addwfc	((c:___fladd@b+1)),c
  8817  0019DC  2202               	addwfc	((c:___fladd@b+2)),c
  8818  0019DE  2203               	addwfc	((c:___fladd@b+3)),c
  8819  0019E0  2204               	line	205
  8820                           	
  8821                           l2944:
  8822  0019E2                     	
  8823                           	btfss	((c:___fladd@b+3)),c,(24)&7
  8824  0019E2  A004               	goto	u2951
  8825  0019E4  EFF6  F00C         	goto	u2950
  8826  0019E8  EFF8  F00C         u2951:
  8827  0019EC                     	goto	l2950
  8828  0019EC  EF1C  F00D         u2950:
  8829  0019F0                     	line	206
  8830                           	
  8831                           l2946:
  8832  0019F0                     	movff	(c:___fladd@b),??___fladd+0+0
  8833  0019F0  C001  F009         	movff	(c:___fladd@b+1),??___fladd+0+0+1
  8834  0019F4  C002  F00A         	movff	(c:___fladd@b+2),??___fladd+0+0+2
  8835  0019F8  C003  F00B         	movff	(c:___fladd@b+3),??___fladd+0+0+3
  8836  0019FC  C004  F00C         	rlcf	(??___fladd+0+3),c,w
  8837  001A00  340C               	rrcf	(??___fladd+0+3),c
  8838  001A02  320C               	rrcf	(??___fladd+0+2),c
  8839  001A04  320B               	rrcf	(??___fladd+0+1),c
  8840  001A06  320A               	rrcf	(??___fladd+0+0),c
  8841  001A08  3209               	movff	??___fladd+0+0,(c:___fladd@b)
  8842  001A0A  C009  F001         	movff	??___fladd+0+1,(c:___fladd@b+1)
  8843  001A0E  C00A  F002         	movff	??___fladd+0+2,(c:___fladd@b+2)
  8844  001A12  C00B  F003         	movff	??___fladd+0+3,(c:___fladd@b+3)
  8845  001A16  C00C  F004         	line	207
  8846                           		incf	((c:___fladd@bexp)),c,w
  8847  001A1A  2813               	btfsc	status,2
  8848  001A1C  B4D8               	goto	u2961
  8849  001A1E  EF13  F00D         	goto	u2960
  8850  001A22  EF15  F00D         
  8851                           u2961:
  8852  001A26                     	goto	l2950
  8853  001A26  EF1C  F00D         u2960:
  8854  001A2A                     	line	208
  8855                           	
  8856                           l2948:
  8857  001A2A                     	incf	((c:___fladd@bexp)),c
  8858  001A2A  2A13               	goto	l2950
  8859  001A2C  EF1C  F00D         	line	209
  8860                           	
  8861                           l851:
  8862  001A30                     	goto	l2950
  8863  001A30  EF1C  F00D         	line	210
  8864                           	
  8865                           l850:
  8866  001A34                     	goto	l2950
  8867  001A34  EF1C  F00D         	line	211
  8868                           	
  8869                           l849:
  8870  001A38                     	line	215
  8871                           	
  8872                           l2950:
  8873  001A38                     		incf	((c:___fladd@bexp)),c,w
  8874  001A38  2813               	btfsc	status,2
  8875  001A3A  B4D8               	goto	u2971
  8876  001A3C  EF22  F00D         	goto	u2970
  8877  001A40  EF24  F00D         
  8878                           u2971:
  8879  001A44                     	goto	l2954
  8880  001A44  EF2E  F00D         u2970:
  8881  001A48                     	
  8882                           l2952:
  8883  001A48                     	movf	((c:___fladd@bexp)),c,w
  8884  001A48  5013               	btfss	status,2
  8885  001A4A  A4D8               	goto	u2981
  8886  001A4C  EF2A  F00D         	goto	u2980
  8887  001A50  EF2C  F00D         u2981:
  8888  001A54                     	goto	l2958
  8889  001A54  EF44  F00D         u2980:
  8890  001A58                     	goto	l2954
  8891  001A58  EF2E  F00D         	
  8892                           l854:
  8893  001A5C                     	line	216
  8894                           	
  8895                           l2954:
  8896  001A5C                     	movlw	low(0)
  8897  001A5C  0E00               	movwf	((c:___fladd@b)),c
  8898  001A5E  6E01               	movlw	high(0)
  8899  001A60  0E00               	movwf	((c:___fladd@b+1)),c
  8900  001A62  6E02               	movlw	low highword(0)
  8901  001A64  0E00               	movwf	((c:___fladd@b+2)),c
  8902  001A66  6E03               	movlw	high highword(0)
  8903  001A68  0E00               	movwf	((c:___fladd@b+3)),c
  8904  001A6A  6E04               	line	218
  8905                           	movf	((c:___fladd@bexp)),c,w
  8906  001A6C  5013               	btfss	status,2
  8907  001A6E  A4D8               	goto	u2991
  8908  001A70  EF3C  F00D         	goto	u2990
  8909  001A74  EF3E  F00D         u2991:
  8910  001A78                     	goto	l2958
  8911  001A78  EF44  F00D         u2990:
  8912  001A7C                     	line	219
  8913                           	
  8914                           l2956:
  8915  001A7C                     	movlw	low(0)
  8916  001A7C  0E00               	movwf	((c:___fladd@signs)),c
  8917  001A7E  6E11               	goto	l2958
  8918  001A80  EF44  F00D         	line	220
  8919                           	
  8920                           l855:
  8921  001A84                     	goto	l2958
  8922  001A84  EF44  F00D         	line	221
  8923                           	
  8924                           l852:
  8925  001A88                     	line	225
  8926                           	
  8927                           l2958:
  8928  001A88                     	
  8929                           	btfss	((c:___fladd@bexp)),c,(0)&7
  8930  001A88  A013               	goto	u3001
  8931  001A8A  EF49  F00D         	goto	u3000
  8932  001A8E  EF4B  F00D         u3001:
  8933  001A92                     	goto	l2962
  8934  001A92  EF4E  F00D         u3000:
  8935  001A96                     	line	226
  8936                           	
  8937                           l2960:
  8938  001A96                     	bsf	(0+(7/8)+0+((c:___fladd@b)+02h)),c,(7)&7
  8939  001A96  8E03               	line	227
  8940                           	goto	l2964
  8941  001A98  EF51  F00D         	line	229
  8942                           	
  8943                           l856:
  8944  001A9C                     	line	230
  8945                           	
  8946                           l2962:
  8947  001A9C                     	bcf	(0+(7/8)+0+((c:___fladd@b)+02h)),c,(7)&7
  8948  001A9C  9E03               	goto	l2964
  8949  001A9E  EF51  F00D         	line	231
  8950                           	
  8951                           l857:
  8952  001AA2                     	line	232
  8953                           	
  8954                           l2964:
  8955  001AA2                     	bcf	status,0
  8956  001AA2  90D8               	rrcf	((c:___fladd@bexp)),c,w
  8957  001AA4  3013               	movwf	(0+((c:___fladd@b)+03h)),c
  8958  001AA6  6E04               	line	233
  8959                           	
  8960                           l2966:
  8961  001AA8                     	
  8962                           	btfss	((c:___fladd@signs)),c,(7)&7
  8963  001AA8  AE11               	goto	u3011
  8964  001AAA  EF59  F00D         	goto	u3010
  8965  001AAE  EF5B  F00D         u3011:
  8966  001AB2                     	goto	l2970
  8967  001AB2  EF5E  F00D         u3010:
  8968  001AB6                     	line	234
  8969                           	
  8970                           l2968:
  8971  001AB6                     	bsf	(0+(7/8)+0+((c:___fladd@b)+03h)),c,(7)&7
  8972  001AB6  8E04               	goto	l2970
  8973  001AB8  EF5E  F00D         	line	235
  8974                           	
  8975                           l858:
  8976  001ABC                     	line	236
  8977                           	
  8978                           l2970:
  8979  001ABC                     	movff	(c:___fladd@b),(c:?___fladd)
  8980  001ABC  C001  F001         	movff	(c:___fladd@b+1),(c:?___fladd+1)
  8981  001AC0  C002  F002         	movff	(c:___fladd@b+2),(c:?___fladd+2)
  8982  001AC4  C003  F003         	movff	(c:___fladd@b+3),(c:?___fladd+3)
  8983  001AC8  C004  F004         	goto	l828
  8984  001ACC  EF68  F00D         	
  8985                           l2972:
  8986  001AD0                     	line	237
  8987                           	
  8988                           l828:
  8989  001AD0                     	return	;funcret
  8990  001AD0  0012               	opt stack 0
  8991                           GLOBAL	__end_of___fladd
  8992                           	__end_of___fladd:
  8993  001AD2                     	signat	___fladd,8316
  8994                           	global	___flneg
  8995                           
  8996 ;; *************** function ___flneg *****************
  8997 ;; Defined at:
  8998 ;;		line 15 in file "/opt/microchip/xc8/v2.00/pic/sources/c99/common/flneg.c"
  8999 ;; Parameters:    Size  Location     Type
  9000 ;;  f1              4    0[COMRAM] unsigned char 
  9001 ;; Auto vars:     Size  Location     Type
  9002 ;;		None
  9003 ;; Return value:  Size  Location     Type
  9004 ;;                  4    0[COMRAM] unsigned char 
  9005 ;; Registers used:
  9006 ;;		wreg, status,2, status,0
  9007 ;; Tracked objects:
  9008 ;;		On entry : 0/0
  9009 ;;		On exit  : 0/0
  9010 ;;		Unchanged: 0/0
  9011 ;; Data sizes:     COMRAM   BANK0   BANK1   BANK2   BANK3   BANK4   BANK5   BANK6   BANK7
  9012 ;;      Params:         4       0       0       0       0       0       0       0       0
  9013 ;;      Locals:         0       0       0       0       0       0       0       0       0
  9014 ;;      Temps:          0       0       0       0       0       0       0       0       0
  9015 ;;      Totals:         4       0       0       0       0       0       0       0       0
  9016 ;;Total ram usage:        4 bytes
  9017 ;; Hardware stack levels used:    1
  9018 ;; This function calls:
  9019 ;;		Nothing
  9020 ;; This function is called by:
  9021 ;;		_efgtoa
  9022 ;; This function uses a non-reentrant model
  9023 ;;
  9024                           psect	text20,class=CODE,space=0,reloc=2,group=1
  9025                           	file	"/opt/microchip/xc8/v2.00/pic/sources/c99/common/flneg.c"
  9026                           	line	15
  9027                           global __ptext20
  9028                           __ptext20:
  9029  004164                     psect	text20
  9030                           	file	"/opt/microchip/xc8/v2.00/pic/sources/c99/common/flneg.c"
  9031                           	line	15
  9032                           	global	__size_of___flneg
  9033                           	__size_of___flneg	equ	__end_of___flneg-___flneg
  9034  0000                     	
  9035                           ___flneg:
  9036  004164                     ;incstack = 0
  9037                           	opt	stack 26
  9038                           	line	17
  9039                           	
  9040                           l3462:
  9041  004164                     	movf	((c:___flneg@f1)),c,w
  9042  004164  5001               iorwf	((c:___flneg@f1+1)),c,w
  9043  004166  1002               iorwf	((c:___flneg@f1+2)),c,w
  9044  004168  1003               iorwf	((c:___flneg@f1+3)),c,w
  9045  00416A  1004               	btfsc	status,2
  9046  00416C  B4D8               	goto	u3921
  9047  00416E  EFBB  F020         	goto	u3920
  9048  004172  EFBD  F020         
  9049                           u3921:
  9050  004176                     	goto	l3466
  9051  004176  EFC7  F020         u3920:
  9052  00417A                     	line	18
  9053                           	
  9054                           l3464:
  9055  00417A                     	movlw	0
  9056  00417A  0E00               	xorwf	((c:___flneg@f1)),c
  9057  00417C  1A01               	movlw	0
  9058  00417E  0E00               	xorwf	((c:___flneg@f1+1)),c
  9059  004180  1A02               	movlw	0
  9060  004182  0E00               	xorwf	((c:___flneg@f1+2)),c
  9061  004184  1A03               	movlw	080h
  9062  004186  0E80               	xorwf	((c:___flneg@f1+3)),c
  9063  004188  1A04               	goto	l3466
  9064  00418A  EFC7  F020         	
  9065                           l564:
  9066  00418E                     	line	19
  9067                           	
  9068                           l3466:
  9069  00418E                     	movff	(c:___flneg@f1),(c:?___flneg)
  9070  00418E  C001  F001         	movff	(c:___flneg@f1+1),(c:?___flneg+1)
  9071  004192  C002  F002         	movff	(c:___flneg@f1+2),(c:?___flneg+2)
  9072  004196  C003  F003         	movff	(c:___flneg@f1+3),(c:?___flneg+3)
  9073  00419A  C004  F004         	goto	l565
  9074  00419E  EFD1  F020         	
  9075                           l3468:
  9076  0041A2                     	line	20
  9077                           	
  9078                           l565:
  9079  0041A2                     	return	;funcret
  9080  0041A2  0012               	opt stack 0
  9081                           GLOBAL	__end_of___flneg
  9082                           	__end_of___flneg:
  9083  0041A4                     	signat	___flneg,4220
  9084                           	global	___flmul
  9085                           
  9086 ;; *************** function ___flmul *****************
  9087 ;; Defined at:
  9088 ;;		line 8 in file "/opt/microchip/xc8/v2.00/pic/sources/c99/common/sprcmul.c"
  9089 ;; Parameters:    Size  Location     Type
  9090 ;;  b               4   14[COMRAM] unsigned char 
  9091 ;;  a               4   18[COMRAM] unsigned char 
  9092 ;; Auto vars:     Size  Location     Type
  9093 ;;  prod            4   33[COMRAM] struct .
  9094 ;;  grs             4   27[COMRAM] unsigned long 
  9095 ;;  temp            2   37[COMRAM] struct .
  9096 ;;  bexp            1   32[COMRAM] unsigned char 
  9097 ;;  aexp            1   31[COMRAM] unsigned char 
  9098 ;;  sign            1   26[COMRAM] unsigned char 
  9099 ;; Return value:  Size  Location     Type
  9100 ;;                  4   14[COMRAM] unsigned char 
  9101 ;; Registers used:
  9102 ;;		wreg, status,2, status,0, prodl, prodh
  9103 ;; Tracked objects:
  9104 ;;		On entry : 0/0
  9105 ;;		On exit  : 0/0
  9106 ;;		Unchanged: 0/0
  9107 ;; Data sizes:     COMRAM   BANK0   BANK1   BANK2   BANK3   BANK4   BANK5   BANK6   BANK7
  9108 ;;      Params:         8       0       0       0       0       0       0       0       0
  9109 ;;      Locals:        13       0       0       0       0       0       0       0       0
  9110 ;;      Temps:          4       0       0       0       0       0       0       0       0
  9111 ;;      Totals:        25       0       0       0       0       0       0       0       0
  9112 ;;Total ram usage:       25 bytes
  9113 ;; Hardware stack levels used:    1
  9114 ;; This function calls:
  9115 ;;		Nothing
  9116 ;; This function is called by:
  9117 ;;		_main
  9118 ;;		_efgtoa
  9119 ;; This function uses a non-reentrant model
  9120 ;;
  9121                           psect	text21,class=CODE,space=0,reloc=2,group=1
  9122                           	file	"/opt/microchip/xc8/v2.00/pic/sources/c99/common/sprcmul.c"
  9123                           	line	8
  9124                           global __ptext21
  9125                           __ptext21:
  9126  001FE2                     psect	text21
  9127                           	file	"/opt/microchip/xc8/v2.00/pic/sources/c99/common/sprcmul.c"
  9128                           	line	8
  9129                           	global	__size_of___flmul
  9130                           	__size_of___flmul	equ	__end_of___flmul-___flmul
  9131  0000                     	
  9132                           ___flmul:
  9133  001FE2                     ;incstack = 0
  9134                           	opt	stack 26
  9135                           	line	17
  9136                           	
  9137                           l3208:
  9138  001FE2                     	movf	(0+((c:___flmul@b)+03h)),c,w
  9139  001FE2  5012               	andlw	low(080h)
  9140  001FE4  0B80               	movwf	((c:___flmul@sign)),c
  9141  001FE6  6E1B               	line	18
  9142                           	movf	(0+((c:___flmul@b)+03h)),c,w
  9143  001FE8  5012               	addwf	(0+((c:___flmul@b)+03h)),c,w
  9144  001FEA  2412               	movwf	((c:___flmul@bexp)),c
  9145  001FEC  6E21               	line	19
  9146                           	
  9147                           l3210:
  9148  001FEE                     	
  9149                           	btfss	(0+((c:___flmul@b)+02h)),c,(7)&7
  9150  001FEE  AE11               	goto	u3531
  9151  001FF0  EFFC  F00F         	goto	u3530
  9152  001FF4  EFFE  F00F         u3531:
  9153  001FF8                     	goto	l3214
  9154  001FF8  EF01  F010         u3530:
  9155  001FFC                     	line	20
  9156                           	
  9157                           l3212:
  9158  001FFC                     	bsf	(0+(0/8)+(c:___flmul@bexp)),c,(0)&7
  9159  001FFC  8021               	goto	l3214
  9160  001FFE  EF01  F010         	line	21
  9161                           	
  9162                           l898:
  9163  002002                     	line	24
  9164                           	
  9165                           l3214:
  9166  002002                     	movf	((c:___flmul@bexp)),c,w
  9167  002002  5021               	btfsc	status,2
  9168  002004  B4D8               	goto	u3541
  9169  002006  EF07  F010         	goto	u3540
  9170  00200A  EF09  F010         u3541:
  9171  00200E                     	goto	l3222
  9172  00200E  EF1E  F010         u3540:
  9173  002012                     	line	26
  9174                           	
  9175                           l3216:
  9176  002012                     		incf	((c:___flmul@bexp)),c,w
  9177  002012  2821               	btfss	status,2
  9178  002014  A4D8               	goto	u3551
  9179  002016  EF0F  F010         	goto	u3550
  9180  00201A  EF11  F010         
  9181                           u3551:
  9182  00201E                     	goto	l3220
  9183  00201E  EF1B  F010         u3550:
  9184  002022                     	line	28
  9185                           	
  9186                           l3218:
  9187  002022                     	movlw	low(normalize32(0x0))
  9188  002022  0E00               	movwf	((c:___flmul@b)),c
  9189  002024  6E0F               	movlw	high(normalize32(0x0))
  9190  002026  0E00               	movwf	((c:___flmul@b+1)),c
  9191  002028  6E10               	movlw	low highword(normalize32(0x0))
  9192  00202A  0E00               	movwf	((c:___flmul@b+2)),c
  9193  00202C  6E11               	movlw	high highword(normalize32(0x0))
  9194  00202E  0E00               	movwf	((c:___flmul@b+3)),c
  9195  002030  6E12               	goto	l3220
  9196  002032  EF1B  F010         	line	29
  9197                           	
  9198                           l900:
  9199  002036                     	line	31
  9200                           	
  9201                           l3220:
  9202  002036                     	bsf	(0+(23/8)+(c:___flmul@b)),c,(23)&7
  9203  002036  8E11               	line	33
  9204                           	goto	l3224
  9205  002038  EF28  F010         	line	34
  9206                           	
  9207                           l899:
  9208  00203C                     	line	36
  9209                           	
  9210                           l3222:
  9211  00203C                     	movlw	low(normalize32(0x0))
  9212  00203C  0E00               	movwf	((c:___flmul@b)),c
  9213  00203E  6E0F               	movlw	high(normalize32(0x0))
  9214  002040  0E00               	movwf	((c:___flmul@b+1)),c
  9215  002042  6E10               	movlw	low highword(normalize32(0x0))
  9216  002044  0E00               	movwf	((c:___flmul@b+2)),c
  9217  002046  6E11               	movlw	high highword(normalize32(0x0))
  9218  002048  0E00               	movwf	((c:___flmul@b+3)),c
  9219  00204A  6E12               	goto	l3224
  9220  00204C  EF28  F010         	line	37
  9221                           	
  9222                           l901:
  9223  002050                     	line	39
  9224                           	
  9225                           l3224:
  9226  002050                     	movf	(0+((c:___flmul@a)+03h)),c,w
  9227  002050  5016               	andlw	low(080h)
  9228  002052  0B80               	xorwf	((c:___flmul@sign)),c
  9229  002054  1A1B               	line	40
  9230                           	
  9231                           l3226:
  9232  002056                     	movf	(0+((c:___flmul@a)+03h)),c,w
  9233  002056  5016               	addwf	(0+((c:___flmul@a)+03h)),c,w
  9234  002058  2416               	movwf	((c:___flmul@aexp)),c
  9235  00205A  6E20               	line	41
  9236                           	
  9237                           l3228:
  9238  00205C                     	
  9239                           	btfss	(0+((c:___flmul@a)+02h)),c,(7)&7
  9240  00205C  AE15               	goto	u3561
  9241  00205E  EF33  F010         	goto	u3560
  9242  002062  EF35  F010         u3561:
  9243  002066                     	goto	l3232
  9244  002066  EF38  F010         u3560:
  9245  00206A                     	line	42
  9246                           	
  9247                           l3230:
  9248  00206A                     	bsf	(0+(0/8)+(c:___flmul@aexp)),c,(0)&7
  9249  00206A  8020               	goto	l3232
  9250  00206C  EF38  F010         	line	43
  9251                           	
  9252                           l902:
  9253  002070                     	line	45
  9254                           	
  9255                           l3232:
  9256  002070                     	movf	((c:___flmul@aexp)),c,w
  9257  002070  5020               	btfsc	status,2
  9258  002072  B4D8               	goto	u3571
  9259  002074  EF3E  F010         	goto	u3570
  9260  002078  EF40  F010         u3571:
  9261  00207C                     	goto	l3240
  9262  00207C  EF55  F010         u3570:
  9263  002080                     	line	48
  9264                           	
  9265                           l3234:
  9266  002080                     		incf	((c:___flmul@aexp)),c,w
  9267  002080  2820               	btfss	status,2
  9268  002082  A4D8               	goto	u3581
  9269  002084  EF46  F010         	goto	u3580
  9270  002088  EF48  F010         
  9271                           u3581:
  9272  00208C                     	goto	l3238
  9273  00208C  EF52  F010         u3580:
  9274  002090                     	line	50
  9275                           	
  9276                           l3236:
  9277  002090                     	movlw	low(normalize32(0x0))
  9278  002090  0E00               	movwf	((c:___flmul@a)),c
  9279  002092  6E13               	movlw	high(normalize32(0x0))
  9280  002094  0E00               	movwf	((c:___flmul@a+1)),c
  9281  002096  6E14               	movlw	low highword(normalize32(0x0))
  9282  002098  0E00               	movwf	((c:___flmul@a+2)),c
  9283  00209A  6E15               	movlw	high highword(normalize32(0x0))
  9284  00209C  0E00               	movwf	((c:___flmul@a+3)),c
  9285  00209E  6E16               	goto	l3238
  9286  0020A0  EF52  F010         	line	51
  9287                           	
  9288                           l904:
  9289  0020A4                     	line	53
  9290                           	
  9291                           l3238:
  9292  0020A4                     	bsf	(0+(23/8)+(c:___flmul@a)),c,(23)&7
  9293  0020A4  8E15               	line	54
  9294                           	goto	l905
  9295  0020A6  EF5D  F010         	line	55
  9296                           	
  9297                           l903:
  9298  0020AA                     	line	57
  9299                           	
  9300                           l3240:
  9301  0020AA                     	movlw	low(normalize32(0x0))
  9302  0020AA  0E00               	movwf	((c:___flmul@a)),c
  9303  0020AC  6E13               	movlw	high(normalize32(0x0))
  9304  0020AE  0E00               	movwf	((c:___flmul@a+1)),c
  9305  0020B0  6E14               	movlw	low highword(normalize32(0x0))
  9306  0020B2  0E00               	movwf	((c:___flmul@a+2)),c
  9307  0020B4  6E15               	movlw	high highword(normalize32(0x0))
  9308  0020B6  0E00               	movwf	((c:___flmul@a+3)),c
  9309  0020B8  6E16               	line	58
  9310                           	
  9311                           l905:
  9312  0020BA                     	line	65
  9313                           	movf	((c:___flmul@aexp)),c,w
  9314  0020BA  5020               	btfsc	status,2
  9315  0020BC  B4D8               	goto	u3591
  9316  0020BE  EF63  F010         	goto	u3590
  9317  0020C2  EF65  F010         u3591:
  9318  0020C6                     	goto	l3244
  9319  0020C6  EF6F  F010         u3590:
  9320  0020CA                     	
  9321                           l3242:
  9322  0020CA                     	movf	((c:___flmul@bexp)),c,w
  9323  0020CA  5021               	btfss	status,2
  9324  0020CC  A4D8               	goto	u3601
  9325  0020CE  EF6B  F010         	goto	u3600
  9326  0020D2  EF6D  F010         u3601:
  9327  0020D6                     	goto	l3248
  9328  0020D6  EF7B  F010         u3600:
  9329  0020DA                     	goto	l3244
  9330  0020DA  EF6F  F010         	
  9331                           l908:
  9332  0020DE                     	line	66
  9333                           	
  9334                           l3244:
  9335  0020DE                     	movlw	low(normalize32(0x0))
  9336  0020DE  0E00               	movwf	((c:?___flmul)),c
  9337  0020E0  6E0F               	movlw	high(normalize32(0x0))
  9338  0020E2  0E00               	movwf	((c:?___flmul+1)),c
  9339  0020E4  6E10               	movlw	low highword(normalize32(0x0))
  9340  0020E6  0E00               	movwf	((c:?___flmul+2)),c
  9341  0020E8  6E11               	movlw	high highword(normalize32(0x0))
  9342  0020EA  0E00               	movwf	((c:?___flmul+3)),c
  9343  0020EC  6E12               	goto	l909
  9344  0020EE  EF27  F012         	
  9345                           l3246:
  9346  0020F2                     	goto	l909
  9347  0020F2  EF27  F012         	line	67
  9348                           	
  9349                           l906:
  9350  0020F6                     	line	95
  9351                           	
  9352                           l3248:
  9353  0020F6                     	movf	(0+((c:___flmul@a)+02h)),c,w
  9354  0020F6  5015               	mulwf	((c:___flmul@b)),c
  9355  0020F8  020F               	movff	prodl,(c:___flmul@temp)
  9356  0020FA  CFF3 F026          	movff	prodh,(c:___flmul@temp+1)
  9357  0020FE  CFF4 F027          	line	96
  9358                           	
  9359                           l3250:
  9360  002102                     	movf	((c:___flmul@temp)),c,w
  9361  002102  5026               	movwf	((c:___flmul@grs)),c
  9362  002104  6E1C               	clrf	((c:___flmul@grs+1)),c
  9363  002106  6A1D               	clrf	((c:___flmul@grs+2)),c
  9364  002108  6A1E               	clrf	((c:___flmul@grs+3)),c
  9365  00210A  6A1F               
  9366                           	line	97
  9367                           	
  9368                           l3252:
  9369  00210C                     	movf	(0+((c:___flmul@temp)+01h)),c,w
  9370  00210C  5027               	movwf	((c:___flmul@prod)),c
  9371  00210E  6E22               	clrf	((c:___flmul@prod+1)),c
  9372  002110  6A23               	clrf	((c:___flmul@prod+2)),c
  9373  002112  6A24               	clrf	((c:___flmul@prod+3)),c
  9374  002114  6A25               
  9375                           	line	98
  9376                           	movf	(0+((c:___flmul@a)+01h)),c,w
  9377  002116  5014               	mulwf	(0+((c:___flmul@b)+01h)),c
  9378  002118  0210               	movff	prodl,(c:___flmul@temp)
  9379  00211A  CFF3 F026          	movff	prodh,(c:___flmul@temp+1)
  9380  00211E  CFF4 F027          	line	99
  9381                           	
  9382                           l3254:
  9383  002122                     	movf	((c:___flmul@temp)),c,w
  9384  002122  5026               	addwf	((c:___flmul@grs)),c
  9385  002124  261C               	movlw	0
  9386  002126  0E00               	addwfc	((c:___flmul@grs+1)),c
  9387  002128  221D               	addwfc	((c:___flmul@grs+2)),c
  9388  00212A  221E               	addwfc	((c:___flmul@grs+3)),c
  9389  00212C  221F               	line	100
  9390                           	
  9391                           l3256:
  9392  00212E                     	movf	(0+((c:___flmul@temp)+01h)),c,w
  9393  00212E  5027               	addwf	((c:___flmul@prod)),c
  9394  002130  2622               	movlw	0
  9395  002132  0E00               	addwfc	((c:___flmul@prod+1)),c
  9396  002134  2223               	addwfc	((c:___flmul@prod+2)),c
  9397  002136  2224               	addwfc	((c:___flmul@prod+3)),c
  9398  002138  2225               	line	101
  9399                           	movf	((c:___flmul@a)),c,w
  9400  00213A  5013               	mulwf	(0+((c:___flmul@b)+02h)),c
  9401  00213C  0211               	movff	prodl,(c:___flmul@temp)
  9402  00213E  CFF3 F026          	movff	prodh,(c:___flmul@temp+1)
  9403  002142  CFF4 F027          	line	102
  9404                           	
  9405                           l3258:
  9406  002146                     	movf	((c:___flmul@temp)),c,w
  9407  002146  5026               	addwf	((c:___flmul@grs)),c
  9408  002148  261C               	movlw	0
  9409  00214A  0E00               	addwfc	((c:___flmul@grs+1)),c
  9410  00214C  221D               	addwfc	((c:___flmul@grs+2)),c
  9411  00214E  221E               	addwfc	((c:___flmul@grs+3)),c
  9412  002150  221F               	line	103
  9413                           	
  9414                           l3260:
  9415  002152                     	movf	(0+((c:___flmul@temp)+01h)),c,w
  9416  002152  5027               	addwf	((c:___flmul@prod)),c
  9417  002154  2622               	movlw	0
  9418  002156  0E00               	addwfc	((c:___flmul@prod+1)),c
  9419  002158  2223               	addwfc	((c:___flmul@prod+2)),c
  9420  00215A  2224               	addwfc	((c:___flmul@prod+3)),c
  9421  00215C  2225               	line	104
  9422                           	
  9423                           l3262:
  9424  00215E                     	movff	(c:___flmul@grs+2),(c:___flmul@grs+3)
  9425  00215E  C01E  F01F         	movff	(c:___flmul@grs+1),(c:___flmul@grs+2)
  9426  002162  C01D  F01E         	movff	(c:___flmul@grs),(c:___flmul@grs+1)
  9427  002166  C01C  F01D         	clrf	((c:___flmul@grs)),c
  9428  00216A  6A1C               	line	105
  9429                           	
  9430                           l3264:
  9431  00216C                     	movf	((c:___flmul@a)),c,w
  9432  00216C  5013               	mulwf	(0+((c:___flmul@b)+01h)),c
  9433  00216E  0210               	movff	prodl,(c:___flmul@temp)
  9434  002170  CFF3 F026          	movff	prodh,(c:___flmul@temp+1)
  9435  002174  CFF4 F027          	line	106
  9436                           	
  9437                           l3266:
  9438  002178                     	movf	((c:___flmul@temp)),c,w
  9439  002178  5026               	addwf	((c:___flmul@grs)),c
  9440  00217A  261C               	movf	((c:___flmul@temp+1)),c,w
  9441  00217C  5027               	addwfc	((c:___flmul@grs+1)),c
  9442  00217E  221D               	movlw	0
  9443  002180  0E00               	addwfc	((c:___flmul@grs+2)),c
  9444  002182  221E               	movlw	0
  9445  002184  0E00               	addwfc	((c:___flmul@grs+3)),c
  9446  002186  221F               
  9447                           	line	107
  9448                           	
  9449                           l3268:
  9450  002188                     	movf	(0+((c:___flmul@a)+01h)),c,w
  9451  002188  5014               	mulwf	((c:___flmul@b)),c
  9452  00218A  020F               	movff	prodl,(c:___flmul@temp)
  9453  00218C  CFF3 F026          	movff	prodh,(c:___flmul@temp+1)
  9454  002190  CFF4 F027          	line	108
  9455                           	
  9456                           l3270:
  9457  002194                     	movf	((c:___flmul@temp)),c,w
  9458  002194  5026               	addwf	((c:___flmul@grs)),c
  9459  002196  261C               	movf	((c:___flmul@temp+1)),c,w
  9460  002198  5027               	addwfc	((c:___flmul@grs+1)),c
  9461  00219A  221D               	movlw	0
  9462  00219C  0E00               	addwfc	((c:___flmul@grs+2)),c
  9463  00219E  221E               	movlw	0
  9464  0021A0  0E00               	addwfc	((c:___flmul@grs+3)),c
  9465  0021A2  221F               
  9466                           	line	109
  9467                           	
  9468                           l3272:
  9469  0021A4                     	movff	(c:___flmul@grs+2),(c:___flmul@grs+3)
  9470  0021A4  C01E  F01F         	movff	(c:___flmul@grs+1),(c:___flmul@grs+2)
  9471  0021A8  C01D  F01E         	movff	(c:___flmul@grs),(c:___flmul@grs+1)
  9472  0021AC  C01C  F01D         	clrf	((c:___flmul@grs)),c
  9473  0021B0  6A1C               	line	110
  9474                           	movf	((c:___flmul@a)),c,w
  9475  0021B2  5013               	mulwf	((c:___flmul@b)),c
  9476  0021B4  020F               	movff	prodl,(c:___flmul@temp)
  9477  0021B6  CFF3 F026          	movff	prodh,(c:___flmul@temp+1)
  9478  0021BA  CFF4 F027          	line	111
  9479                           	
  9480                           l3274:
  9481  0021BE                     	movf	((c:___flmul@temp)),c,w
  9482  0021BE  5026               	addwf	((c:___flmul@grs)),c
  9483  0021C0  261C               	movf	((c:___flmul@temp+1)),c,w
  9484  0021C2  5027               	addwfc	((c:___flmul@grs+1)),c
  9485  0021C4  221D               	movlw	0
  9486  0021C6  0E00               	addwfc	((c:___flmul@grs+2)),c
  9487  0021C8  221E               	movlw	0
  9488  0021CA  0E00               	addwfc	((c:___flmul@grs+3)),c
  9489  0021CC  221F               
  9490                           	line	112
  9491                           	
  9492                           l3276:
  9493  0021CE                     	movf	(0+((c:___flmul@a)+02h)),c,w
  9494  0021CE  5015               	mulwf	(0+((c:___flmul@b)+01h)),c
  9495  0021D0  0210               	movff	prodl,(c:___flmul@temp)
  9496  0021D2  CFF3 F026          	movff	prodh,(c:___flmul@temp+1)
  9497  0021D6  CFF4 F027          	line	113
  9498                           	movf	((c:___flmul@temp)),c,w
  9499  0021DA  5026               	addwf	((c:___flmul@prod)),c
  9500  0021DC  2622               	movf	((c:___flmul@temp+1)),c,w
  9501  0021DE  5027               	addwfc	((c:___flmul@prod+1)),c
  9502  0021E0  2223               	movlw	0
  9503  0021E2  0E00               	addwfc	((c:___flmul@prod+2)),c
  9504  0021E4  2224               	movlw	0
  9505  0021E6  0E00               	addwfc	((c:___flmul@prod+3)),c
  9506  0021E8  2225               
  9507                           	line	114
  9508                           	
  9509                           l3278:
  9510  0021EA                     	movf	(0+((c:___flmul@a)+01h)),c,w
  9511  0021EA  5014               	mulwf	(0+((c:___flmul@b)+02h)),c
  9512  0021EC  0211               	movff	prodl,(c:___flmul@temp)
  9513  0021EE  CFF3 F026          	movff	prodh,(c:___flmul@temp+1)
  9514  0021F2  CFF4 F027          	line	115
  9515                           	
  9516                           l3280:
  9517  0021F6                     	movf	((c:___flmul@temp)),c,w
  9518  0021F6  5026               	addwf	((c:___flmul@prod)),c
  9519  0021F8  2622               	movf	((c:___flmul@temp+1)),c,w
  9520  0021FA  5027               	addwfc	((c:___flmul@prod+1)),c
  9521  0021FC  2223               	movlw	0
  9522  0021FE  0E00               	addwfc	((c:___flmul@prod+2)),c
  9523  002200  2224               	movlw	0
  9524  002202  0E00               	addwfc	((c:___flmul@prod+3)),c
  9525  002204  2225               
  9526                           	line	116
  9527                           	movf	(0+((c:___flmul@a)+02h)),c,w
  9528  002206  5015               	mulwf	(0+((c:___flmul@b)+02h)),c
  9529  002208  0211               	movff	prodl,(c:___flmul@temp)
  9530  00220A  CFF3 F026          	movff	prodh,(c:___flmul@temp+1)
  9531  00220E  CFF4 F027          	line	117
  9532                           	
  9533                           l3282:
  9534  002212                     	movf	((c:___flmul@temp)),c,w
  9535  002212  5026               	movwf	(??___flmul+0+0)&0ffh,c
  9536  002214  6E17               	movf	((c:___flmul@temp+1)),c,w
  9537  002216  5027               	movwf	1+(??___flmul+0+0)&0ffh,c
  9538  002218  6E18               	
  9539                           	clrf	2+(??___flmul+0+0)&0ffh,c
  9540  00221A  6A19               	
  9541                           	clrf	3+(??___flmul+0+0)&0ffh,c
  9542  00221C  6A1A               	movff	??___flmul+0+2,??___flmul+0+3
  9543  00221E  C019  F01A         	movff	??___flmul+0+1,??___flmul+0+2
  9544  002222  C018  F019         	movff	??___flmul+0+0,??___flmul+0+1
  9545  002226  C017  F018         	clrf	(??___flmul+0+0),c
  9546  00222A  6A17               	movf	(??___flmul+0+0),c,w
  9547  00222C  5017               	addwf	((c:___flmul@prod)),c
  9548  00222E  2622               	movf	(??___flmul+0+1),c,w
  9549  002230  5018               	addwfc	((c:___flmul@prod+1)),c
  9550  002232  2223               	movf	(??___flmul+0+2),c,w
  9551  002234  5019               	addwfc	((c:___flmul@prod+2)),c
  9552  002236  2224               	movf	(??___flmul+0+3),c,w
  9553  002238  501A               	addwfc	((c:___flmul@prod+3)),c
  9554  00223A  2225               
  9555                           	line	145
  9556                           	
  9557                           l3284:
  9558  00223C                     	movff	(c:___flmul@grs),??___flmul+0+0
  9559  00223C  C01C  F017         	movff	(c:___flmul@grs+1),??___flmul+0+0+1
  9560  002240  C01D  F018         	movff	(c:___flmul@grs+2),??___flmul+0+0+2
  9561  002244  C01E  F019         	movff	(c:___flmul@grs+3),??___flmul+0+0+3
  9562  002248  C01F  F01A         	movlw	018h+1
  9563  00224C  0E19               	goto	u3610
  9564  00224E  EF2E  F011         u3615:
  9565  002252                     	bcf	status,0
  9566  002252  90D8               	rrcf	(??___flmul+0+3),c
  9567  002254  321A               	rrcf	(??___flmul+0+2),c
  9568  002256  3219               	rrcf	(??___flmul+0+1),c
  9569  002258  3218               	rrcf	(??___flmul+0+0),c
  9570  00225A  3217               u3610:
  9571  00225C                     	decfsz	wreg
  9572  00225C  2EE8               	goto	u3615
  9573  00225E  EF29  F011         	movf	(??___flmul+0+0),c,w
  9574  002262  5017               	addwf	((c:___flmul@prod)),c
  9575  002264  2622               	movf	(??___flmul+0+1),c,w
  9576  002266  5018               	addwfc	((c:___flmul@prod+1)),c
  9577  002268  2223               	movf	(??___flmul+0+2),c,w
  9578  00226A  5019               	addwfc	((c:___flmul@prod+2)),c
  9579  00226C  2224               	movf	(??___flmul+0+3),c,w
  9580  00226E  501A               	addwfc	((c:___flmul@prod+3)),c
  9581  002270  2225               
  9582                           	line	146
  9583                           	
  9584                           l3286:
  9585  002272                     	movff	(c:___flmul@grs+2),(c:___flmul@grs+3)
  9586  002272  C01E  F01F         	movff	(c:___flmul@grs+1),(c:___flmul@grs+2)
  9587  002276  C01D  F01E         	movff	(c:___flmul@grs),(c:___flmul@grs+1)
  9588  00227A  C01C  F01D         	clrf	((c:___flmul@grs)),c
  9589  00227E  6A1C               	line	149
  9590                           	
  9591                           l3288:
  9592  002280                     	movf	((c:___flmul@aexp)),c,w
  9593  002280  5020               	movff	(c:___flmul@bexp),??___flmul+0+0
  9594  002282  C021  F017         	clrf	(??___flmul+0+0+1)&0ffh,c
  9595  002286  6A18               	addwf	(??___flmul+0+0),c
  9596  002288  2617               	movlw	0
  9597  00228A  0E00               	addwfc	(??___flmul+0+1),c
  9598  00228C  2218               	movlw	low(-126)
  9599  00228E  0E82               	addwf	(??___flmul+0+0),c,w
  9600  002290  2417               	movwf	((c:___flmul@temp)),c
  9601  002292  6E26               	movlw	high(-126)
  9602  002294  0EFF               	addwfc	(??___flmul+0+1),c,w
  9603  002296  2018               	movwf	1+((c:___flmul@temp)),c
  9604  002298  6E27               	line	152
  9605                           	goto	l3296
  9606  00229A  EF66  F011         	
  9607                           l911:
  9608  00229E                     	line	153
  9609                           	
  9610                           l3290:
  9611  00229E                     	bcf	status,0
  9612  00229E  90D8               	rlcf	((c:___flmul@prod)),c
  9613  0022A0  3622               	rlcf	((c:___flmul@prod+1)),c
  9614  0022A2  3623               	rlcf	((c:___flmul@prod+2)),c
  9615  0022A4  3624               	rlcf	((c:___flmul@prod+3)),c
  9616  0022A6  3625               	line	154
  9617                           	
  9618                           l3292:
  9619  0022A8                     	
  9620                           	btfss	((c:___flmul@grs+3)),c,(31)&7
  9621  0022A8  AE1F               	goto	u3621
  9622  0022AA  EF59  F011         	goto	u3620
  9623  0022AE  EF5B  F011         u3621:
  9624  0022B2                     	goto	l912
  9625  0022B2  EF5C  F011         u3620:
  9626  0022B6                     	line	155
  9627                           	
  9628                           l3294:
  9629  0022B6                     	bsf	(0+(0/8)+(c:___flmul@prod)),c,(0)&7
  9630  0022B6  8022               	line	156
  9631                           	
  9632                           l912:
  9633  0022B8                     	line	157
  9634                           	bcf	status,0
  9635  0022B8  90D8               	rlcf	((c:___flmul@grs)),c
  9636  0022BA  361C               	rlcf	((c:___flmul@grs+1)),c
  9637  0022BC  361D               	rlcf	((c:___flmul@grs+2)),c
  9638  0022BE  361E               	rlcf	((c:___flmul@grs+3)),c
  9639  0022C0  361F               	line	158
  9640                           	decf	((c:___flmul@temp)),c
  9641  0022C2  0626               	btfss	status,0
  9642  0022C4  A0D8               	decf	((c:___flmul@temp+1)),c
  9643  0022C6  0627               	goto	l3296
  9644  0022C8  EF66  F011         	line	159
  9645                           	
  9646                           l910:
  9647  0022CC                     	line	152
  9648                           	
  9649                           l3296:
  9650  0022CC                     	
  9651                           	btfss	((c:___flmul@prod+2)),c,(23)&7
  9652  0022CC  AE24               	goto	u3631
  9653  0022CE  EF6B  F011         	goto	u3630
  9654  0022D2  EF6D  F011         u3631:
  9655  0022D6                     	goto	l3290
  9656  0022D6  EF4F  F011         u3630:
  9657  0022DA                     	goto	l3298
  9658  0022DA  EF6F  F011         	
  9659                           l913:
  9660  0022DE                     	line	163
  9661                           	
  9662                           l3298:
  9663  0022DE                     	movlw	low(0)
  9664  0022DE  0E00               	movwf	((c:___flmul@aexp)),c
  9665  0022E0  6E20               	line	164
  9666                           	
  9667                           l3300:
  9668  0022E2                     	
  9669                           	btfss	((c:___flmul@grs+3)),c,(31)&7
  9670  0022E2  AE1F               	goto	u3641
  9671  0022E4  EF76  F011         	goto	u3640
  9672  0022E8  EF78  F011         u3641:
  9673  0022EC                     	goto	l914
  9674  0022EC  EFA0  F011         u3640:
  9675  0022F0                     	line	165
  9676                           	
  9677                           l3302:
  9678  0022F0                     	movlw	0FFh
  9679  0022F0  0EFF               	andwf	((c:___flmul@grs)),c,w
  9680  0022F2  141C               	movwf	(??___flmul+0+0)&0ffh,c
  9681  0022F4  6E17               	movlw	0FFh
  9682  0022F6  0EFF               	andwf	((c:___flmul@grs+1)),c,w
  9683  0022F8  141D               	movwf	1+(??___flmul+0+0)&0ffh,c
  9684  0022FA  6E18               	
  9685                           	movlw	0FFh
  9686  0022FC  0EFF               	andwf	((c:___flmul@grs+2)),c,w
  9687  0022FE  141E               	movwf	2+(??___flmul+0+0)&0ffh,c
  9688  002300  6E19               	
  9689                           	movlw	07Fh
  9690  002302  0E7F               	andwf	((c:___flmul@grs+3)),c,w
  9691  002304  141F               	movwf	3+(??___flmul+0+0)&0ffh,c
  9692  002306  6E1A               	movf	(??___flmul+0+0),c,w
  9693  002308  5017               iorwf	(??___flmul+0+1),c,w
  9694  00230A  1018               iorwf	(??___flmul+0+2),c,w
  9695  00230C  1019               iorwf	(??___flmul+0+3),c,w
  9696  00230E  101A               	btfsc	status,2
  9697  002310  B4D8               	goto	u3651
  9698  002312  EF8D  F011         	goto	u3650
  9699  002316  EF8F  F011         
  9700                           u3651:
  9701  00231A                     	goto	l915
  9702  00231A  EF93  F011         u3650:
  9703  00231E                     	line	166
  9704                           	
  9705                           l3304:
  9706  00231E                     	movlw	low(01h)
  9707  00231E  0E01               	movwf	((c:___flmul@aexp)),c
  9708  002320  6E20               	line	167
  9709                           	goto	l914
  9710  002322  EFA0  F011         	line	168
  9711                           	
  9712                           l915:
  9713  002326                     	line	169
  9714                           	
  9715                           	btfss	((c:___flmul@prod)),c,(0)&7
  9716  002326  A022               	goto	u3661
  9717  002328  EF98  F011         	goto	u3660
  9718  00232C  EF9A  F011         u3661:
  9719  002330                     	goto	l914
  9720  002330  EFA0  F011         u3660:
  9721  002334                     	line	170
  9722                           	
  9723                           l3306:
  9724  002334                     	movlw	low(01h)
  9725  002334  0E01               	movwf	((c:___flmul@aexp)),c
  9726  002336  6E20               	goto	l914
  9727  002338  EFA0  F011         	line	171
  9728                           	
  9729                           l917:
  9730  00233C                     	goto	l914
  9731  00233C  EFA0  F011         	line	172
  9732                           	
  9733                           l916:
  9734  002340                     	line	173
  9735                           	
  9736                           l914:
  9737  002340                     	line	174
  9738                           	movf	((c:___flmul@aexp)),c,w
  9739  002340  5020               	btfsc	status,2
  9740  002342  B4D8               	goto	u3671
  9741  002344  EFA6  F011         	goto	u3670
  9742  002348  EFA8  F011         u3671:
  9743  00234C                     	goto	l3316
  9744  00234C  EFD0  F011         u3670:
  9745  002350                     	line	175
  9746                           	
  9747                           l3308:
  9748  002350                     	movlw	low(01h)
  9749  002350  0E01               	addwf	((c:___flmul@prod)),c
  9750  002352  2622               	movlw	0
  9751  002354  0E00               	addwfc	((c:___flmul@prod+1)),c
  9752  002356  2223               	addwfc	((c:___flmul@prod+2)),c
  9753  002358  2224               	addwfc	((c:___flmul@prod+3)),c
  9754  00235A  2225               	line	176
  9755                           	
  9756                           l3310:
  9757  00235C                     	
  9758                           	btfss	((c:___flmul@prod+3)),c,(24)&7
  9759  00235C  A025               	goto	u3681
  9760  00235E  EFB3  F011         	goto	u3680
  9761  002362  EFB5  F011         u3681:
  9762  002366                     	goto	l3316
  9763  002366  EFD0  F011         u3680:
  9764  00236A                     	line	177
  9765                           	
  9766                           l3312:
  9767  00236A                     	movff	(c:___flmul@prod),??___flmul+0+0
  9768  00236A  C022  F017         	movff	(c:___flmul@prod+1),??___flmul+0+0+1
  9769  00236E  C023  F018         	movff	(c:___flmul@prod+2),??___flmul+0+0+2
  9770  002372  C024  F019         	movff	(c:___flmul@prod+3),??___flmul+0+0+3
  9771  002376  C025  F01A         	rlcf	(??___flmul+0+3),c,w
  9772  00237A  341A               	rrcf	(??___flmul+0+3),c
  9773  00237C  321A               	rrcf	(??___flmul+0+2),c
  9774  00237E  3219               	rrcf	(??___flmul+0+1),c
  9775  002380  3218               	rrcf	(??___flmul+0+0),c
  9776  002382  3217               	movff	??___flmul+0+0,(c:___flmul@prod)
  9777  002384  C017  F022         	movff	??___flmul+0+1,(c:___flmul@prod+1)
  9778  002388  C018  F023         	movff	??___flmul+0+2,(c:___flmul@prod+2)
  9779  00238C  C019  F024         	movff	??___flmul+0+3,(c:___flmul@prod+3)
  9780  002390  C01A  F025         	line	178
  9781                           	
  9782                           l3314:
  9783  002394                     	infsnz	((c:___flmul@temp)),c
  9784  002394  4A26               	incf	((c:___flmul@temp+1)),c
  9785  002396  2A27               	goto	l3316
  9786  002398  EFD0  F011         	line	179
  9787                           	
  9788                           l919:
  9789  00239C                     	goto	l3316
  9790  00239C  EFD0  F011         	line	180
  9791                           	
  9792                           l918:
  9793  0023A0                     	line	183
  9794                           	
  9795                           l3316:
  9796  0023A0                     	btfsc	((c:___flmul@temp+1)),c,7
  9797  0023A0  BE27               	goto	u3691
  9798  0023A2  EFDB  F011         	movf	((c:___flmul@temp+1)),c,w
  9799  0023A6  5027               	bnz	u3690
  9800  0023A8  E108               	incf	((c:___flmul@temp)),c,w
  9801  0023AA  2826               	btfss	status,0
  9802  0023AC  A0D8               	goto	u3691
  9803  0023AE  EFDB  F011         	goto	u3690
  9804  0023B2  EFDD  F011         
  9805                           u3691:
  9806  0023B6                     	goto	l3320
  9807  0023B6  EFE7  F011         u3690:
  9808  0023BA                     	line	184
  9809                           	
  9810                           l3318:
  9811  0023BA                     	movlw	low(07F800000h)
  9812  0023BA  0E00               	movwf	((c:___flmul@prod)),c
  9813  0023BC  6E22               	movlw	high(07F800000h)
  9814  0023BE  0E00               	movwf	((c:___flmul@prod+1)),c
  9815  0023C0  6E23               	movlw	low highword(07F800000h)
  9816  0023C2  0E80               	movwf	((c:___flmul@prod+2)),c
  9817  0023C4  6E24               	movlw	high highword(07F800000h)
  9818  0023C6  0E7F               	movwf	((c:___flmul@prod+3)),c
  9819  0023C8  6E25               	line	185
  9820                           	goto	l3332
  9821  0023CA  EF1B  F012         	line	187
  9822                           	
  9823                           l920:
  9824  0023CE                     	
  9825                           l3320:
  9826  0023CE                     	btfsc	((c:___flmul@temp+1)),c,7
  9827  0023CE  BE27               	goto	u3700
  9828  0023D0  EFF4  F011         	movf	((c:___flmul@temp+1)),c,w
  9829  0023D4  5027               	bnz	u3701
  9830  0023D6  E106               	decf	((c:___flmul@temp)),c,w
  9831  0023D8  0426               	btfsc	status,0
  9832  0023DA  B0D8               	goto	u3701
  9833  0023DC  EFF2  F011         	goto	u3700
  9834  0023E0  EFF4  F011         
  9835                           u3701:
  9836  0023E4                     	goto	l922
  9837  0023E4  EF00  F012         u3700:
  9838  0023E8                     	line	188
  9839                           	
  9840                           l3322:
  9841  0023E8                     	movlw	low(0)
  9842  0023E8  0E00               	movwf	((c:___flmul@prod)),c
  9843  0023EA  6E22               	movlw	high(0)
  9844  0023EC  0E00               	movwf	((c:___flmul@prod+1)),c
  9845  0023EE  6E23               	movlw	low highword(0)
  9846  0023F0  0E00               	movwf	((c:___flmul@prod+2)),c
  9847  0023F2  6E24               	movlw	high highword(0)
  9848  0023F4  0E00               	movwf	((c:___flmul@prod+3)),c
  9849  0023F6  6E25               	line	190
  9850                           	movlw	low(0)
  9851  0023F8  0E00               	movwf	((c:___flmul@sign)),c
  9852  0023FA  6E1B               	line	191
  9853                           	goto	l3332
  9854  0023FC  EF1B  F012         	line	192
  9855                           	
  9856                           l922:
  9857  002400                     	line	194
  9858                           	movff	(c:___flmul@temp),(c:___flmul@bexp)
  9859  002400  C026  F021         	line	195
  9860                           	
  9861                           l3324:
  9862  002404                     	movlw	0FFh
  9863  002404  0EFF               	andwf	((c:___flmul@prod)),c
  9864  002406  1622               	movlw	0FFh
  9865  002408  0EFF               	andwf	((c:___flmul@prod+1)),c
  9866  00240A  1623               	movlw	07Fh
  9867  00240C  0E7F               	andwf	((c:___flmul@prod+2)),c
  9868  00240E  1624               	movlw	0
  9869  002410  0E00               	andwf	((c:___flmul@prod+3)),c
  9870  002412  1625               	line	196
  9871                           	
  9872                           l3326:
  9873  002414                     	
  9874                           	btfss	((c:___flmul@bexp)),c,(0)&7
  9875  002414  A021               	goto	u3711
  9876  002416  EF0F  F012         	goto	u3710
  9877  00241A  EF11  F012         u3711:
  9878  00241E                     	goto	l3330
  9879  00241E  EF14  F012         u3710:
  9880  002422                     	line	197
  9881                           	
  9882                           l3328:
  9883  002422                     	bsf	(0+(7/8)+0+((c:___flmul@prod)+02h)),c,(7)&7
  9884  002422  8E24               	goto	l3330
  9885  002424  EF14  F012         	line	198
  9886                           	
  9887                           l924:
  9888  002428                     	line	199
  9889                           	
  9890                           l3330:
  9891  002428                     	bcf	status,0
  9892  002428  90D8               	rrcf	((c:___flmul@bexp)),c,w
  9893  00242A  3021               	movwf	(0+((c:___flmul@prod)+03h)),c
  9894  00242C  6E25               	goto	l3332
  9895  00242E  EF1B  F012         	line	200
  9896                           	
  9897                           l923:
  9898  002432                     	goto	l3332
  9899  002432  EF1B  F012         	
  9900                           l921:
  9901  002436                     	line	201
  9902                           	
  9903                           l3332:
  9904  002436                     	movf	((c:___flmul@sign)),c,w
  9905  002436  501B               	iorwf	(0+((c:___flmul@prod)+03h)),c
  9906  002438  1225               	line	203
  9907                           	
  9908                           l3334:
  9909  00243A                     	movff	(c:___flmul@prod),(c:?___flmul)
  9910  00243A  C022  F00F         	movff	(c:___flmul@prod+1),(c:?___flmul+1)
  9911  00243E  C023  F010         	movff	(c:___flmul@prod+2),(c:?___flmul+2)
  9912  002442  C024  F011         	movff	(c:___flmul@prod+3),(c:?___flmul+3)
  9913  002446  C025  F012         	goto	l909
  9914  00244A  EF27  F012         	
  9915                           l3336:
  9916  00244E                     	line	205
  9917                           	
  9918                           l909:
  9919  00244E                     	return	;funcret
  9920  00244E  0012               	opt stack 0
  9921                           GLOBAL	__end_of___flmul
  9922                           	__end_of___flmul:
  9923  002450                     	signat	___flmul,8316
  9924                           	global	___flge
  9925                           
  9926 ;; *************** function ___flge *****************
  9927 ;; Defined at:
  9928 ;;		line 4 in file "/opt/microchip/xc8/v2.00/pic/sources/c99/common/flge.c"
  9929 ;; Parameters:    Size  Location     Type
  9930 ;;  ff1             4   39[COMRAM] unsigned char 
  9931 ;;  ff2             4   43[COMRAM] unsigned char 
  9932 ;; Auto vars:     Size  Location     Type
  9933 ;;		None
  9934 ;; Return value:  Size  Location     Type
  9935 ;;		None               void
  9936 ;; Registers used:
  9937 ;;		wreg, status,2, status,0
  9938 ;; Tracked objects:
  9939 ;;		On entry : 0/0
  9940 ;;		On exit  : 0/0
  9941 ;;		Unchanged: 0/0
  9942 ;; Data sizes:     COMRAM   BANK0   BANK1   BANK2   BANK3   BANK4   BANK5   BANK6   BANK7
  9943 ;;      Params:         8       0       0       0       0       0       0       0       0
  9944 ;;      Locals:         0       0       0       0       0       0       0       0       0
  9945 ;;      Temps:          4       0       0       0       0       0       0       0       0
  9946 ;;      Totals:        12       0       0       0       0       0       0       0       0
  9947 ;;Total ram usage:       12 bytes
  9948 ;; Hardware stack levels used:    1
  9949 ;; This function calls:
  9950 ;;		Nothing
  9951 ;; This function is called by:
  9952 ;;		_efgtoa
  9953 ;; This function uses a non-reentrant model
  9954 ;;
  9955                           psect	text22,class=CODE,space=0,reloc=2,group=1
  9956                           	file	"/opt/microchip/xc8/v2.00/pic/sources/c99/common/flge.c"
  9957                           	line	4
  9958                           global __ptext22
  9959                           __ptext22:
  9960  002E8C                     psect	text22
  9961                           	file	"/opt/microchip/xc8/v2.00/pic/sources/c99/common/flge.c"
  9962                           	line	4
  9963                           	global	__size_of___flge
  9964                           	__size_of___flge	equ	__end_of___flge-___flge
  9965  0000                     	
  9966                           ___flge:
  9967  002E8C                     ;incstack = 0
  9968                           	opt	stack 26
  9969                           	line	7
  9970                           	
  9971                           l3440:
  9972  002E8C                     	movlw	0
  9973  002E8C  0E00               	andwf	((c:___flge@ff1)),c,w
  9974  002E8E  1428               	movwf	(??___flge+0+0)&0ffh,c
  9975  002E90  6E30               	movlw	0
  9976  002E92  0E00               	andwf	((c:___flge@ff1+1)),c,w
  9977  002E94  1429               	movwf	1+(??___flge+0+0)&0ffh,c
  9978  002E96  6E31               	
  9979                           	movlw	080h
  9980  002E98  0E80               	andwf	((c:___flge@ff1+2)),c,w
  9981  002E9A  142A               	movwf	2+(??___flge+0+0)&0ffh,c
  9982  002E9C  6E32               	
  9983                           	movlw	07Fh
  9984  002E9E  0E7F               	andwf	((c:___flge@ff1+3)),c,w
  9985  002EA0  142B               	movwf	3+(??___flge+0+0)&0ffh,c
  9986  002EA2  6E33               	movf	(??___flge+0+0),c,w
  9987  002EA4  5030               iorwf	(??___flge+0+1),c,w
  9988  002EA6  1031               iorwf	(??___flge+0+2),c,w
  9989  002EA8  1032               iorwf	(??___flge+0+3),c,w
  9990  002EAA  1033               	btfss	status,2
  9991  002EAC  A4D8               	goto	u3871
  9992  002EAE  EF5B  F017         	goto	u3870
  9993  002EB2  EF5D  F017         
  9994                           u3871:
  9995  002EB6                     	goto	l3444
  9996  002EB6  EF67  F017         u3870:
  9997  002EBA                     	line	8
  9998                           	
  9999                           l3442:
 10000  002EBA                     	movlw	low(0)
 10001  002EBA  0E00               	movwf	((c:___flge@ff1)),c
 10002  002EBC  6E28               	movlw	high(0)
 10003  002EBE  0E00               	movwf	((c:___flge@ff1+1)),c
 10004  002EC0  6E29               	movlw	low highword(0)
 10005  002EC2  0E00               	movwf	((c:___flge@ff1+2)),c
 10006  002EC4  6E2A               	movlw	high highword(0)
 10007  002EC6  0E00               	movwf	((c:___flge@ff1+3)),c
 10008  002EC8  6E2B               	goto	l3444
 10009  002ECA  EF67  F017         	
 10010                           l553:
 10011  002ECE                     	line	9
 10012                           	
 10013                           l3444:
 10014  002ECE                     	movlw	0
 10015  002ECE  0E00               	andwf	((c:___flge@ff2)),c,w
 10016  002ED0  142C               	movwf	(??___flge+0+0)&0ffh,c
 10017  002ED2  6E30               	movlw	0
 10018  002ED4  0E00               	andwf	((c:___flge@ff2+1)),c,w
 10019  002ED6  142D               	movwf	1+(??___flge+0+0)&0ffh,c
 10020  002ED8  6E31               	
 10021                           	movlw	080h
 10022  002EDA  0E80               	andwf	((c:___flge@ff2+2)),c,w
 10023  002EDC  142E               	movwf	2+(??___flge+0+0)&0ffh,c
 10024  002EDE  6E32               	
 10025                           	movlw	07Fh
 10026  002EE0  0E7F               	andwf	((c:___flge@ff2+3)),c,w
 10027  002EE2  142F               	movwf	3+(??___flge+0+0)&0ffh,c
 10028  002EE4  6E33               	movf	(??___flge+0+0),c,w
 10029  002EE6  5030               iorwf	(??___flge+0+1),c,w
 10030  002EE8  1031               iorwf	(??___flge+0+2),c,w
 10031  002EEA  1032               iorwf	(??___flge+0+3),c,w
 10032  002EEC  1033               	btfss	status,2
 10033  002EEE  A4D8               	goto	u3881
 10034  002EF0  EF7C  F017         	goto	u3880
 10035  002EF4  EF7E  F017         
 10036                           u3881:
 10037  002EF8                     	goto	l3448
 10038  002EF8  EF88  F017         u3880:
 10039  002EFC                     	line	10
 10040                           	
 10041                           l3446:
 10042  002EFC                     	movlw	low(0)
 10043  002EFC  0E00               	movwf	((c:___flge@ff2)),c
 10044  002EFE  6E2C               	movlw	high(0)
 10045  002F00  0E00               	movwf	((c:___flge@ff2+1)),c
 10046  002F02  6E2D               	movlw	low highword(0)
 10047  002F04  0E00               	movwf	((c:___flge@ff2+2)),c
 10048  002F06  6E2E               	movlw	high highword(0)
 10049  002F08  0E00               	movwf	((c:___flge@ff2+3)),c
 10050  002F0A  6E2F               	goto	l3448
 10051  002F0C  EF88  F017         	
 10052                           l554:
 10053  002F10                     	line	12
 10054                           	
 10055                           l3448:
 10056  002F10                     	
 10057                           	btfss	((c:___flge@ff1+3)),c,(31)&7
 10058  002F10  AE2B               	goto	u3891
 10059  002F12  EF8D  F017         	goto	u3890
 10060  002F16  EF8F  F017         u3891:
 10061  002F1A                     	goto	l3452
 10062  002F1A  EFAE  F017         u3890:
 10063  002F1E                     	line	13
 10064                           	
 10065                           l3450:
 10066  002F1E                     	movff	(c:___flge@ff1),??___flge+0+0
 10067  002F1E  C028  F030         	movff	(c:___flge@ff1+1),??___flge+0+0+1
 10068  002F22  C029  F031         	movff	(c:___flge@ff1+2),??___flge+0+0+2
 10069  002F26  C02A  F032         	movff	(c:___flge@ff1+3),??___flge+0+0+3
 10070  002F2A  C02B  F033         	comf	(??___flge+0+0),c
 10071  002F2E  1E30               	comf	(??___flge+0+1),c
 10072  002F30  1E31               	comf	(??___flge+0+2),c
 10073  002F32  1E32               	comf	(??___flge+0+3),c
 10074  002F34  1E33               	incf	(??___flge+0+0),c
 10075  002F36  2A30               	movlw	0
 10076  002F38  0E00               	addwfc	(??___flge+0+1),c
 10077  002F3A  2231               	addwfc	(??___flge+0+2),c
 10078  002F3C  2232               	addwfc	(??___flge+0+3),c
 10079  002F3E  2233               	movlw	0
 10080  002F40  0E00               	addwf	(??___flge+0+0),c,w
 10081  002F42  2430               	movwf	((c:___flge@ff1)),c
 10082  002F44  6E28               	movlw	0
 10083  002F46  0E00               	addwfc	(??___flge+0+1),c,w
 10084  002F48  2031               	movwf	1+((c:___flge@ff1)),c
 10085  002F4A  6E29               	
 10086                           	movlw	0
 10087  002F4C  0E00               	addwfc	(??___flge+0+2),c,w
 10088  002F4E  2032               	movwf	2+((c:___flge@ff1)),c
 10089  002F50  6E2A               	
 10090                           	movlw	080h
 10091  002F52  0E80               	addwfc	(??___flge+0+3),c,w
 10092  002F54  2033               	movwf	3+((c:___flge@ff1)),c
 10093  002F56  6E2B               	goto	l3452
 10094  002F58  EFAE  F017         	
 10095                           l555:
 10096  002F5C                     	line	14
 10097                           	
 10098                           l3452:
 10099  002F5C                     	
 10100                           	btfss	((c:___flge@ff2+3)),c,(31)&7
 10101  002F5C  AE2F               	goto	u3901
 10102  002F5E  EFB3  F017         	goto	u3900
 10103  002F62  EFB5  F017         u3901:
 10104  002F66                     	goto	l556
 10105  002F66  EFD2  F017         u3900:
 10106  002F6A                     	line	15
 10107                           	
 10108                           l3454:
 10109  002F6A                     	movff	(c:___flge@ff2),??___flge+0+0
 10110  002F6A  C02C  F030         	movff	(c:___flge@ff2+1),??___flge+0+0+1
 10111  002F6E  C02D  F031         	movff	(c:___flge@ff2+2),??___flge+0+0+2
 10112  002F72  C02E  F032         	movff	(c:___flge@ff2+3),??___flge+0+0+3
 10113  002F76  C02F  F033         	comf	(??___flge+0+0),c
 10114  002F7A  1E30               	comf	(??___flge+0+1),c
 10115  002F7C  1E31               	comf	(??___flge+0+2),c
 10116  002F7E  1E32               	comf	(??___flge+0+3),c
 10117  002F80  1E33               	incf	(??___flge+0+0),c
 10118  002F82  2A30               	movlw	0
 10119  002F84  0E00               	addwfc	(??___flge+0+1),c
 10120  002F86  2231               	addwfc	(??___flge+0+2),c
 10121  002F88  2232               	addwfc	(??___flge+0+3),c
 10122  002F8A  2233               	movlw	0
 10123  002F8C  0E00               	addwf	(??___flge+0+0),c,w
 10124  002F8E  2430               	movwf	((c:___flge@ff2)),c
 10125  002F90  6E2C               	movlw	0
 10126  002F92  0E00               	addwfc	(??___flge+0+1),c,w
 10127  002F94  2031               	movwf	1+((c:___flge@ff2)),c
 10128  002F96  6E2D               	
 10129                           	movlw	0
 10130  002F98  0E00               	addwfc	(??___flge+0+2),c,w
 10131  002F9A  2032               	movwf	2+((c:___flge@ff2)),c
 10132  002F9C  6E2E               	
 10133                           	movlw	080h
 10134  002F9E  0E80               	addwfc	(??___flge+0+3),c,w
 10135  002FA0  2033               	movwf	3+((c:___flge@ff2)),c
 10136  002FA2  6E2F               	
 10137                           l556:
 10138  002FA4                     	line	16
 10139                           	movlw	0
 10140  002FA4  0E00               	xorwf	((c:___flge@ff1)),c
 10141  002FA6  1A28               	movlw	0
 10142  002FA8  0E00               	xorwf	((c:___flge@ff1+1)),c
 10143  002FAA  1A29               	movlw	0
 10144  002FAC  0E00               	xorwf	((c:___flge@ff1+2)),c
 10145  002FAE  1A2A               	movlw	080h
 10146  002FB0  0E80               	xorwf	((c:___flge@ff1+3)),c
 10147  002FB2  1A2B               	line	17
 10148                           	movlw	0
 10149  002FB4  0E00               	xorwf	((c:___flge@ff2)),c
 10150  002FB6  1A2C               	movlw	0
 10151  002FB8  0E00               	xorwf	((c:___flge@ff2+1)),c
 10152  002FBA  1A2D               	movlw	0
 10153  002FBC  0E00               	xorwf	((c:___flge@ff2+2)),c
 10154  002FBE  1A2E               	movlw	080h
 10155  002FC0  0E80               	xorwf	((c:___flge@ff2+3)),c
 10156  002FC2  1A2F               	line	18
 10157                           		movf	((c:___flge@ff2)),c,w
 10158  002FC4  502C               	subwf	((c:___flge@ff1)),c,w
 10159  002FC6  5C28               	movf	((c:___flge@ff2+1)),c,w
 10160  002FC8  502D               	subwfb	((c:___flge@ff1+1)),c,w
 10161  002FCA  5829               	movf	((c:___flge@ff2+2)),c,w
 10162  002FCC  502E               	subwfb	((c:___flge@ff1+2)),c,w
 10163  002FCE  582A               	movf	((c:___flge@ff2+3)),c,w
 10164  002FD0  502F               	subwfb	((c:___flge@ff1+3)),c,w
 10165  002FD2  582B               	btfsc	status,0
 10166  002FD4  B0D8               	goto	u3911
 10167  002FD6  EFEF  F017         	goto	u3910
 10168  002FDA  EFF1  F017         
 10169                           u3911:
 10170  002FDE                     	goto	l3458
 10171  002FDE  EFF4  F017         u3910:
 10172  002FE2                     	
 10173                           l3456:
 10174  002FE2                     	bcf	status,0
 10175  002FE2  90D8               	goto	l561
 10176  002FE4  EFF9  F017         	
 10177                           l558:
 10178  002FE8                     	
 10179                           l3458:
 10180  002FE8                     	bsf	status,0
 10181  002FE8  80D8               	goto	l561
 10182  002FEA  EFF9  F017         	
 10183                           l560:
 10184  002FEE                     	goto	l561
 10185  002FEE  EFF9  F017         	
 10186                           l3460:
 10187  002FF2                     	line	19
 10188                           	
 10189                           l561:
 10190  002FF2                     	return	;funcret
 10191  002FF2  0012               	opt stack 0
 10192                           GLOBAL	__end_of___flge
 10193                           	__end_of___flge:
 10194  002FF4                     	signat	___flge,8312
 10195                           	global	___fleq
 10196                           
 10197 ;; *************** function ___fleq *****************
 10198 ;; Defined at:
 10199 ;;		line 4 in file "/opt/microchip/xc8/v2.00/pic/sources/c99/common/fleq.c"
 10200 ;; Parameters:    Size  Location     Type
 10201 ;;  ff1             4    0[COMRAM] unsigned char 
 10202 ;;  ff2             4    4[COMRAM] unsigned char 
 10203 ;; Auto vars:     Size  Location     Type
 10204 ;;		None
 10205 ;; Return value:  Size  Location     Type
 10206 ;;		None               void
 10207 ;; Registers used:
 10208 ;;		wreg, status,2, status,0
 10209 ;; Tracked objects:
 10210 ;;		On entry : 0/0
 10211 ;;		On exit  : 0/0
 10212 ;;		Unchanged: 0/0
 10213 ;; Data sizes:     COMRAM   BANK0   BANK1   BANK2   BANK3   BANK4   BANK5   BANK6   BANK7
 10214 ;;      Params:         8       0       0       0       0       0       0       0       0
 10215 ;;      Locals:         0       0       0       0       0       0       0       0       0
 10216 ;;      Temps:          4       0       0       0       0       0       0       0       0
 10217 ;;      Totals:        12       0       0       0       0       0       0       0       0
 10218 ;;Total ram usage:       12 bytes
 10219 ;; Hardware stack levels used:    1
 10220 ;; This function calls:
 10221 ;;		Nothing
 10222 ;; This function is called by:
 10223 ;;		_main
 10224 ;;		_efgtoa
 10225 ;; This function uses a non-reentrant model
 10226 ;;
 10227                           psect	text23,class=CODE,space=0,reloc=2,group=1
 10228                           	file	"/opt/microchip/xc8/v2.00/pic/sources/c99/common/fleq.c"
 10229                           	line	4
 10230                           global __ptext23
 10231                           __ptext23:
 10232  003BB2                     psect	text23
 10233                           	file	"/opt/microchip/xc8/v2.00/pic/sources/c99/common/fleq.c"
 10234                           	line	4
 10235                           	global	__size_of___fleq
 10236                           	__size_of___fleq	equ	__end_of___fleq-___fleq
 10237  0000                     	
 10238                           ___fleq:
 10239  003BB2                     ;incstack = 0
 10240                           	opt	stack 26
 10241                           	line	7
 10242                           	
 10243                           l3424:
 10244  003BB2                     	movlw	0
 10245  003BB2  0E00               	andwf	((c:___fleq@ff1)),c,w
 10246  003BB4  1401               	movwf	(??___fleq+0+0)&0ffh,c
 10247  003BB6  6E09               	movlw	0
 10248  003BB8  0E00               	andwf	((c:___fleq@ff1+1)),c,w
 10249  003BBA  1402               	movwf	1+(??___fleq+0+0)&0ffh,c
 10250  003BBC  6E0A               	
 10251                           	movlw	080h
 10252  003BBE  0E80               	andwf	((c:___fleq@ff1+2)),c,w
 10253  003BC0  1403               	movwf	2+(??___fleq+0+0)&0ffh,c
 10254  003BC2  6E0B               	
 10255                           	movlw	07Fh
 10256  003BC4  0E7F               	andwf	((c:___fleq@ff1+3)),c,w
 10257  003BC6  1404               	movwf	3+(??___fleq+0+0)&0ffh,c
 10258  003BC8  6E0C               	movf	(??___fleq+0+0),c,w
 10259  003BCA  5009               iorwf	(??___fleq+0+1),c,w
 10260  003BCC  100A               iorwf	(??___fleq+0+2),c,w
 10261  003BCE  100B               iorwf	(??___fleq+0+3),c,w
 10262  003BD0  100C               	btfss	status,2
 10263  003BD2  A4D8               	goto	u3841
 10264  003BD4  EFEE  F01D         	goto	u3840
 10265  003BD8  EFF0  F01D         
 10266                           u3841:
 10267  003BDC                     	goto	l3428
 10268  003BDC  EFFA  F01D         u3840:
 10269  003BE0                     	line	8
 10270                           	
 10271                           l3426:
 10272  003BE0                     	movlw	low(0)
 10273  003BE0  0E00               	movwf	((c:___fleq@ff1)),c
 10274  003BE2  6E01               	movlw	high(0)
 10275  003BE4  0E00               	movwf	((c:___fleq@ff1+1)),c
 10276  003BE6  6E02               	movlw	low highword(0)
 10277  003BE8  0E00               	movwf	((c:___fleq@ff1+2)),c
 10278  003BEA  6E03               	movlw	high highword(0)
 10279  003BEC  0E00               	movwf	((c:___fleq@ff1+3)),c
 10280  003BEE  6E04               	goto	l3428
 10281  003BF0  EFFA  F01D         	
 10282                           l544:
 10283  003BF4                     	line	9
 10284                           	
 10285                           l3428:
 10286  003BF4                     	movlw	0
 10287  003BF4  0E00               	andwf	((c:___fleq@ff2)),c,w
 10288  003BF6  1405               	movwf	(??___fleq+0+0)&0ffh,c
 10289  003BF8  6E09               	movlw	0
 10290  003BFA  0E00               	andwf	((c:___fleq@ff2+1)),c,w
 10291  003BFC  1406               	movwf	1+(??___fleq+0+0)&0ffh,c
 10292  003BFE  6E0A               	
 10293                           	movlw	080h
 10294  003C00  0E80               	andwf	((c:___fleq@ff2+2)),c,w
 10295  003C02  1407               	movwf	2+(??___fleq+0+0)&0ffh,c
 10296  003C04  6E0B               	
 10297                           	movlw	07Fh
 10298  003C06  0E7F               	andwf	((c:___fleq@ff2+3)),c,w
 10299  003C08  1408               	movwf	3+(??___fleq+0+0)&0ffh,c
 10300  003C0A  6E0C               	movf	(??___fleq+0+0),c,w
 10301  003C0C  5009               iorwf	(??___fleq+0+1),c,w
 10302  003C0E  100A               iorwf	(??___fleq+0+2),c,w
 10303  003C10  100B               iorwf	(??___fleq+0+3),c,w
 10304  003C12  100C               	btfss	status,2
 10305  003C14  A4D8               	goto	u3851
 10306  003C16  EF0F  F01E         	goto	u3850
 10307  003C1A  EF11  F01E         
 10308                           u3851:
 10309  003C1E                     	goto	l3432
 10310  003C1E  EF1B  F01E         u3850:
 10311  003C22                     	line	10
 10312                           	
 10313                           l3430:
 10314  003C22                     	movlw	low(0)
 10315  003C22  0E00               	movwf	((c:___fleq@ff2)),c
 10316  003C24  6E05               	movlw	high(0)
 10317  003C26  0E00               	movwf	((c:___fleq@ff2+1)),c
 10318  003C28  6E06               	movlw	low highword(0)
 10319  003C2A  0E00               	movwf	((c:___fleq@ff2+2)),c
 10320  003C2C  6E07               	movlw	high highword(0)
 10321  003C2E  0E00               	movwf	((c:___fleq@ff2+3)),c
 10322  003C30  6E08               	goto	l3432
 10323  003C32  EF1B  F01E         	
 10324                           l545:
 10325  003C36                     	line	11
 10326                           	
 10327                           l3432:
 10328  003C36                     	movf	((c:___fleq@ff2)),c,w
 10329  003C36  5005               xorwf	((c:___fleq@ff1)),c,w
 10330  003C38  1801               	bnz	u3860
 10331  003C3A  E10F               movf	((c:___fleq@ff2+1)),c,w
 10332  003C3C  5006               xorwf	((c:___fleq@ff1+1)),c,w
 10333  003C3E  1802               	bnz	u3860
 10334  003C40  E10C               movf	((c:___fleq@ff2+2)),c,w
 10335  003C42  5007               xorwf	((c:___fleq@ff1+2)),c,w
 10336  003C44  1803               	bnz	u3860
 10337  003C46  E109               movf	((c:___fleq@ff2+3)),c,w
 10338  003C48  5008               xorwf	((c:___fleq@ff1+3)),c,w
 10339  003C4A  1804               	btfsc	status,2
 10340  003C4C  B4D8               	goto	u3861
 10341  003C4E  EF2B  F01E         	goto	u3860
 10342  003C52  EF2D  F01E         
 10343                           u3861:
 10344  003C56                     	goto	l3436
 10345  003C56  EF30  F01E         u3860:
 10346  003C5A                     	
 10347                           l3434:
 10348  003C5A                     	bcf	status,0
 10349  003C5A  90D8               	goto	l550
 10350  003C5C  EF35  F01E         	
 10351                           l547:
 10352  003C60                     	
 10353                           l3436:
 10354  003C60                     	bsf	status,0
 10355  003C60  80D8               	goto	l550
 10356  003C62  EF35  F01E         	
 10357                           l549:
 10358  003C66                     	goto	l550
 10359  003C66  EF35  F01E         	
 10360                           l3438:
 10361  003C6A                     	line	12
 10362                           	
 10363                           l550:
 10364  003C6A                     	return	;funcret
 10365  003C6A  0012               	opt stack 0
 10366                           GLOBAL	__end_of___fleq
 10367                           	__end_of___fleq:
 10368  003C6C                     	signat	___fleq,8312
 10369                           	global	___fldiv
 10370                           
 10371 ;; *************** function ___fldiv *****************
 10372 ;; Defined at:
 10373 ;;		line 11 in file "/opt/microchip/xc8/v2.00/pic/sources/c99/common/sprcdiv.c"
 10374 ;; Parameters:    Size  Location     Type
 10375 ;;  b               4    0[COMRAM] unsigned char 
 10376 ;;  a               4    4[COMRAM] unsigned char 
 10377 ;; Auto vars:     Size  Location     Type
 10378 ;;  grs             4   19[COMRAM] unsigned long 
 10379 ;;  rem             4   12[COMRAM] unsigned long 
 10380 ;;  new_exp         2   17[COMRAM] short 
 10381 ;;  aexp            1   24[COMRAM] unsigned char 
 10382 ;;  bexp            1   23[COMRAM] unsigned char 
 10383 ;;  sign            1   16[COMRAM] unsigned char 
 10384 ;; Return value:  Size  Location     Type
 10385 ;;                  4    0[COMRAM] unsigned char 
 10386 ;; Registers used:
 10387 ;;		wreg, status,2, status,0
 10388 ;; Tracked objects:
 10389 ;;		On entry : 0/0
 10390 ;;		On exit  : 0/0
 10391 ;;		Unchanged: 0/0
 10392 ;; Data sizes:     COMRAM   BANK0   BANK1   BANK2   BANK3   BANK4   BANK5   BANK6   BANK7
 10393 ;;      Params:         8       0       0       0       0       0       0       0       0
 10394 ;;      Locals:        13       0       0       0       0       0       0       0       0
 10395 ;;      Temps:          4       0       0       0       0       0       0       0       0
 10396 ;;      Totals:        25       0       0       0       0       0       0       0       0
 10397 ;;Total ram usage:       25 bytes
 10398 ;; Hardware stack levels used:    1
 10399 ;; This function calls:
 10400 ;;		Nothing
 10401 ;; This function is called by:
 10402 ;;		_efgtoa
 10403 ;; This function uses a non-reentrant model
 10404 ;;
 10405                           psect	text24,class=CODE,space=0,reloc=2,group=1
 10406                           	file	"/opt/microchip/xc8/v2.00/pic/sources/c99/common/sprcdiv.c"
 10407                           	line	11
 10408                           global __ptext24
 10409                           __ptext24:
 10410  002450                     psect	text24
 10411                           	file	"/opt/microchip/xc8/v2.00/pic/sources/c99/common/sprcdiv.c"
 10412                           	line	11
 10413                           	global	__size_of___fldiv
 10414                           	__size_of___fldiv	equ	__end_of___fldiv-___fldiv
 10415  0000                     	
 10416                           ___fldiv:
 10417  002450                     ;incstack = 0
 10418                           	opt	stack 26
 10419                           	line	26
 10420                           	
 10421                           l3070:
 10422  002450                     	movf	(0+((c:___fldiv@b)+03h)),c,w
 10423  002450  5004               	andlw	low(080h)
 10424  002452  0B80               	movwf	((c:___fldiv@sign)),c
 10425  002454  6E11               	line	27
 10426                           	movf	(0+((c:___fldiv@b)+03h)),c,w
 10427  002456  5004               	addwf	(0+((c:___fldiv@b)+03h)),c,w
 10428  002458  2404               	movwf	((c:___fldiv@bexp)),c
 10429  00245A  6E18               	line	28
 10430                           	
 10431                           l3072:
 10432  00245C                     	
 10433                           	btfss	(0+((c:___fldiv@b)+02h)),c,(7)&7
 10434  00245C  AE03               	goto	u3301
 10435  00245E  EF33  F012         	goto	u3300
 10436  002462  EF35  F012         u3301:
 10437  002466                     	goto	l3076
 10438  002466  EF38  F012         u3300:
 10439  00246A                     	line	29
 10440                           	
 10441                           l3074:
 10442  00246A                     	bsf	(0+(0/8)+(c:___fldiv@bexp)),c,(0)&7
 10443  00246A  8018               	goto	l3076
 10444  00246C  EF38  F012         	line	30
 10445                           	
 10446                           l864:
 10447  002470                     	line	33
 10448                           	
 10449                           l3076:
 10450  002470                     	movf	((c:___fldiv@bexp)),c,w
 10451  002470  5018               	btfsc	status,2
 10452  002472  B4D8               	goto	u3311
 10453  002474  EF3E  F012         	goto	u3310
 10454  002478  EF40  F012         u3311:
 10455  00247C                     	goto	l3086
 10456  00247C  EF57  F012         u3310:
 10457  002480                     	line	35
 10458                           	
 10459                           l3078:
 10460  002480                     		incf	((c:___fldiv@bexp)),c,w
 10461  002480  2818               	btfss	status,2
 10462  002482  A4D8               	goto	u3321
 10463  002484  EF46  F012         	goto	u3320
 10464  002488  EF48  F012         
 10465                           u3321:
 10466  00248C                     	goto	l3082
 10467  00248C  EF52  F012         u3320:
 10468  002490                     	line	37
 10469                           	
 10470                           l3080:
 10471  002490                     	movlw	low(normalize32(0x0))
 10472  002490  0E00               	movwf	((c:___fldiv@b)),c
 10473  002492  6E01               	movlw	high(normalize32(0x0))
 10474  002494  0E00               	movwf	((c:___fldiv@b+1)),c
 10475  002496  6E02               	movlw	low highword(normalize32(0x0))
 10476  002498  0E00               	movwf	((c:___fldiv@b+2)),c
 10477  00249A  6E03               	movlw	high highword(normalize32(0x0))
 10478  00249C  0E00               	movwf	((c:___fldiv@b+3)),c
 10479  00249E  6E04               	goto	l3082
 10480  0024A0  EF52  F012         	line	38
 10481                           	
 10482                           l866:
 10483  0024A4                     	line	40
 10484                           	
 10485                           l3082:
 10486  0024A4                     	bsf	(0+(23/8)+(c:___fldiv@b)),c,(23)&7
 10487  0024A4  8E03               	line	42
 10488                           	
 10489                           l3084:
 10490  0024A6                     	movlw	low(0)
 10491  0024A6  0E00               	movwf	(0+((c:___fldiv@b)+03h)),c
 10492  0024A8  6E04               	line	43
 10493                           	goto	l3088
 10494  0024AA  EF61  F012         	line	44
 10495                           	
 10496                           l865:
 10497  0024AE                     	line	46
 10498                           	
 10499                           l3086:
 10500  0024AE                     	movlw	low(normalize32(0x0))
 10501  0024AE  0E00               	movwf	((c:___fldiv@b)),c
 10502  0024B0  6E01               	movlw	high(normalize32(0x0))
 10503  0024B2  0E00               	movwf	((c:___fldiv@b+1)),c
 10504  0024B4  6E02               	movlw	low highword(normalize32(0x0))
 10505  0024B6  0E00               	movwf	((c:___fldiv@b+2)),c
 10506  0024B8  6E03               	movlw	high highword(normalize32(0x0))
 10507  0024BA  0E00               	movwf	((c:___fldiv@b+3)),c
 10508  0024BC  6E04               	goto	l3088
 10509  0024BE  EF61  F012         	line	47
 10510                           	
 10511                           l867:
 10512  0024C2                     	line	49
 10513                           	
 10514                           l3088:
 10515  0024C2                     	movf	(0+((c:___fldiv@a)+03h)),c,w
 10516  0024C2  5008               	andlw	low(080h)
 10517  0024C4  0B80               	xorwf	((c:___fldiv@sign)),c
 10518  0024C6  1A11               	line	50
 10519                           	
 10520                           l3090:
 10521  0024C8                     	movf	(0+((c:___fldiv@a)+03h)),c,w
 10522  0024C8  5008               	addwf	(0+((c:___fldiv@a)+03h)),c,w
 10523  0024CA  2408               	movwf	((c:___fldiv@aexp)),c
 10524  0024CC  6E19               	line	51
 10525                           	
 10526                           l3092:
 10527  0024CE                     	
 10528                           	btfss	(0+((c:___fldiv@a)+02h)),c,(7)&7
 10529  0024CE  AE07               	goto	u3331
 10530  0024D0  EF6C  F012         	goto	u3330
 10531  0024D4  EF6E  F012         u3331:
 10532  0024D8                     	goto	l3096
 10533  0024D8  EF71  F012         u3330:
 10534  0024DC                     	line	52
 10535                           	
 10536                           l3094:
 10537  0024DC                     	bsf	(0+(0/8)+(c:___fldiv@aexp)),c,(0)&7
 10538  0024DC  8019               	goto	l3096
 10539  0024DE  EF71  F012         	line	53
 10540                           	
 10541                           l868:
 10542  0024E2                     	line	56
 10543                           	
 10544                           l3096:
 10545  0024E2                     	movf	((c:___fldiv@aexp)),c,w
 10546  0024E2  5019               	btfsc	status,2
 10547  0024E4  B4D8               	goto	u3341
 10548  0024E6  EF77  F012         	goto	u3340
 10549  0024EA  EF79  F012         u3341:
 10550  0024EE                     	goto	l3106
 10551  0024EE  EF90  F012         u3340:
 10552  0024F2                     	line	58
 10553                           	
 10554                           l3098:
 10555  0024F2                     		incf	((c:___fldiv@aexp)),c,w
 10556  0024F2  2819               	btfss	status,2
 10557  0024F4  A4D8               	goto	u3351
 10558  0024F6  EF7F  F012         	goto	u3350
 10559  0024FA  EF81  F012         
 10560                           u3351:
 10561  0024FE                     	goto	l3102
 10562  0024FE  EF8B  F012         u3350:
 10563  002502                     	line	60
 10564                           	
 10565                           l3100:
 10566  002502                     	movlw	low(normalize32(0x0))
 10567  002502  0E00               	movwf	((c:___fldiv@a)),c
 10568  002504  6E05               	movlw	high(normalize32(0x0))
 10569  002506  0E00               	movwf	((c:___fldiv@a+1)),c
 10570  002508  6E06               	movlw	low highword(normalize32(0x0))
 10571  00250A  0E00               	movwf	((c:___fldiv@a+2)),c
 10572  00250C  6E07               	movlw	high highword(normalize32(0x0))
 10573  00250E  0E00               	movwf	((c:___fldiv@a+3)),c
 10574  002510  6E08               	goto	l3102
 10575  002512  EF8B  F012         	line	61
 10576                           	
 10577                           l870:
 10578  002516                     	line	63
 10579                           	
 10580                           l3102:
 10581  002516                     	bsf	(0+(23/8)+(c:___fldiv@a)),c,(23)&7
 10582  002516  8E07               	line	65
 10583                           	
 10584                           l3104:
 10585  002518                     	movlw	low(0)
 10586  002518  0E00               	movwf	(0+((c:___fldiv@a)+03h)),c
 10587  00251A  6E08               	line	66
 10588                           	goto	l3108
 10589  00251C  EF9A  F012         	line	67
 10590                           	
 10591                           l869:
 10592  002520                     	line	69
 10593                           	
 10594                           l3106:
 10595  002520                     	movlw	low(normalize32(0x0))
 10596  002520  0E00               	movwf	((c:___fldiv@a)),c
 10597  002522  6E05               	movlw	high(normalize32(0x0))
 10598  002524  0E00               	movwf	((c:___fldiv@a+1)),c
 10599  002526  6E06               	movlw	low highword(normalize32(0x0))
 10600  002528  0E00               	movwf	((c:___fldiv@a+2)),c
 10601  00252A  6E07               	movlw	high highword(normalize32(0x0))
 10602  00252C  0E00               	movwf	((c:___fldiv@a+3)),c
 10603  00252E  6E08               	goto	l3108
 10604  002530  EF9A  F012         	line	70
 10605                           	
 10606                           l871:
 10607  002534                     	line	75
 10608                           	
 10609                           l3108:
 10610  002534                     	movf	((c:___fldiv@a)),c,w
 10611  002534  5005               iorwf	((c:___fldiv@a+1)),c,w
 10612  002536  1006               iorwf	((c:___fldiv@a+2)),c,w
 10613  002538  1007               iorwf	((c:___fldiv@a+3)),c,w
 10614  00253A  1008               	btfss	status,2
 10615  00253C  A4D8               	goto	u3361
 10616  00253E  EFA3  F012         	goto	u3360
 10617  002542  EFA5  F012         
 10618                           u3361:
 10619  002546                     	goto	l3120
 10620  002546  EFBF  F012         u3360:
 10621  00254A                     	line	76
 10622                           	
 10623                           l3110:
 10624  00254A                     	movlw	low(0)
 10625  00254A  0E00               	movwf	((c:___fldiv@b)),c
 10626  00254C  6E01               	movlw	high(0)
 10627  00254E  0E00               	movwf	((c:___fldiv@b+1)),c
 10628  002550  6E02               	movlw	low highword(0)
 10629  002552  0E00               	movwf	((c:___fldiv@b+2)),c
 10630  002554  6E03               	movlw	high highword(0)
 10631  002556  0E00               	movwf	((c:___fldiv@b+3)),c
 10632  002558  6E04               	line	77
 10633                           	
 10634                           l3112:
 10635  00255A                     	movlw	low(07F80h)
 10636  00255A  0E80               	iorwf	(0+((c:___fldiv@b)+02h)),c
 10637  00255C  1203               	movlw	high(07F80h)
 10638  00255E  0E7F               	iorwf	(1+((c:___fldiv@b)+02h)),c
 10639  002560  1204               	line	78
 10640                           	
 10641                           l3114:
 10642  002562                     	movf	((c:___fldiv@sign)),c,w
 10643  002562  5011               	iorwf	(0+((c:___fldiv@b)+03h)),c
 10644  002564  1204               	line	79
 10645                           	
 10646                           l3116:
 10647  002566                     	movff	(c:___fldiv@b),(c:?___fldiv)
 10648  002566  C001  F001         	movff	(c:___fldiv@b+1),(c:?___fldiv+1)
 10649  00256A  C002  F002         	movff	(c:___fldiv@b+2),(c:?___fldiv+2)
 10650  00256E  C003  F003         	movff	(c:___fldiv@b+3),(c:?___fldiv+3)
 10651  002572  C004  F004         	goto	l873
 10652  002576  EF37  F014         	
 10653                           l3118:
 10654  00257A                     	goto	l873
 10655  00257A  EF37  F014         	line	80
 10656                           	
 10657                           l872:
 10658  00257E                     	line	83
 10659                           	
 10660                           l3120:
 10661  00257E                     	movf	((c:___fldiv@bexp)),c,w
 10662  00257E  5018               	btfss	status,2
 10663  002580  A4D8               	goto	u3371
 10664  002582  EFC5  F012         	goto	u3370
 10665  002586  EFC7  F012         u3371:
 10666  00258A                     	goto	l3128
 10667  00258A  EFDB  F012         u3370:
 10668  00258E                     	line	84
 10669                           	
 10670                           l3122:
 10671  00258E                     	movlw	low(0)
 10672  00258E  0E00               	movwf	((c:___fldiv@b)),c
 10673  002590  6E01               	movlw	high(0)
 10674  002592  0E00               	movwf	((c:___fldiv@b+1)),c
 10675  002594  6E02               	movlw	low highword(0)
 10676  002596  0E00               	movwf	((c:___fldiv@b+2)),c
 10677  002598  6E03               	movlw	high highword(0)
 10678  00259A  0E00               	movwf	((c:___fldiv@b+3)),c
 10679  00259C  6E04               	line	85
 10680                           	
 10681                           l3124:
 10682  00259E                     	movff	(c:___fldiv@b),(c:?___fldiv)
 10683  00259E  C001  F001         	movff	(c:___fldiv@b+1),(c:?___fldiv+1)
 10684  0025A2  C002  F002         	movff	(c:___fldiv@b+2),(c:?___fldiv+2)
 10685  0025A6  C003  F003         	movff	(c:___fldiv@b+3),(c:?___fldiv+3)
 10686  0025AA  C004  F004         	goto	l873
 10687  0025AE  EF37  F014         	
 10688                           l3126:
 10689  0025B2                     	goto	l873
 10690  0025B2  EF37  F014         	line	86
 10691                           	
 10692                           l874:
 10693  0025B6                     	line	89
 10694                           	
 10695                           l3128:
 10696  0025B6                     	movf	((c:___fldiv@aexp)),c,w
 10697  0025B6  5019               	movwf	(??___fldiv+0+0)&0ffh,c
 10698  0025B8  6E09               	clrf	(??___fldiv+0+0+1)&0ffh,c
 10699  0025BA  6A0A               
 10700                           	comf	(??___fldiv+0+0),c
 10701  0025BC  1E09               	comf	(??___fldiv+0+1),c
 10702  0025BE  1E0A               	infsnz	(??___fldiv+0+0),c
 10703  0025C0  4A09               	incf	(??___fldiv+0+1),c
 10704  0025C2  2A0A               	movf	((c:___fldiv@bexp)),c,w
 10705  0025C4  5018               	movwf	(??___fldiv+2+0)&0ffh,c
 10706  0025C6  6E0B               	clrf	(??___fldiv+2+0+1)&0ffh,c
 10707  0025C8  6A0C               
 10708                           	movf	(??___fldiv+0+0),c,w
 10709  0025CA  5009               	addwf	(??___fldiv+2+0),c
 10710  0025CC  260B               	movf	(??___fldiv+0+1),c,w
 10711  0025CE  500A               	addwfc	(??___fldiv+2+1),c
 10712  0025D0  220C               	movlw	low(07Fh)
 10713  0025D2  0E7F               	addwf	(??___fldiv+2+0),c,w
 10714  0025D4  240B               	movwf	((c:___fldiv@new_exp)),c
 10715  0025D6  6E12               	movlw	high(07Fh)
 10716  0025D8  0E00               	addwfc	(??___fldiv+2+1),c,w
 10717  0025DA  200C               	movwf	1+((c:___fldiv@new_exp)),c
 10718  0025DC  6E13               	line	92
 10719                           	
 10720                           l3130:
 10721  0025DE                     	movff	(c:___fldiv@b),(c:___fldiv@rem)
 10722  0025DE  C001  F00D         	movff	(c:___fldiv@b+1),(c:___fldiv@rem+1)
 10723  0025E2  C002  F00E         	movff	(c:___fldiv@b+2),(c:___fldiv@rem+2)
 10724  0025E6  C003  F00F         	movff	(c:___fldiv@b+3),(c:___fldiv@rem+3)
 10725  0025EA  C004  F010         	line	93
 10726                           	
 10727                           l3132:
 10728  0025EE                     	movlw	low(0)
 10729  0025EE  0E00               	movwf	((c:___fldiv@b)),c
 10730  0025F0  6E01               	movlw	high(0)
 10731  0025F2  0E00               	movwf	((c:___fldiv@b+1)),c
 10732  0025F4  6E02               	movlw	low highword(0)
 10733  0025F6  0E00               	movwf	((c:___fldiv@b+2)),c
 10734  0025F8  6E03               	movlw	high highword(0)
 10735  0025FA  0E00               	movwf	((c:___fldiv@b+3)),c
 10736  0025FC  6E04               	line	94
 10737                           	
 10738                           l3134:
 10739  0025FE                     	movlw	low(0)
 10740  0025FE  0E00               	movwf	((c:___fldiv@grs)),c
 10741  002600  6E14               	movlw	high(0)
 10742  002602  0E00               	movwf	((c:___fldiv@grs+1)),c
 10743  002604  6E15               	movlw	low highword(0)
 10744  002606  0E00               	movwf	((c:___fldiv@grs+2)),c
 10745  002608  6E16               	movlw	high highword(0)
 10746  00260A  0E00               	movwf	((c:___fldiv@grs+3)),c
 10747  00260C  6E17               	line	96
 10748                           	
 10749                           l3136:
 10750  00260E                     	movlw	low(0)
 10751  00260E  0E00               	movwf	((c:___fldiv@aexp)),c
 10752  002610  6E19               	line	97
 10753                           	goto	l875
 10754  002612  EF47  F013         	
 10755                           l876:
 10756  002616                     	line	100
 10757                           	
 10758                           l3138:
 10759  002616                     	movf	((c:___fldiv@aexp)),c,w
 10760  002616  5019               	btfsc	status,2
 10761  002618  B4D8               	goto	u3381
 10762  00261A  EF11  F013         	goto	u3380
 10763  00261E  EF13  F013         u3381:
 10764  002622                     	goto	l3146
 10765  002622  EF2C  F013         u3380:
 10766  002626                     	line	101
 10767                           	
 10768                           l3140:
 10769  002626                     	bcf	status,0
 10770  002626  90D8               	rlcf	((c:___fldiv@rem)),c
 10771  002628  360D               	rlcf	((c:___fldiv@rem+1)),c
 10772  00262A  360E               	rlcf	((c:___fldiv@rem+2)),c
 10773  00262C  360F               	rlcf	((c:___fldiv@rem+3)),c
 10774  00262E  3610               	line	102
 10775                           	bcf	status,0
 10776  002630  90D8               	rlcf	((c:___fldiv@b)),c
 10777  002632  3601               	rlcf	((c:___fldiv@b+1)),c
 10778  002634  3602               	rlcf	((c:___fldiv@b+2)),c
 10779  002636  3603               	rlcf	((c:___fldiv@b+3)),c
 10780  002638  3604               	line	103
 10781                           	
 10782                           l3142:
 10783  00263A                     	
 10784                           	btfss	((c:___fldiv@grs+3)),c,(31)&7
 10785  00263A  AE17               	goto	u3391
 10786  00263C  EF22  F013         	goto	u3390
 10787  002640  EF24  F013         u3391:
 10788  002644                     	goto	l878
 10789  002644  EF25  F013         u3390:
 10790  002648                     	line	104
 10791                           	
 10792                           l3144:
 10793  002648                     	bsf	(0+(0/8)+(c:___fldiv@b)),c,(0)&7
 10794  002648  8001               	line	105
 10795                           	
 10796                           l878:
 10797  00264A                     	line	106
 10798                           	bcf	status,0
 10799  00264A  90D8               	rlcf	((c:___fldiv@grs)),c
 10800  00264C  3614               	rlcf	((c:___fldiv@grs+1)),c
 10801  00264E  3615               	rlcf	((c:___fldiv@grs+2)),c
 10802  002650  3616               	rlcf	((c:___fldiv@grs+3)),c
 10803  002652  3617               	goto	l3146
 10804  002654  EF2C  F013         	line	107
 10805                           	
 10806                           l877:
 10807  002658                     	line	112
 10808                           	
 10809                           l3146:
 10810  002658                     		movf	((c:___fldiv@a)),c,w
 10811  002658  5005               	subwf	((c:___fldiv@rem)),c,w
 10812  00265A  5C0D               	movf	((c:___fldiv@a+1)),c,w
 10813  00265C  5006               	subwfb	((c:___fldiv@rem+1)),c,w
 10814  00265E  580E               	movf	((c:___fldiv@a+2)),c,w
 10815  002660  5007               	subwfb	((c:___fldiv@rem+2)),c,w
 10816  002662  580F               	movf	((c:___fldiv@a+3)),c,w
 10817  002664  5008               	subwfb	((c:___fldiv@rem+3)),c,w
 10818  002666  5810               	btfss	status,0
 10819  002668  A0D8               	goto	u3401
 10820  00266A  EF39  F013         	goto	u3400
 10821  00266E  EF3B  F013         
 10822                           u3401:
 10823  002672                     	goto	l3152
 10824  002672  EF46  F013         u3400:
 10825  002676                     	line	115
 10826                           	
 10827                           l3148:
 10828  002676                     	bsf	(0+(30/8)+(c:___fldiv@grs)),c,(30)&7
 10829  002676  8C17               	line	116
 10830                           	
 10831                           l3150:
 10832  002678                     	movf	((c:___fldiv@a)),c,w
 10833  002678  5005               	subwf	((c:___fldiv@rem)),c
 10834  00267A  5E0D               	movf	((c:___fldiv@a+1)),c,w
 10835  00267C  5006               	subwfb	((c:___fldiv@rem+1)),c
 10836  00267E  5A0E               	movf	((c:___fldiv@a+2)),c,w
 10837  002680  5007               	subwfb	((c:___fldiv@rem+2)),c
 10838  002682  5A0F               	movf	((c:___fldiv@a+3)),c,w
 10839  002684  5008               	subwfb	((c:___fldiv@rem+3)),c
 10840  002686  5A10               	goto	l3152
 10841  002688  EF46  F013         	line	117
 10842                           	
 10843                           l879:
 10844  00268C                     	line	118
 10845                           	
 10846                           l3152:
 10847  00268C                     	incf	((c:___fldiv@aexp)),c
 10848  00268C  2A19               	line	119
 10849                           	
 10850                           l875:
 10851  00268E                     	line	97
 10852                           		movlw	01Ah-1
 10853  00268E  0E19               	cpfsgt	((c:___fldiv@aexp)),c
 10854  002690  6419               	goto	u3411
 10855  002692  EF4D  F013         	goto	u3410
 10856  002696  EF4F  F013         
 10857                           u3411:
 10858  00269A                     	goto	l3138
 10859  00269A  EF0B  F013         u3410:
 10860  00269E                     	goto	l3154
 10861  00269E  EF51  F013         	
 10862                           l880:
 10863  0026A2                     	line	122
 10864                           	
 10865                           l3154:
 10866  0026A2                     	movf	((c:___fldiv@rem)),c,w
 10867  0026A2  500D               iorwf	((c:___fldiv@rem+1)),c,w
 10868  0026A4  100E               iorwf	((c:___fldiv@rem+2)),c,w
 10869  0026A6  100F               iorwf	((c:___fldiv@rem+3)),c,w
 10870  0026A8  1010               	btfsc	status,2
 10871  0026AA  B4D8               	goto	u3421
 10872  0026AC  EF5A  F013         	goto	u3420
 10873  0026B0  EF5C  F013         
 10874                           u3421:
 10875  0026B4                     	goto	l3164
 10876  0026B4  EF78  F013         u3420:
 10877  0026B8                     	line	123
 10878                           	
 10879                           l3156:
 10880  0026B8                     	bsf	(0+(0/8)+(c:___fldiv@grs)),c,(0)&7
 10881  0026B8  8014               	goto	l3164
 10882  0026BA  EF78  F013         	line	124
 10883                           	
 10884                           l881:
 10885  0026BE                     	line	127
 10886                           	goto	l3164
 10887  0026BE  EF78  F013         	
 10888                           l883:
 10889  0026C2                     	line	128
 10890                           	
 10891                           l3158:
 10892  0026C2                     	bcf	status,0
 10893  0026C2  90D8               	rlcf	((c:___fldiv@b)),c
 10894  0026C4  3601               	rlcf	((c:___fldiv@b+1)),c
 10895  0026C6  3602               	rlcf	((c:___fldiv@b+2)),c
 10896  0026C8  3603               	rlcf	((c:___fldiv@b+3)),c
 10897  0026CA  3604               	line	129
 10898                           	
 10899                           l3160:
 10900  0026CC                     	
 10901                           	btfss	((c:___fldiv@grs+3)),c,(31)&7
 10902  0026CC  AE17               	goto	u3431
 10903  0026CE  EF6B  F013         	goto	u3430
 10904  0026D2  EF6D  F013         u3431:
 10905  0026D6                     	goto	l884
 10906  0026D6  EF6E  F013         u3430:
 10907  0026DA                     	line	130
 10908                           	
 10909                           l3162:
 10910  0026DA                     	bsf	(0+(0/8)+(c:___fldiv@b)),c,(0)&7
 10911  0026DA  8001               	line	131
 10912                           	
 10913                           l884:
 10914  0026DC                     	line	132
 10915                           	bcf	status,0
 10916  0026DC  90D8               	rlcf	((c:___fldiv@grs)),c
 10917  0026DE  3614               	rlcf	((c:___fldiv@grs+1)),c
 10918  0026E0  3615               	rlcf	((c:___fldiv@grs+2)),c
 10919  0026E2  3616               	rlcf	((c:___fldiv@grs+3)),c
 10920  0026E4  3617               	line	133
 10921                           	decf	((c:___fldiv@new_exp)),c
 10922  0026E6  0612               	btfss	status,0
 10923  0026E8  A0D8               	decf	((c:___fldiv@new_exp+1)),c
 10924  0026EA  0613               	goto	l3164
 10925  0026EC  EF78  F013         	line	134
 10926                           	
 10927                           l882:
 10928  0026F0                     	line	127
 10929                           	
 10930                           l3164:
 10931  0026F0                     	
 10932                           	btfss	((c:___fldiv@b+2)),c,(23)&7
 10933  0026F0  AE03               	goto	u3441
 10934  0026F2  EF7D  F013         	goto	u3440
 10935  0026F6  EF7F  F013         u3441:
 10936  0026FA                     	goto	l3158
 10937  0026FA  EF61  F013         u3440:
 10938  0026FE                     	goto	l3166
 10939  0026FE  EF81  F013         	
 10940                           l885:
 10941  002702                     	line	139
 10942                           	
 10943                           l3166:
 10944  002702                     	movlw	low(0)
 10945  002702  0E00               	movwf	((c:___fldiv@aexp)),c
 10946  002704  6E19               	line	140
 10947                           	
 10948                           l3168:
 10949  002706                     	
 10950                           	btfss	((c:___fldiv@grs+3)),c,(31)&7
 10951  002706  AE17               	goto	u3451
 10952  002708  EF88  F013         	goto	u3450
 10953  00270C  EF8A  F013         u3451:
 10954  002710                     	goto	l886
 10955  002710  EFB2  F013         u3450:
 10956  002714                     	line	141
 10957                           	
 10958                           l3170:
 10959  002714                     	movlw	0FFh
 10960  002714  0EFF               	andwf	((c:___fldiv@grs)),c,w
 10961  002716  1414               	movwf	(??___fldiv+0+0)&0ffh,c
 10962  002718  6E09               	movlw	0FFh
 10963  00271A  0EFF               	andwf	((c:___fldiv@grs+1)),c,w
 10964  00271C  1415               	movwf	1+(??___fldiv+0+0)&0ffh,c
 10965  00271E  6E0A               	
 10966                           	movlw	0FFh
 10967  002720  0EFF               	andwf	((c:___fldiv@grs+2)),c,w
 10968  002722  1416               	movwf	2+(??___fldiv+0+0)&0ffh,c
 10969  002724  6E0B               	
 10970                           	movlw	07Fh
 10971  002726  0E7F               	andwf	((c:___fldiv@grs+3)),c,w
 10972  002728  1417               	movwf	3+(??___fldiv+0+0)&0ffh,c
 10973  00272A  6E0C               	movf	(??___fldiv+0+0),c,w
 10974  00272C  5009               iorwf	(??___fldiv+0+1),c,w
 10975  00272E  100A               iorwf	(??___fldiv+0+2),c,w
 10976  002730  100B               iorwf	(??___fldiv+0+3),c,w
 10977  002732  100C               	btfsc	status,2
 10978  002734  B4D8               	goto	u3461
 10979  002736  EF9F  F013         	goto	u3460
 10980  00273A  EFA1  F013         
 10981                           u3461:
 10982  00273E                     	goto	l887
 10983  00273E  EFA5  F013         u3460:
 10984  002742                     	line	142
 10985                           	
 10986                           l3172:
 10987  002742                     	movlw	low(01h)
 10988  002742  0E01               	movwf	((c:___fldiv@aexp)),c
 10989  002744  6E19               	line	143
 10990                           	goto	l886
 10991  002746  EFB2  F013         	line	144
 10992                           	
 10993                           l887:
 10994  00274A                     	line	145
 10995                           	
 10996                           	btfss	((c:___fldiv@b)),c,(0)&7
 10997  00274A  A001               	goto	u3471
 10998  00274C  EFAA  F013         	goto	u3470
 10999  002750  EFAC  F013         u3471:
 11000  002754                     	goto	l886
 11001  002754  EFB2  F013         u3470:
 11002  002758                     	line	146
 11003                           	
 11004                           l3174:
 11005  002758                     	movlw	low(01h)
 11006  002758  0E01               	movwf	((c:___fldiv@aexp)),c
 11007  00275A  6E19               	goto	l886
 11008  00275C  EFB2  F013         	line	147
 11009                           	
 11010                           l889:
 11011  002760                     	goto	l886
 11012  002760  EFB2  F013         	line	148
 11013                           	
 11014                           l888:
 11015  002764                     	line	149
 11016                           	
 11017                           l886:
 11018  002764                     	line	150
 11019                           	movf	((c:___fldiv@aexp)),c,w
 11020  002764  5019               	btfsc	status,2
 11021  002766  B4D8               	goto	u3481
 11022  002768  EFB8  F013         	goto	u3480
 11023  00276C  EFBA  F013         u3481:
 11024  002770                     	goto	l3184
 11025  002770  EFE2  F013         u3480:
 11026  002774                     	line	151
 11027                           	
 11028                           l3176:
 11029  002774                     	movlw	low(01h)
 11030  002774  0E01               	addwf	((c:___fldiv@b)),c
 11031  002776  2601               	movlw	0
 11032  002778  0E00               	addwfc	((c:___fldiv@b+1)),c
 11033  00277A  2202               	addwfc	((c:___fldiv@b+2)),c
 11034  00277C  2203               	addwfc	((c:___fldiv@b+3)),c
 11035  00277E  2204               	line	152
 11036                           	
 11037                           l3178:
 11038  002780                     	
 11039                           	btfss	((c:___fldiv@b+3)),c,(24)&7
 11040  002780  A004               	goto	u3491
 11041  002782  EFC5  F013         	goto	u3490
 11042  002786  EFC7  F013         u3491:
 11043  00278A                     	goto	l3184
 11044  00278A  EFE2  F013         u3490:
 11045  00278E                     	line	153
 11046                           	
 11047                           l3180:
 11048  00278E                     	movff	(c:___fldiv@b),??___fldiv+0+0
 11049  00278E  C001  F009         	movff	(c:___fldiv@b+1),??___fldiv+0+0+1
 11050  002792  C002  F00A         	movff	(c:___fldiv@b+2),??___fldiv+0+0+2
 11051  002796  C003  F00B         	movff	(c:___fldiv@b+3),??___fldiv+0+0+3
 11052  00279A  C004  F00C         	rlcf	(??___fldiv+0+3),c,w
 11053  00279E  340C               	rrcf	(??___fldiv+0+3),c
 11054  0027A0  320C               	rrcf	(??___fldiv+0+2),c
 11055  0027A2  320B               	rrcf	(??___fldiv+0+1),c
 11056  0027A4  320A               	rrcf	(??___fldiv+0+0),c
 11057  0027A6  3209               	movff	??___fldiv+0+0,(c:___fldiv@b)
 11058  0027A8  C009  F001         	movff	??___fldiv+0+1,(c:___fldiv@b+1)
 11059  0027AC  C00A  F002         	movff	??___fldiv+0+2,(c:___fldiv@b+2)
 11060  0027B0  C00B  F003         	movff	??___fldiv+0+3,(c:___fldiv@b+3)
 11061  0027B4  C00C  F004         	line	154
 11062                           	
 11063                           l3182:
 11064  0027B8                     	infsnz	((c:___fldiv@new_exp)),c
 11065  0027B8  4A12               	incf	((c:___fldiv@new_exp+1)),c
 11066  0027BA  2A13               	goto	l3184
 11067  0027BC  EFE2  F013         	line	155
 11068                           	
 11069                           l891:
 11070  0027C0                     	goto	l3184
 11071  0027C0  EFE2  F013         	line	156
 11072                           	
 11073                           l890:
 11074  0027C4                     	line	159
 11075                           	
 11076                           l3184:
 11077  0027C4                     	btfsc	((c:___fldiv@new_exp+1)),c,7
 11078  0027C4  BE13               	goto	u3501
 11079  0027C6  EFED  F013         	movf	((c:___fldiv@new_exp+1)),c,w
 11080  0027CA  5013               	bnz	u3500
 11081  0027CC  E108               	incf	((c:___fldiv@new_exp)),c,w
 11082  0027CE  2812               	btfss	status,0
 11083  0027D0  A0D8               	goto	u3501
 11084  0027D2  EFED  F013         	goto	u3500
 11085  0027D6  EFEF  F013         
 11086                           u3501:
 11087  0027DA                     	goto	l3188
 11088  0027DA  EFFC  F013         u3500:
 11089  0027DE                     	line	160
 11090                           	
 11091                           l3186:
 11092  0027DE                     	movlw	high(0FFh)
 11093  0027DE  0E00               	movwf	((c:___fldiv@new_exp+1)),c
 11094  0027E0  6E13               	setf	((c:___fldiv@new_exp)),c
 11095  0027E2  6812               	line	161
 11096                           	movlw	low(0)
 11097  0027E4  0E00               	movwf	((c:___fldiv@b)),c
 11098  0027E6  6E01               	movlw	high(0)
 11099  0027E8  0E00               	movwf	((c:___fldiv@b+1)),c
 11100  0027EA  6E02               	movlw	low highword(0)
 11101  0027EC  0E00               	movwf	((c:___fldiv@b+2)),c
 11102  0027EE  6E03               	movlw	high highword(0)
 11103  0027F0  0E00               	movwf	((c:___fldiv@b+3)),c
 11104  0027F2  6E04               	goto	l3188
 11105  0027F4  EFFC  F013         	line	162
 11106                           	
 11107                           l892:
 11108  0027F8                     	line	165
 11109                           	
 11110                           l3188:
 11111  0027F8                     	btfsc	((c:___fldiv@new_exp+1)),c,7
 11112  0027F8  BE13               	goto	u3510
 11113  0027FA  EF09  F014         	movf	((c:___fldiv@new_exp+1)),c,w
 11114  0027FE  5013               	bnz	u3511
 11115  002800  E106               	decf	((c:___fldiv@new_exp)),c,w
 11116  002802  0412               	btfsc	status,0
 11117  002804  B0D8               	goto	u3511
 11118  002806  EF07  F014         	goto	u3510
 11119  00280A  EF09  F014         
 11120                           u3511:
 11121  00280E                     	goto	l3192
 11122  00280E  EF19  F014         u3510:
 11123  002812                     	line	166
 11124                           	
 11125                           l3190:
 11126  002812                     	movlw	high(0)
 11127  002812  0E00               	movwf	((c:___fldiv@new_exp+1)),c
 11128  002814  6E13               	movlw	low(0)
 11129  002816  0E00               	movwf	((c:___fldiv@new_exp)),c
 11130  002818  6E12               	line	167
 11131                           	movlw	low(0)
 11132  00281A  0E00               	movwf	((c:___fldiv@b)),c
 11133  00281C  6E01               	movlw	high(0)
 11134  00281E  0E00               	movwf	((c:___fldiv@b+1)),c
 11135  002820  6E02               	movlw	low highword(0)
 11136  002822  0E00               	movwf	((c:___fldiv@b+2)),c
 11137  002824  6E03               	movlw	high highword(0)
 11138  002826  0E00               	movwf	((c:___fldiv@b+3)),c
 11139  002828  6E04               	line	169
 11140                           	movlw	low(0)
 11141  00282A  0E00               	movwf	((c:___fldiv@sign)),c
 11142  00282C  6E11               	goto	l3192
 11143  00282E  EF19  F014         	line	170
 11144                           	
 11145                           l893:
 11146  002832                     	line	173
 11147                           	
 11148                           l3192:
 11149  002832                     	movff	(c:___fldiv@new_exp),(c:___fldiv@bexp)
 11150  002832  C012  F018         	line	175
 11151                           	
 11152                           l3194:
 11153  002836                     	
 11154                           	btfss	((c:___fldiv@bexp)),c,(0)&7
 11155  002836  A018               	goto	u3521
 11156  002838  EF20  F014         	goto	u3520
 11157  00283C  EF22  F014         u3521:
 11158  002840                     	goto	l3198
 11159  002840  EF25  F014         u3520:
 11160  002844                     	line	176
 11161                           	
 11162                           l3196:
 11163  002844                     	bsf	(0+(7/8)+0+((c:___fldiv@b)+02h)),c,(7)&7
 11164  002844  8E03               	line	177
 11165                           	goto	l3200
 11166  002846  EF28  F014         	line	179
 11167                           	
 11168                           l894:
 11169  00284A                     	line	180
 11170                           	
 11171                           l3198:
 11172  00284A                     	bcf	(0+(7/8)+0+((c:___fldiv@b)+02h)),c,(7)&7
 11173  00284A  9E03               	goto	l3200
 11174  00284C  EF28  F014         	line	181
 11175                           	
 11176                           l895:
 11177  002850                     	line	182
 11178                           	
 11179                           l3200:
 11180  002850                     	bcf	status,0
 11181  002850  90D8               	rrcf	((c:___fldiv@bexp)),c,w
 11182  002852  3018               	movwf	(0+((c:___fldiv@b)+03h)),c
 11183  002854  6E04               	line	183
 11184                           	
 11185                           l3202:
 11186  002856                     	movf	((c:___fldiv@sign)),c,w
 11187  002856  5011               	iorwf	(0+((c:___fldiv@b)+03h)),c
 11188  002858  1204               	line	184
 11189                           	
 11190                           l3204:
 11191  00285A                     	movff	(c:___fldiv@b),(c:?___fldiv)
 11192  00285A  C001  F001         	movff	(c:___fldiv@b+1),(c:?___fldiv+1)
 11193  00285E  C002  F002         	movff	(c:___fldiv@b+2),(c:?___fldiv+2)
 11194  002862  C003  F003         	movff	(c:___fldiv@b+3),(c:?___fldiv+3)
 11195  002866  C004  F004         	goto	l873
 11196  00286A  EF37  F014         	
 11197                           l3206:
 11198  00286E                     	line	185
 11199                           	
 11200                           l873:
 11201  00286E                     	return	;funcret
 11202  00286E  0012               	opt stack 0
 11203                           GLOBAL	__end_of___fldiv
 11204                           	__end_of___fldiv:
 11205  002870                     	signat	___fldiv,8316
 11206                           	global	___awmod
 11207                           
 11208 ;; *************** function ___awmod *****************
 11209 ;; Defined at:
 11210 ;;		line 7 in file "/opt/microchip/xc8/v2.00/pic/sources/c99/common/awmod.c"
 11211 ;; Parameters:    Size  Location     Type
 11212 ;;  dividend        2    0[COMRAM] int 
 11213 ;;  divisor         2    2[COMRAM] int 
 11214 ;; Auto vars:     Size  Location     Type
 11215 ;;  sign            1    5[COMRAM] unsigned char 
 11216 ;;  counter         1    4[COMRAM] unsigned char 
 11217 ;; Return value:  Size  Location     Type
 11218 ;;                  2    0[COMRAM] int 
 11219 ;; Registers used:
 11220 ;;		wreg, status,2, status,0
 11221 ;; Tracked objects:
 11222 ;;		On entry : 0/0
 11223 ;;		On exit  : 0/0
 11224 ;;		Unchanged: 0/0
 11225 ;; Data sizes:     COMRAM   BANK0   BANK1   BANK2   BANK3   BANK4   BANK5   BANK6   BANK7
 11226 ;;      Params:         4       0       0       0       0       0       0       0       0
 11227 ;;      Locals:         2       0       0       0       0       0       0       0       0
 11228 ;;      Temps:          0       0       0       0       0       0       0       0       0
 11229 ;;      Totals:         6       0       0       0       0       0       0       0       0
 11230 ;;Total ram usage:        6 bytes
 11231 ;; Hardware stack levels used:    1
 11232 ;; This function calls:
 11233 ;;		Nothing
 11234 ;; This function is called by:
 11235 ;;		_efgtoa
 11236 ;; This function uses a non-reentrant model
 11237 ;;
 11238                           psect	text25,class=CODE,space=0,reloc=2,group=1
 11239                           	file	"/opt/microchip/xc8/v2.00/pic/sources/c99/common/awmod.c"
 11240                           	line	7
 11241                           global __ptext25
 11242                           __ptext25:
 11243  003A04                     psect	text25
 11244                           	file	"/opt/microchip/xc8/v2.00/pic/sources/c99/common/awmod.c"
 11245                           	line	7
 11246                           	global	__size_of___awmod
 11247                           	__size_of___awmod	equ	__end_of___awmod-___awmod
 11248  0000                     	
 11249                           ___awmod:
 11250  003A04                     ;incstack = 0
 11251                           	opt	stack 26
 11252                           	line	12
 11253                           	
 11254                           l3388:
 11255  003A04                     	movlw	low(0)
 11256  003A04  0E00               	movwf	((c:___awmod@sign)),c
 11257  003A06  6E06               	line	13
 11258                           	
 11259                           l3390:
 11260  003A08                     	btfsc	((c:___awmod@dividend+1)),c,7
 11261  003A08  BE02               	goto	u3780
 11262  003A0A  EF0B  F01D         	goto	u3781
 11263  003A0E  EF09  F01D         
 11264                           u3781:
 11265  003A12                     	goto	l3396
 11266  003A12  EF13  F01D         u3780:
 11267  003A16                     	line	14
 11268                           	
 11269                           l3392:
 11270  003A16                     	negf	((c:___awmod@dividend)),c
 11271  003A16  6C01               	comf	((c:___awmod@dividend+1)),c
 11272  003A18  1E02               	btfsc	status,0
 11273  003A1A  B0D8               	incf	((c:___awmod@dividend+1)),c
 11274  003A1C  2A02               	line	15
 11275                           	
 11276                           l3394:
 11277  003A1E                     	movlw	low(01h)
 11278  003A1E  0E01               	movwf	((c:___awmod@sign)),c
 11279  003A20  6E06               	goto	l3396
 11280  003A22  EF13  F01D         	line	16
 11281                           	
 11282                           l525:
 11283  003A26                     	line	17
 11284                           	
 11285                           l3396:
 11286  003A26                     	btfsc	((c:___awmod@divisor+1)),c,7
 11287  003A26  BE04               	goto	u3790
 11288  003A28  EF1A  F01D         	goto	u3791
 11289  003A2C  EF18  F01D         
 11290                           u3791:
 11291  003A30                     	goto	l3400
 11292  003A30  EF20  F01D         u3790:
 11293  003A34                     	line	18
 11294                           	
 11295                           l3398:
 11296  003A34                     	negf	((c:___awmod@divisor)),c
 11297  003A34  6C03               	comf	((c:___awmod@divisor+1)),c
 11298  003A36  1E04               	btfsc	status,0
 11299  003A38  B0D8               	incf	((c:___awmod@divisor+1)),c
 11300  003A3A  2A04               	goto	l3400
 11301  003A3C  EF20  F01D         	
 11302                           l526:
 11303  003A40                     	line	19
 11304                           	
 11305                           l3400:
 11306  003A40                     	movf	((c:___awmod@divisor)),c,w
 11307  003A40  5003               iorwf	((c:___awmod@divisor+1)),c,w
 11308  003A42  1004               	btfsc	status,2
 11309  003A44  B4D8               	goto	u3801
 11310  003A46  EF27  F01D         	goto	u3800
 11311  003A4A  EF29  F01D         
 11312                           u3801:
 11313  003A4E                     	goto	l3416
 11314  003A4E  EF59  F01D         u3800:
 11315  003A52                     	line	20
 11316                           	
 11317                           l3402:
 11318  003A52                     	movlw	low(01h)
 11319  003A52  0E01               	movwf	((c:___awmod@counter)),c
 11320  003A54  6E05               	line	21
 11321                           	goto	l3406
 11322  003A56  EF33  F01D         	
 11323                           l529:
 11324  003A5A                     	line	22
 11325                           	
 11326                           l3404:
 11327  003A5A                     	bcf	status,0
 11328  003A5A  90D8               	rlcf	((c:___awmod@divisor)),c
 11329  003A5C  3603               	rlcf	((c:___awmod@divisor+1)),c
 11330  003A5E  3604               	line	23
 11331                           	incf	((c:___awmod@counter)),c
 11332  003A60  2A05               	goto	l3406
 11333  003A62  EF33  F01D         	line	24
 11334                           	
 11335                           l528:
 11336  003A66                     	line	21
 11337                           	
 11338                           l3406:
 11339  003A66                     	
 11340                           	btfss	((c:___awmod@divisor+1)),c,(15)&7
 11341  003A66  AE04               	goto	u3811
 11342  003A68  EF38  F01D         	goto	u3810
 11343  003A6C  EF3A  F01D         u3811:
 11344  003A70                     	goto	l3404
 11345  003A70  EF2D  F01D         u3810:
 11346  003A74                     	goto	l3408
 11347  003A74  EF3E  F01D         	
 11348                           l530:
 11349  003A78                     	goto	l3408
 11350  003A78  EF3E  F01D         	line	25
 11351                           	
 11352                           l531:
 11353  003A7C                     	line	26
 11354                           	
 11355                           l3408:
 11356  003A7C                     		movf	((c:___awmod@divisor)),c,w
 11357  003A7C  5003               	subwf	((c:___awmod@dividend)),c,w
 11358  003A7E  5C01               	movf	((c:___awmod@divisor+1)),c,w
 11359  003A80  5004               	subwfb	((c:___awmod@dividend+1)),c,w
 11360  003A82  5802               	btfss	status,0
 11361  003A84  A0D8               	goto	u3821
 11362  003A86  EF47  F01D         	goto	u3820
 11363  003A8A  EF49  F01D         
 11364                           u3821:
 11365  003A8E                     	goto	l3412
 11366  003A8E  EF4F  F01D         u3820:
 11367  003A92                     	line	27
 11368                           	
 11369                           l3410:
 11370  003A92                     	movf	((c:___awmod@divisor)),c,w
 11371  003A92  5003               	subwf	((c:___awmod@dividend)),c
 11372  003A94  5E01               	movf	((c:___awmod@divisor+1)),c,w
 11373  003A96  5004               	subwfb	((c:___awmod@dividend+1)),c
 11374  003A98  5A02               
 11375                           	goto	l3412
 11376  003A9A  EF4F  F01D         	
 11377                           l532:
 11378  003A9E                     	line	28
 11379                           	
 11380                           l3412:
 11381  003A9E                     	bcf	status,0
 11382  003A9E  90D8               	rrcf	((c:___awmod@divisor+1)),c
 11383  003AA0  3204               	rrcf	((c:___awmod@divisor)),c
 11384  003AA2  3203               	line	29
 11385                           	
 11386                           l3414:
 11387  003AA4                     	decfsz	((c:___awmod@counter)),c
 11388  003AA4  2E05               	
 11389                           	goto	l3408
 11390  003AA6  EF3E  F01D         	goto	l3416
 11391  003AAA  EF59  F01D         	
 11392                           l533:
 11393  003AAE                     	goto	l3416
 11394  003AAE  EF59  F01D         	line	30
 11395                           	
 11396                           l527:
 11397  003AB2                     	line	31
 11398                           	
 11399                           l3416:
 11400  003AB2                     	movf	((c:___awmod@sign)),c,w
 11401  003AB2  5006               	btfsc	status,2
 11402  003AB4  B4D8               	goto	u3831
 11403  003AB6  EF5F  F01D         	goto	u3830
 11404  003ABA  EF61  F01D         u3831:
 11405  003ABE                     	goto	l3420
 11406  003ABE  EF67  F01D         u3830:
 11407  003AC2                     	line	32
 11408                           	
 11409                           l3418:
 11410  003AC2                     	negf	((c:___awmod@dividend)),c
 11411  003AC2  6C01               	comf	((c:___awmod@dividend+1)),c
 11412  003AC4  1E02               	btfsc	status,0
 11413  003AC6  B0D8               	incf	((c:___awmod@dividend+1)),c
 11414  003AC8  2A02               	goto	l3420
 11415  003ACA  EF67  F01D         	
 11416                           l534:
 11417  003ACE                     	line	33
 11418                           	
 11419                           l3420:
 11420  003ACE                     	movff	(c:___awmod@dividend),(c:?___awmod)
 11421  003ACE  C001  F001         	movff	(c:___awmod@dividend+1),(c:?___awmod+1)
 11422  003AD2  C002  F002         	goto	l535
 11423  003AD6  EF6D  F01D         	
 11424                           l3422:
 11425  003ADA                     	line	34
 11426                           	
 11427                           l535:
 11428  003ADA                     	return	;funcret
 11429  003ADA  0012               	opt stack 0
 11430                           GLOBAL	__end_of___awmod
 11431                           	__end_of___awmod:
 11432  003ADC                     	signat	___awmod,8314
 11433                           	global	___awdiv
 11434                           
 11435 ;; *************** function ___awdiv *****************
 11436 ;; Defined at:
 11437 ;;		line 7 in file "/opt/microchip/xc8/v2.00/pic/sources/c99/common/awdiv.c"
 11438 ;; Parameters:    Size  Location     Type
 11439 ;;  dividend        2    0[COMRAM] int 
 11440 ;;  divisor         2    2[COMRAM] int 
 11441 ;; Auto vars:     Size  Location     Type
 11442 ;;  quotient        2    6[COMRAM] int 
 11443 ;;  sign            1    5[COMRAM] unsigned char 
 11444 ;;  counter         1    4[COMRAM] unsigned char 
 11445 ;; Return value:  Size  Location     Type
 11446 ;;                  2    0[COMRAM] int 
 11447 ;; Registers used:
 11448 ;;		wreg, status,2, status,0
 11449 ;; Tracked objects:
 11450 ;;		On entry : 0/0
 11451 ;;		On exit  : 0/0
 11452 ;;		Unchanged: 0/0
 11453 ;; Data sizes:     COMRAM   BANK0   BANK1   BANK2   BANK3   BANK4   BANK5   BANK6   BANK7
 11454 ;;      Params:         4       0       0       0       0       0       0       0       0
 11455 ;;      Locals:         4       0       0       0       0       0       0       0       0
 11456 ;;      Temps:          0       0       0       0       0       0       0       0       0
 11457 ;;      Totals:         8       0       0       0       0       0       0       0       0
 11458 ;;Total ram usage:        8 bytes
 11459 ;; Hardware stack levels used:    1
 11460 ;; This function calls:
 11461 ;;		Nothing
 11462 ;; This function is called by:
 11463 ;;		_efgtoa
 11464 ;; This function uses a non-reentrant model
 11465 ;;
 11466                           psect	text26,class=CODE,space=0,reloc=2,group=1
 11467                           	file	"/opt/microchip/xc8/v2.00/pic/sources/c99/common/awdiv.c"
 11468                           	line	7
 11469                           global __ptext26
 11470                           __ptext26:
 11471  00383A                     psect	text26
 11472                           	file	"/opt/microchip/xc8/v2.00/pic/sources/c99/common/awdiv.c"
 11473                           	line	7
 11474                           	global	__size_of___awdiv
 11475                           	__size_of___awdiv	equ	__end_of___awdiv-___awdiv
 11476  0000                     	
 11477                           ___awdiv:
 11478  00383A                     ;incstack = 0
 11479                           	opt	stack 26
 11480                           	line	13
 11481                           	
 11482                           l3344:
 11483  00383A                     	movlw	low(0)
 11484  00383A  0E00               	movwf	((c:___awdiv@sign)),c
 11485  00383C  6E06               	line	14
 11486                           	
 11487                           l3346:
 11488  00383E                     	btfsc	((c:___awdiv@divisor+1)),c,7
 11489  00383E  BE04               	goto	u3720
 11490  003840  EF26  F01C         	goto	u3721
 11491  003844  EF24  F01C         
 11492                           u3721:
 11493  003848                     	goto	l3352
 11494  003848  EF2E  F01C         u3720:
 11495  00384C                     	line	15
 11496                           	
 11497                           l3348:
 11498  00384C                     	negf	((c:___awdiv@divisor)),c
 11499  00384C  6C03               	comf	((c:___awdiv@divisor+1)),c
 11500  00384E  1E04               	btfsc	status,0
 11501  003850  B0D8               	incf	((c:___awdiv@divisor+1)),c
 11502  003852  2A04               	line	16
 11503                           	
 11504                           l3350:
 11505  003854                     	movlw	low(01h)
 11506  003854  0E01               	movwf	((c:___awdiv@sign)),c
 11507  003856  6E06               	goto	l3352
 11508  003858  EF2E  F01C         	line	17
 11509                           	
 11510                           l512:
 11511  00385C                     	line	18
 11512                           	
 11513                           l3352:
 11514  00385C                     	btfsc	((c:___awdiv@dividend+1)),c,7
 11515  00385C  BE02               	goto	u3730
 11516  00385E  EF35  F01C         	goto	u3731
 11517  003862  EF33  F01C         
 11518                           u3731:
 11519  003866                     	goto	l3358
 11520  003866  EF3D  F01C         u3730:
 11521  00386A                     	line	19
 11522                           	
 11523                           l3354:
 11524  00386A                     	negf	((c:___awdiv@dividend)),c
 11525  00386A  6C01               	comf	((c:___awdiv@dividend+1)),c
 11526  00386C  1E02               	btfsc	status,0
 11527  00386E  B0D8               	incf	((c:___awdiv@dividend+1)),c
 11528  003870  2A02               	line	20
 11529                           	
 11530                           l3356:
 11531  003872                     	movlw	(01h)&0ffh
 11532  003872  0E01               	xorwf	((c:___awdiv@sign)),c
 11533  003874  1A06               	goto	l3358
 11534  003876  EF3D  F01C         	line	21
 11535                           	
 11536                           l513:
 11537  00387A                     	line	22
 11538                           	
 11539                           l3358:
 11540  00387A                     	movlw	high(0)
 11541  00387A  0E00               	movwf	((c:___awdiv@quotient+1)),c
 11542  00387C  6E08               	movlw	low(0)
 11543  00387E  0E00               	movwf	((c:___awdiv@quotient)),c
 11544  003880  6E07               	line	23
 11545                           	
 11546                           l3360:
 11547  003882                     	movf	((c:___awdiv@divisor)),c,w
 11548  003882  5003               iorwf	((c:___awdiv@divisor+1)),c,w
 11549  003884  1004               	btfsc	status,2
 11550  003886  B4D8               	goto	u3741
 11551  003888  EF48  F01C         	goto	u3740
 11552  00388C  EF4A  F01C         
 11553                           u3741:
 11554  003890                     	goto	l3380
 11555  003890  EF7E  F01C         u3740:
 11556  003894                     	line	24
 11557                           	
 11558                           l3362:
 11559  003894                     	movlw	low(01h)
 11560  003894  0E01               	movwf	((c:___awdiv@counter)),c
 11561  003896  6E05               	line	25
 11562                           	goto	l3366
 11563  003898  EF54  F01C         	
 11564                           l516:
 11565  00389C                     	line	26
 11566                           	
 11567                           l3364:
 11568  00389C                     	bcf	status,0
 11569  00389C  90D8               	rlcf	((c:___awdiv@divisor)),c
 11570  00389E  3603               	rlcf	((c:___awdiv@divisor+1)),c
 11571  0038A0  3604               	line	27
 11572                           	incf	((c:___awdiv@counter)),c
 11573  0038A2  2A05               	goto	l3366
 11574  0038A4  EF54  F01C         	line	28
 11575                           	
 11576                           l515:
 11577  0038A8                     	line	25
 11578                           	
 11579                           l3366:
 11580  0038A8                     	
 11581                           	btfss	((c:___awdiv@divisor+1)),c,(15)&7
 11582  0038A8  AE04               	goto	u3751
 11583  0038AA  EF59  F01C         	goto	u3750
 11584  0038AE  EF5B  F01C         u3751:
 11585  0038B2                     	goto	l3364
 11586  0038B2  EF4E  F01C         u3750:
 11587  0038B6                     	goto	l3368
 11588  0038B6  EF5F  F01C         	
 11589                           l517:
 11590  0038BA                     	goto	l3368
 11591  0038BA  EF5F  F01C         	line	29
 11592                           	
 11593                           l518:
 11594  0038BE                     	line	30
 11595                           	
 11596                           l3368:
 11597  0038BE                     	bcf	status,0
 11598  0038BE  90D8               	rlcf	((c:___awdiv@quotient)),c
 11599  0038C0  3607               	rlcf	((c:___awdiv@quotient+1)),c
 11600  0038C2  3608               	line	31
 11601                           	
 11602                           l3370:
 11603  0038C4                     		movf	((c:___awdiv@divisor)),c,w
 11604  0038C4  5003               	subwf	((c:___awdiv@dividend)),c,w
 11605  0038C6  5C01               	movf	((c:___awdiv@divisor+1)),c,w
 11606  0038C8  5004               	subwfb	((c:___awdiv@dividend+1)),c,w
 11607  0038CA  5802               	btfss	status,0
 11608  0038CC  A0D8               	goto	u3761
 11609  0038CE  EF6B  F01C         	goto	u3760
 11610  0038D2  EF6D  F01C         
 11611                           u3761:
 11612  0038D6                     	goto	l3376
 11613  0038D6  EF74  F01C         u3760:
 11614  0038DA                     	line	32
 11615                           	
 11616                           l3372:
 11617  0038DA                     	movf	((c:___awdiv@divisor)),c,w
 11618  0038DA  5003               	subwf	((c:___awdiv@dividend)),c
 11619  0038DC  5E01               	movf	((c:___awdiv@divisor+1)),c,w
 11620  0038DE  5004               	subwfb	((c:___awdiv@dividend+1)),c
 11621  0038E0  5A02               
 11622                           	line	33
 11623                           	
 11624                           l3374:
 11625  0038E2                     	bsf	(0+(0/8)+(c:___awdiv@quotient)),c,(0)&7
 11626  0038E2  8007               	goto	l3376
 11627  0038E4  EF74  F01C         	line	34
 11628                           	
 11629                           l519:
 11630  0038E8                     	line	35
 11631                           	
 11632                           l3376:
 11633  0038E8                     	bcf	status,0
 11634  0038E8  90D8               	rrcf	((c:___awdiv@divisor+1)),c
 11635  0038EA  3204               	rrcf	((c:___awdiv@divisor)),c
 11636  0038EC  3203               	line	36
 11637                           	
 11638                           l3378:
 11639  0038EE                     	decfsz	((c:___awdiv@counter)),c
 11640  0038EE  2E05               	
 11641                           	goto	l3368
 11642  0038F0  EF5F  F01C         	goto	l3380
 11643  0038F4  EF7E  F01C         	
 11644                           l520:
 11645  0038F8                     	goto	l3380
 11646  0038F8  EF7E  F01C         	line	37
 11647                           	
 11648                           l514:
 11649  0038FC                     	line	38
 11650                           	
 11651                           l3380:
 11652  0038FC                     	movf	((c:___awdiv@sign)),c,w
 11653  0038FC  5006               	btfsc	status,2
 11654  0038FE  B4D8               	goto	u3771
 11655  003900  EF84  F01C         	goto	u3770
 11656  003904  EF86  F01C         u3771:
 11657  003908                     	goto	l3384
 11658  003908  EF8C  F01C         u3770:
 11659  00390C                     	line	39
 11660                           	
 11661                           l3382:
 11662  00390C                     	negf	((c:___awdiv@quotient)),c
 11663  00390C  6C07               	comf	((c:___awdiv@quotient+1)),c
 11664  00390E  1E08               	btfsc	status,0
 11665  003910  B0D8               	incf	((c:___awdiv@quotient+1)),c
 11666  003912  2A08               	goto	l3384
 11667  003914  EF8C  F01C         	
 11668                           l521:
 11669  003918                     	line	40
 11670                           	
 11671                           l3384:
 11672  003918                     	movff	(c:___awdiv@quotient),(c:?___awdiv)
 11673  003918  C007  F001         	movff	(c:___awdiv@quotient+1),(c:?___awdiv+1)
 11674  00391C  C008  F002         	goto	l522
 11675  003920  EF92  F01C         	
 11676                           l3386:
 11677  003924                     	line	41
 11678                           	
 11679                           l522:
 11680  003924                     	return	;funcret
 11681  003924  0012               	opt stack 0
 11682                           GLOBAL	__end_of___awdiv
 11683                           	__end_of___awdiv:
 11684  003926                     	signat	___awdiv,8314
 11685                           	global	_atoi
 11686                           
 11687 ;; *************** function _atoi *****************
 11688 ;; Defined at:
 11689 ;;		line 4 in file "/opt/microchip/xc8/v2.00/pic/sources/c99/common/atoi.c"
 11690 ;; Parameters:    Size  Location     Type
 11691 ;;  s               2    7[COMRAM] PTR const unsigned char 
 11692 ;;		 -> STR_2(5), 
 11693 ;; Auto vars:     Size  Location     Type
 11694 ;;  n               2   20[COMRAM] int 
 11695 ;;  neg             2   13[COMRAM] int 
 11696 ;; Return value:  Size  Location     Type
 11697 ;;                  2    7[COMRAM] int 
 11698 ;; Registers used:
 11699 ;;		wreg, status,2, status,0, tblptrl, tblptrh, tblptru, prodl, prodh, cstack
 11700 ;; Tracked objects:
 11701 ;;		On entry : 0/0
 11702 ;;		On exit  : 0/0
 11703 ;;		Unchanged: 0/0
 11704 ;; Data sizes:     COMRAM   BANK0   BANK1   BANK2   BANK3   BANK4   BANK5   BANK6   BANK7
 11705 ;;      Params:         2       0       0       0       0       0       0       0       0
 11706 ;;      Locals:         9       0       0       0       0       0       0       0       0
 11707 ;;      Temps:          4       0       0       0       0       0       0       0       0
 11708 ;;      Totals:        15       0       0       0       0       0       0       0       0
 11709 ;;Total ram usage:       15 bytes
 11710 ;; Hardware stack levels used:    1
 11711 ;; Hardware stack levels required when called:    1
 11712 ;; This function calls:
 11713 ;;		___wmul
 11714 ;;		_isdigit
 11715 ;;		_isspace
 11716 ;; This function is called by:
 11717 ;;		_vfpfcnvrt
 11718 ;; This function uses a non-reentrant model
 11719 ;;
 11720                           psect	text27,class=CODE,space=0,reloc=2,group=2
 11721                           	file	"/opt/microchip/xc8/v2.00/pic/sources/c99/common/atoi.c"
 11722                           	line	4
 11723                           global __ptext27
 11724                           __ptext27:
 11725  002AA2                     psect	text27
 11726                           	file	"/opt/microchip/xc8/v2.00/pic/sources/c99/common/atoi.c"
 11727                           	line	4
 11728                           	global	__size_of_atoi
 11729                           	__size_of_atoi	equ	__end_of_atoi-_atoi
 11730  0000                     	
 11731                           _atoi:
 11732  002AA2                     ;incstack = 0
 11733                           	opt	stack 26
 11734                           	line	6
 11735                           	
 11736                           l3824:
 11737  002AA2                     	movlw	high(0)
 11738  002AA2  0E00               	movwf	((c:atoi@n+1)),c
 11739  002AA4  6E16               	movlw	low(0)
 11740  002AA6  0E00               	movwf	((c:atoi@n)),c
 11741  002AA8  6E15               	movlw	high(0)
 11742  002AAA  0E00               	movwf	((c:atoi@neg+1)),c
 11743  002AAC  6E0F               	movlw	low(0)
 11744  002AAE  0E00               	movwf	((c:atoi@neg)),c
 11745  002AB0  6E0E               	line	7
 11746                           	goto	l3828
 11747  002AB2  EF5F  F015         	
 11748                           l981:
 11749  002AB6                     	
 11750                           l3826:
 11751  002AB6                     	infsnz	((c:atoi@s)),c
 11752  002AB6  4A08               	incf	((c:atoi@s+1)),c
 11753  002AB8  2A09               	goto	l3828
 11754  002ABA  EF5F  F015         	
 11755                           l980:
 11756  002ABE                     	
 11757                           l3828:
 11758  002ABE                     	movlw	low(01h)
 11759  002ABE  0E01               	movwf	((c:_atoi$947)),c
 11760  002AC0  6E14               	
 11761                           l3830:
 11762  002AC2                     	movff	(c:atoi@s),tblptrl
 11763  002AC2  C008  FFF6         	movff	(c:atoi@s+1),tblptrh
 11764  002AC6  C009  FFF7         	if	0	;tblptru may be non-zero
 11765  002ACA                     	clrf	tblptru
 11767  002ACA                     	if	0	;tblptru may be non-zero
 11768  002ACA                     	global __mediumconst
 11769                           movlw	low highword(__mediumconst)
 11772  002ACA                     	tblrd	*
 11773  002ACA  0008               	
 11774                           	movf	tablat,w
 11775  002ACC  50F5               	xorlw	020h
 11776  002ACE  0A20               	btfsc	status,2
 11777  002AD0  B4D8               	goto	u4541
 11778  002AD2  EF6D  F015         	goto	u4540
 11779  002AD6  EF6F  F015         u4541:
 11780  002ADA                     	goto	l3836
 11781  002ADA  EF8E  F015         u4540:
 11782  002ADE                     	
 11783                           l3832:
 11784  002ADE                     	movlw	low(0FFF7h)
 11785  002ADE  0EF7               	movwf	(??_atoi+0+0)&0ffh,c
 11786  002AE0  6E0A               	movlw	high(0FFF7h)
 11787  002AE2  0EFF               	movwf	1+(??_atoi+0+0)&0ffh,c
 11788  002AE4  6E0B               	movff	(c:atoi@s),tblptrl
 11789  002AE6  C008  FFF6         	movff	(c:atoi@s+1),tblptrh
 11790  002AEA  C009  FFF7         	if	0	;tblptru may be non-zero
 11791  002AEE                     	clrf	tblptru
 11793  002AEE                     	if	0	;tblptru may be non-zero
 11794  002AEE                     	global __mediumconst
 11795                           movlw	low highword(__mediumconst)
 11798  002AEE                     	tblrd	*
 11799  002AEE  0008               	
 11800                           	movf	tablat,w
 11801  002AF0  50F5               	movwf	(??_atoi+2+0)&0ffh,c
 11802  002AF2  6E0C               	clrf	(??_atoi+2+0+1)&0ffh,c
 11803  002AF4  6A0D               
 11804                           	movf	(??_atoi+0+0),c,w
 11805  002AF6  500A               	addwf	(??_atoi+2+0),c
 11806  002AF8  260C               	movf	(??_atoi+0+1),c,w
 11807  002AFA  500B               	addwfc	(??_atoi+2+1),c
 11808  002AFC  220D               		movf	(??_atoi+2+1),c,w
 11809  002AFE  500D               	bnz	u4550
 11810  002B00  E109               	movlw	5
 11811  002B02  0E05               	subwf	 (??_atoi+2+0),c,w
 11812  002B04  5C0C               	btfss	status,0
 11813  002B06  A0D8               	goto	u4551
 11814  002B08  EF88  F015         	goto	u4550
 11815  002B0C  EF8A  F015         
 11816                           u4551:
 11817  002B10                     	goto	l3836
 11818  002B10  EF8E  F015         u4550:
 11819  002B14                     	
 11820                           l3834:
 11821  002B14                     	movlw	low(0)
 11822  002B14  0E00               	movwf	((c:_atoi$947)),c
 11823  002B16  6E14               	goto	l3836
 11824  002B18  EF8E  F015         	
 11825                           l987:
 11826  002B1C                     	
 11827                           l3836:
 11828  002B1C                     	movff	(c:_atoi$947),(c:_atoi$946)
 11829  002B1C  C014  F010         	clrf	((c:_atoi$946+1)),c
 11830  002B20  6A11               	goto	l3840
 11831  002B22  EFA3  F015         	
 11832                           l983:
 11833  002B26                     	
 11834                           l3838:
 11835  002B26                     	movff	(c:atoi@s),tblptrl
 11836  002B26  C008  FFF6         	movff	(c:atoi@s+1),tblptrh
 11837  002B2A  C009  FFF7         	if	0	;tblptru may be non-zero
 11838  002B2E                     	clrf	tblptru
 11840  002B2E                     	if	0	;tblptru may be non-zero
 11841  002B2E                     	global __mediumconst
 11842                           movlw	low highword(__mediumconst)
 11845  002B2E                     	tblrd	*
 11846  002B2E  0008               	
 11847                           	movf	tablat,w
 11848  002B30  50F5               
 11849                           	movwf	((c:isspace@c)),c
 11850  002B32  6E01               	clrf	((c:isspace@c+1)),c
 11851  002B34  6A02               	call	_isspace	;wreg free
 11852  002B36  EC11  F020         	movff	0+?_isspace,(c:_atoi$946)
 11853  002B3A  C001  F010         	movff	1+?_isspace,(c:_atoi$946+1)
 11854  002B3E  C002  F011         	goto	l3840
 11855  002B42  EFA3  F015         	
 11856                           l985:
 11857  002B46                     	
 11858                           l3840:
 11859  002B46                     	movf	((c:_atoi$946)),c,w
 11860  002B46  5010               iorwf	((c:_atoi$946+1)),c,w
 11861  002B48  1011               	btfss	status,2
 11862  002B4A  A4D8               	goto	u4561
 11863  002B4C  EFAA  F015         	goto	u4560
 11864  002B50  EFAC  F015         
 11865                           u4561:
 11866  002B54                     	goto	l3826
 11867  002B54  EF5B  F015         u4560:
 11868  002B58                     	goto	l3846
 11869  002B58  EFBA  F015         	
 11870                           l988:
 11871  002B5C                     	line	8
 11872                           	goto	l3846
 11873  002B5C  EFBA  F015         	line	9
 11874                           	
 11875                           l990:
 11876  002B60                     	
 11877                           l3842:
 11878  002B60                     	movlw	high(01h)
 11879  002B60  0E00               	movwf	((c:atoi@neg+1)),c
 11880  002B62  6E0F               	movlw	low(01h)
 11881  002B64  0E01               	movwf	((c:atoi@neg)),c
 11882  002B66  6E0E               	goto	l3844
 11883  002B68  EFB6  F015         	line	10
 11884                           	
 11885                           l991:
 11886  002B6C                     	
 11887                           l3844:
 11888  002B6C                     	infsnz	((c:atoi@s)),c
 11889  002B6C  4A08               	incf	((c:atoi@s+1)),c
 11890  002B6E  2A09               	line	11
 11891                           	goto	l3852
 11892  002B70  EFFE  F015         	
 11893                           l989:
 11894  002B74                     	
 11895                           l3846:
 11896  002B74                     	movff	(c:atoi@s),tblptrl
 11897  002B74  C008  FFF6         	movff	(c:atoi@s+1),tblptrh
 11898  002B78  C009  FFF7         	if	0	;tblptru may be non-zero
 11899  002B7C                     	clrf	tblptru
 11901  002B7C                     	if	0	;tblptru may be non-zero
 11902  002B7C                     	global __mediumconst
 11903                           movlw	low highword(__mediumconst)
 11906  002B7C                     	tblrd	*
 11907  002B7C  0008               	
 11908                           	movf	tablat,w
 11909  002B7E  50F5               	movwf	(??_atoi+0+0)&0ffh,c
 11910  002B80  6E0A               	clrf	(??_atoi+0+0+1)&0ffh,c
 11911  002B82  6A0B               
 11912                           	; Switch on 2 bytes has been partitioned into a top level switch of size 1, and 1 sub-s
                                 witches
 11913                           ; Switch size 1, requested type "space"
 11914                           ; Number of cases is 1, Range of values is 0 to 0
 11915                           ; switch strategies available:
 11916                           ; Name         Instructions Cycles
 11917                           ; simple_byte            4     3 (average)
 11918                           ;	Chosen strategy is simple_byte
 11919                           
 11920                           	movf ??_atoi+0+1,c,w
 11921  002B84  500B               	xorlw	0^0	; case 0
 11922  002B86  0A00               	skipnz
 11923  002B88  B4D8               	goto	l4362
 11924  002B8A  EFC9  F015         	goto	l3852
 11925  002B8E  EFFE  F015         	
 11926                           l4362:
 11927  002B92                     ; Switch size 1, requested type "space"
 11928                           ; Number of cases is 2, Range of values is 43 to 45
 11929                           ; switch strategies available:
 11930                           ; Name         Instructions Cycles
 11931                           ; simple_byte            7     4 (average)
 11932                           ;	Chosen strategy is simple_byte
 11933                           
 11934                           	movf ??_atoi+0+0,c,w
 11935  002B92  500A               	xorlw	43^0	; case 43
 11936  002B94  0A2B               	skipnz
 11937  002B96  B4D8               	goto	l3844
 11938  002B98  EFB6  F015         	xorlw	45^43	; case 45
 11939  002B9C  0A06               	skipnz
 11940  002B9E  B4D8               	goto	l3842
 11941  002BA0  EFB0  F015         	goto	l3852
 11942  002BA4  EFFE  F015         
 11943                           	
 11944                           l992:
 11945  002BA8                     	line	13
 11946                           	goto	l3852
 11947  002BA8  EFFE  F015         	
 11948                           l994:
 11949  002BAC                     	line	14
 11950                           	
 11951                           l3848:
 11952  002BAC                     	movlw	low(0FFD0h)
 11953  002BAC  0ED0               	movwf	(??_atoi+0+0)&0ffh,c
 11954  002BAE  6E0A               	movlw	high(0FFD0h)
 11955  002BB0  0EFF               	movwf	1+(??_atoi+0+0)&0ffh,c
 11956  002BB2  6E0B               	movff	(c:atoi@s),tblptrl
 11957  002BB4  C008  FFF6         	movff	(c:atoi@s+1),tblptrh
 11958  002BB8  C009  FFF7         	if	0	;tblptru may be non-zero
 11959  002BBC                     	clrf	tblptru
 11961  002BBC                     	if	0	;tblptru may be non-zero
 11962  002BBC                     	global __mediumconst
 11963                           movlw	low highword(__mediumconst)
 11966  002BBC                     	tblrd	*
 11967  002BBC  0008               	
 11968                           	movf	tablat,w
 11969  002BBE  50F5               	movwf	(??_atoi+2+0)&0ffh,c
 11970  002BC0  6E0C               	clrf	(??_atoi+2+0+1)&0ffh,c
 11971  002BC2  6A0D               
 11972                           	movf	(??_atoi+0+0),c,w
 11973  002BC4  500A               	addwf	(??_atoi+2+0),c
 11974  002BC6  260C               	movf	(??_atoi+0+1),c,w
 11975  002BC8  500B               	addwfc	(??_atoi+2+1),c
 11976  002BCA  220D               	comf	(??_atoi+2+0),c
 11977  002BCC  1E0C               	comf	(??_atoi+2+1),c
 11978  002BCE  1E0D               	infsnz	(??_atoi+2+0),c
 11979  002BD0  4A0C               	incf	(??_atoi+2+1),c
 11980  002BD2  2A0D               	movff	(c:atoi@n),(c:___wmul@multiplier)
 11981  002BD4  C015  F001         	movff	(c:atoi@n+1),(c:___wmul@multiplier+1)
 11982  002BD8  C016  F002         	movlw	high(0Ah)
 11983  002BDC  0E00               	movwf	((c:___wmul@multiplicand+1)),c
 11984  002BDE  6E04               	movlw	low(0Ah)
 11985  002BE0  0E0A               	movwf	((c:___wmul@multiplicand)),c
 11986  002BE2  6E03               	call	___wmul	;wreg free
 11987  002BE4  EC3C  F021         	movf	(??_atoi+2+0),c,w
 11988  002BE8  500C               	addwf	(0+?___wmul),c,w
 11989  002BEA  2401               	movwf	((c:atoi@n)),c
 11990  002BEC  6E15               	movf	(??_atoi+2+1),c,w
 11991  002BEE  500D               	addwfc	(1+?___wmul),c,w
 11992  002BF0  2002               	movwf	1+((c:atoi@n)),c
 11993  002BF2  6E16               	
 11994                           l3850:
 11995  002BF4                     	infsnz	((c:atoi@s)),c
 11996  002BF4  4A08               	incf	((c:atoi@s+1)),c
 11997  002BF6  2A09               	goto	l3852
 11998  002BF8  EFFE  F015         	
 11999                           l993:
 12000  002BFC                     	line	13
 12001                           	
 12002                           l3852:
 12003  002BFC                     	movlw	low(0FFD0h)
 12004  002BFC  0ED0               	movwf	(??_atoi+0+0)&0ffh,c
 12005  002BFE  6E0A               	movlw	high(0FFD0h)
 12006  002C00  0EFF               	movwf	1+(??_atoi+0+0)&0ffh,c
 12007  002C02  6E0B               	movff	(c:atoi@s),tblptrl
 12008  002C04  C008  FFF6         	movff	(c:atoi@s+1),tblptrh
 12009  002C08  C009  FFF7         	if	0	;tblptru may be non-zero
 12010  002C0C                     	clrf	tblptru
 12012  002C0C                     	if	0	;tblptru may be non-zero
 12013  002C0C                     	global __mediumconst
 12014                           movlw	low highword(__mediumconst)
 12017  002C0C                     	tblrd	*
 12018  002C0C  0008               	
 12019                           	movf	tablat,w
 12020  002C0E  50F5               	movwf	(??_atoi+2+0)&0ffh,c
 12021  002C10  6E0C               	clrf	(??_atoi+2+0+1)&0ffh,c
 12022  002C12  6A0D               
 12023                           	movf	(??_atoi+0+0),c,w
 12024  002C14  500A               	addwf	(??_atoi+2+0),c
 12025  002C16  260C               	movf	(??_atoi+0+1),c,w
 12026  002C18  500B               	addwfc	(??_atoi+2+1),c
 12027  002C1A  220D               		movf	(??_atoi+2+1),c,w
 12028  002C1C  500D               	bnz	u4570
 12029  002C1E  E10A               	movlw	10
 12030  002C20  0E0A               	subwf	 (??_atoi+2+0),c,w
 12031  002C22  5C0C               	btfss	status,0
 12032  002C24  A0D8               	goto	u4571
 12033  002C26  EF17  F016         	goto	u4570
 12034  002C2A  EF1A  F016         
 12035                           u4571:
 12036  002C2E                     	movlw	1
 12037  002C2E  0E01               	goto	u4580
 12038  002C30  EF1B  F016         u4570:
 12039  002C34                     	movlw	0
 12040  002C34  0E00               u4580:
 12041  002C36                     	movwf	((c:_atoi$948)),c
 12042  002C36  6E12               	clrf	((c:_atoi$948+1)),c
 12043  002C38  6A13               	goto	l3856
 12044  002C3A  EF2F  F016         	
 12045                           l996:
 12046  002C3E                     	
 12047                           l3854:
 12048  002C3E                     	movff	(c:atoi@s),tblptrl
 12049  002C3E  C008  FFF6         	movff	(c:atoi@s+1),tblptrh
 12050  002C42  C009  FFF7         	if	0	;tblptru may be non-zero
 12051  002C46                     	clrf	tblptru
 12053  002C46                     	if	0	;tblptru may be non-zero
 12054  002C46                     	global __mediumconst
 12055                           movlw	low highword(__mediumconst)
 12058  002C46                     	tblrd	*
 12059  002C46  0008               	
 12060                           	movf	tablat,w
 12061  002C48  50F5               
 12062                           	movwf	((c:isdigit@c)),c
 12063  002C4A  6E01               	clrf	((c:isdigit@c+1)),c
 12064  002C4C  6A02               	call	_isdigit	;wreg free
 12065  002C4E  ECF0  F020         	movff	0+?_isdigit,(c:_atoi$948)
 12066  002C52  C001  F012         	movff	1+?_isdigit,(c:_atoi$948+1)
 12067  002C56  C002  F013         	goto	l3856
 12068  002C5A  EF2F  F016         	
 12069                           l998:
 12070  002C5E                     	
 12071                           l3856:
 12072  002C5E                     	movf	((c:_atoi$948)),c,w
 12073  002C5E  5012               iorwf	((c:_atoi$948+1)),c,w
 12074  002C60  1013               	btfss	status,2
 12075  002C62  A4D8               	goto	u4591
 12076  002C64  EF36  F016         	goto	u4590
 12077  002C68  EF38  F016         
 12078                           u4591:
 12079  002C6C                     	goto	l3848
 12080  002C6C  EFD6  F015         u4590:
 12081  002C70                     	goto	l3858
 12082  002C70  EF3A  F016         	
 12083                           l999:
 12084  002C74                     	line	15
 12085                           	
 12086                           l3858:
 12087  002C74                     	movf	((c:atoi@neg)),c,w
 12088  002C74  500E               iorwf	((c:atoi@neg+1)),c,w
 12089  002C76  100F               	btfss	status,2
 12090  002C78  A4D8               	goto	u4601
 12091  002C7A  EF41  F016         	goto	u4600
 12092  002C7E  EF43  F016         
 12093                           u4601:
 12094  002C82                     	goto	l1001
 12095  002C82  EF51  F016         u4600:
 12096  002C86                     	
 12097                           l3860:
 12098  002C86                     	movff	(c:atoi@n),??_atoi+0+0
 12099  002C86  C015  F00A         	movff	(c:atoi@n+1),??_atoi+0+0+1
 12100  002C8A  C016  F00B         	comf	(??_atoi+0+0),c
 12101  002C8E  1E0A               	comf	(??_atoi+0+1),c
 12102  002C90  1E0B               	infsnz	(??_atoi+0+0),c
 12103  002C92  4A0A               	incf	(??_atoi+0+1),c
 12104  002C94  2A0B               	movff	??_atoi+0+0,(c:?_atoi)
 12105  002C96  C00A  F008         	movff	??_atoi+0+1,(c:?_atoi+1)
 12106  002C9A  C00B  F009         	goto	l1004
 12107  002C9E  EF57  F016         	
 12108                           l1001:
 12109  002CA2                     	movff	(c:atoi@n),(c:?_atoi)
 12110  002CA2  C015  F008         	movff	(c:atoi@n+1),(c:?_atoi+1)
 12111  002CA6  C016  F009         	goto	l1004
 12112  002CAA  EF57  F016         	
 12113                           l1003:
 12114  002CAE                     	line	16
 12115                           	
 12116                           l1004:
 12117  002CAE                     	return	;funcret
 12118  002CAE  0012               	opt stack 0
 12119                           GLOBAL	__end_of_atoi
 12120                           	__end_of_atoi:
 12121  002CB0                     	signat	_atoi,4218
 12122                           	global	_isspace
 12123                           
 12124 ;; *************** function _isspace *****************
 12125 ;; Defined at:
 12126 ;;		line 5 in file "/opt/microchip/xc8/v2.00/pic/sources/c99/common/isspace.c"
 12127 ;; Parameters:    Size  Location     Type
 12128 ;;  c               2    0[COMRAM] int 
 12129 ;; Auto vars:     Size  Location     Type
 12130 ;;		None
 12131 ;; Return value:  Size  Location     Type
 12132 ;;                  2    0[COMRAM] int 
 12133 ;; Registers used:
 12134 ;;		wreg, status,2, status,0
 12135 ;; Tracked objects:
 12136 ;;		On entry : 0/0
 12137 ;;		On exit  : 0/0
 12138 ;;		Unchanged: 0/0
 12139 ;; Data sizes:     COMRAM   BANK0   BANK1   BANK2   BANK3   BANK4   BANK5   BANK6   BANK7
 12140 ;;      Params:         2       0       0       0       0       0       0       0       0
 12141 ;;      Locals:         1       0       0       0       0       0       0       0       0
 12142 ;;      Temps:          4       0       0       0       0       0       0       0       0
 12143 ;;      Totals:         7       0       0       0       0       0       0       0       0
 12144 ;;Total ram usage:        7 bytes
 12145 ;; Hardware stack levels used:    1
 12146 ;; This function calls:
 12147 ;;		Nothing
 12148 ;; This function is called by:
 12149 ;;		_atoi
 12150 ;; This function uses a non-reentrant model
 12151 ;;
 12152                           psect	text28,class=CODE,space=0,reloc=2,group=2
 12153                           	file	"/opt/microchip/xc8/v2.00/pic/sources/c99/common/isspace.c"
 12154                           	line	5
 12155                           global __ptext28
 12156                           __ptext28:
 12157  004022                     psect	text28
 12158                           	file	"/opt/microchip/xc8/v2.00/pic/sources/c99/common/isspace.c"
 12159                           	line	5
 12160                           	global	__size_of_isspace
 12161                           	__size_of_isspace	equ	__end_of_isspace-_isspace
 12162  0000                     	
 12163                           _isspace:
 12164  004022                     ;incstack = 0
 12165                           	opt	stack 26
 12166                           	line	7
 12167                           	
 12168                           l3514:
 12169  004022                     	movlw	low(01h)
 12170  004022  0E01               	movwf	((c:_isspace$977)),c
 12171  004024  6E07               	
 12172                           l3516:
 12173  004026                     		movlw	32
 12174  004026  0E20               	xorwf	((c:isspace@c)),c,w
 12175  004028  1801               iorwf	((c:isspace@c+1)),c,w
 12176  00402A  1002               	btfsc	status,2
 12177  00402C  B4D8               	goto	u4001
 12178  00402E  EF1B  F020         	goto	u4000
 12179  004032  EF1D  F020         
 12180                           u4001:
 12181  004036                     	goto	l3522
 12182  004036  EF38  F020         u4000:
 12183  00403A                     	
 12184                           l3518:
 12185  00403A                     	movlw	low(0FFF7h)
 12186  00403A  0EF7               	movwf	(??_isspace+0+0)&0ffh,c
 12187  00403C  6E03               	movlw	high(0FFF7h)
 12188  00403E  0EFF               	movwf	1+(??_isspace+0+0)&0ffh,c
 12189  004040  6E04               	movff	(c:isspace@c),??_isspace+2+0
 12190  004042  C001  F005         	movff	(c:isspace@c+1),??_isspace+2+0+1
 12191  004046  C002  F006         	movf	(??_isspace+0+0),c,w
 12192  00404A  5003               	addwf	(??_isspace+2+0),c
 12193  00404C  2605               	movf	(??_isspace+0+1),c,w
 12194  00404E  5004               	addwfc	(??_isspace+2+1),c
 12195  004050  2206               		movf	(??_isspace+2+1),c,w
 12196  004052  5006               	bnz	u4010
 12197  004054  E109               	movlw	5
 12198  004056  0E05               	subwf	 (??_isspace+2+0),c,w
 12199  004058  5C05               	btfss	status,0
 12200  00405A  A0D8               	goto	u4011
 12201  00405C  EF32  F020         	goto	u4010
 12202  004060  EF34  F020         
 12203                           u4011:
 12204  004064                     	goto	l3522
 12205  004064  EF38  F020         u4010:
 12206  004068                     	
 12207                           l3520:
 12208  004068                     	movlw	low(0)
 12209  004068  0E00               	movwf	((c:_isspace$977)),c
 12210  00406A  6E07               	goto	l3522
 12211  00406C  EF38  F020         	
 12212                           l1027:
 12213  004070                     	
 12214                           l3522:
 12215  004070                     	movff	(c:_isspace$977),(c:?_isspace)
 12216  004070  C007  F001         	clrf	((c:?_isspace+1)),c
 12217  004074  6A02               	goto	l1028
 12218  004076  EF3D  F020         	
 12219                           l3524:
 12220  00407A                     	line	8
 12221                           	
 12222                           l1028:
 12223  00407A                     	return	;funcret
 12224  00407A  0012               	opt stack 0
 12225                           GLOBAL	__end_of_isspace
 12226                           	__end_of_isspace:
 12227  00407C                     	signat	_isspace,4218
 12228                           	global	_isdigit
 12229                           
 12230 ;; *************** function _isdigit *****************
 12231 ;; Defined at:
 12232 ;;		line 5 in file "/opt/microchip/xc8/v2.00/pic/sources/c99/common/isdigit.c"
 12233 ;; Parameters:    Size  Location     Type
 12234 ;;  c               2    0[COMRAM] int 
 12235 ;; Auto vars:     Size  Location     Type
 12236 ;;		None
 12237 ;; Return value:  Size  Location     Type
 12238 ;;                  2    0[COMRAM] int 
 12239 ;; Registers used:
 12240 ;;		wreg, status,2, status,0
 12241 ;; Tracked objects:
 12242 ;;		On entry : 0/0
 12243 ;;		On exit  : 0/0
 12244 ;;		Unchanged: 0/0
 12245 ;; Data sizes:     COMRAM   BANK0   BANK1   BANK2   BANK3   BANK4   BANK5   BANK6   BANK7
 12246 ;;      Params:         2       0       0       0       0       0       0       0       0
 12247 ;;      Locals:         0       0       0       0       0       0       0       0       0
 12248 ;;      Temps:          4       0       0       0       0       0       0       0       0
 12249 ;;      Totals:         6       0       0       0       0       0       0       0       0
 12250 ;;Total ram usage:        6 bytes
 12251 ;; Hardware stack levels used:    1
 12252 ;; This function calls:
 12253 ;;		Nothing
 12254 ;; This function is called by:
 12255 ;;		_vfpfcnvrt
 12256 ;;		_atoi
 12257 ;; This function uses a non-reentrant model
 12258 ;;
 12259                           psect	text29,class=CODE,space=0,reloc=2,group=2
 12260                           	file	"/opt/microchip/xc8/v2.00/pic/sources/c99/common/isdigit.c"
 12261                           	line	5
 12262                           global __ptext29
 12263                           __ptext29:
 12264  0041E0                     psect	text29
 12265                           	file	"/opt/microchip/xc8/v2.00/pic/sources/c99/common/isdigit.c"
 12266                           	line	5
 12267                           	global	__size_of_isdigit
 12268                           	__size_of_isdigit	equ	__end_of_isdigit-_isdigit
 12269  0000                     	
 12270                           _isdigit:
 12271  0041E0                     ;incstack = 0
 12272                           	opt	stack 27
 12273                           	line	7
 12274                           	
 12275                           l3060:
 12276  0041E0                     	movlw	low(0FFD0h)
 12277  0041E0  0ED0               	movwf	(??_isdigit+0+0)&0ffh,c
 12278  0041E2  6E03               	movlw	high(0FFD0h)
 12279  0041E4  0EFF               	movwf	1+(??_isdigit+0+0)&0ffh,c
 12280  0041E6  6E04               	movff	(c:isdigit@c),??_isdigit+2+0
 12281  0041E8  C001  F005         	movff	(c:isdigit@c+1),??_isdigit+2+0+1
 12282  0041EC  C002  F006         	movf	(??_isdigit+0+0),c,w
 12283  0041F0  5003               	addwf	(??_isdigit+2+0),c
 12284  0041F2  2605               	movf	(??_isdigit+0+1),c,w
 12285  0041F4  5004               	addwfc	(??_isdigit+2+1),c
 12286  0041F6  2206               		movf	(??_isdigit+2+1),c,w
 12287  0041F8  5006               	bnz	u3280
 12288  0041FA  E10A               	movlw	10
 12289  0041FC  0E0A               	subwf	 (??_isdigit+2+0),c,w
 12290  0041FE  5C05               	btfss	status,0
 12291  004200  A0D8               	goto	u3281
 12292  004202  EF05  F021         	goto	u3280
 12293  004206  EF08  F021         
 12294                           u3281:
 12295  00420A                     	movlw	1
 12296  00420A  0E01               	goto	u3290
 12297  00420C  EF09  F021         u3280:
 12298  004210                     	movlw	0
 12299  004210  0E00               u3290:
 12300  004212                     	movwf	((c:?_isdigit)),c
 12301  004212  6E01               	clrf	((c:?_isdigit+1)),c
 12302  004214  6A02               	goto	l1020
 12303  004216  EF0D  F021         	
 12304                           l3062:
 12305  00421A                     	line	8
 12306                           	
 12307                           l1020:
 12308  00421A                     	return	;funcret
 12309  00421A  0012               	opt stack 0
 12310                           GLOBAL	__end_of_isdigit
 12311                           	__end_of_isdigit:
 12312  00421C                     	signat	_isdigit,4218
 12313                           	global	___wmul
 12314                           
 12315 ;; *************** function ___wmul *****************
 12316 ;; Defined at:
 12317 ;;		line 15 in file "/opt/microchip/xc8/v2.00/pic/sources/c99/common/Umul16.c"
 12318 ;; Parameters:    Size  Location     Type
 12319 ;;  multiplier      2    0[COMRAM] unsigned int 
 12320 ;;  multiplicand    2    2[COMRAM] unsigned int 
 12321 ;; Auto vars:     Size  Location     Type
 12322 ;;  product         2    4[COMRAM] unsigned int 
 12323 ;; Return value:  Size  Location     Type
 12324 ;;                  2    0[COMRAM] unsigned int 
 12325 ;; Registers used:
 12326 ;;		wreg, status,2, status,0, prodl, prodh
 12327 ;; Tracked objects:
 12328 ;;		On entry : 0/0
 12329 ;;		On exit  : 0/0
 12330 ;;		Unchanged: 0/0
 12331 ;; Data sizes:     COMRAM   BANK0   BANK1   BANK2   BANK3   BANK4   BANK5   BANK6   BANK7
 12332 ;;      Params:         4       0       0       0       0       0       0       0       0
 12333 ;;      Locals:         2       0       0       0       0       0       0       0       0
 12334 ;;      Temps:          0       0       0       0       0       0       0       0       0
 12335 ;;      Totals:         6       0       0       0       0       0       0       0       0
 12336 ;;Total ram usage:        6 bytes
 12337 ;; Hardware stack levels used:    1
 12338 ;; This function calls:
 12339 ;;		Nothing
 12340 ;; This function is called by:
 12341 ;;		_atoi
 12342 ;; This function uses a non-reentrant model
 12343 ;;
 12344                           psect	text30,class=CODE,space=0,reloc=2,group=1
 12345                           	file	"/opt/microchip/xc8/v2.00/pic/sources/c99/common/Umul16.c"
 12346                           	line	15
 12347                           global __ptext30
 12348                           __ptext30:
 12349  004278                     psect	text30
 12350                           	file	"/opt/microchip/xc8/v2.00/pic/sources/c99/common/Umul16.c"
 12351                           	line	15
 12352                           	global	__size_of___wmul
 12353                           	__size_of___wmul	equ	__end_of___wmul-___wmul
 12354  0000                     	
 12355                           ___wmul:
 12356  004278                     ;incstack = 0
 12357                           	opt	stack 26
 12358                           	line	37
 12359                           	
 12360                           l3064:
 12361  004278                     	movf	((c:___wmul@multiplier)),c,w
 12362  004278  5001               	mulwf	((c:___wmul@multiplicand)),c
 12363  00427A  0203               	movff	prodl,(c:___wmul@product)
 12364  00427C  CFF3 F005          	movff	prodh,(c:___wmul@product+1)
 12365  004280  CFF4 F006          	line	38
 12366                           	movf	((c:___wmul@multiplier)),c,w
 12367  004284  5001               	mulwf	(0+((c:___wmul@multiplicand)+01h)),c
 12368  004286  0204               	movf	(prodl),c,w
 12369  004288  50F3               	addwf	((c:___wmul@product+1)),c
 12370  00428A  2606               
 12371                           	line	39
 12372                           	movf	(0+((c:___wmul@multiplier)+01h)),c,w
 12373  00428C  5002               	mulwf	((c:___wmul@multiplicand)),c
 12374  00428E  0203               	movf	(prodl),c,w
 12375  004290  50F3               	addwf	((c:___wmul@product+1)),c
 12376  004292  2606               
 12377                           	line	52
 12378                           	
 12379                           l3066:
 12380  004294                     	movff	(c:___wmul@product),(c:?___wmul)
 12381  004294  C005  F001         	movff	(c:___wmul@product+1),(c:?___wmul+1)
 12382  004298  C006  F002         	goto	l291
 12383  00429C  EF50  F021         	
 12384                           l3068:
 12385  0042A0                     	line	53
 12386                           	
 12387                           l291:
 12388  0042A0                     	return	;funcret
 12389  0042A0  0012               	opt stack 0
 12390                           GLOBAL	__end_of___wmul
 12391                           	__end_of___wmul:
 12392  0042A2                     	signat	___wmul,8314
 12393                           	global	___xxtofl
 12394                           
 12395 ;; *************** function ___xxtofl *****************
 12396 ;; Defined at:
 12397 ;;		line 10 in file "/opt/microchip/xc8/v2.00/pic/sources/c99/common/xxtofl.c"
 12398 ;; Parameters:    Size  Location     Type
 12399 ;;  sign            1    wreg     unsigned char 
 12400 ;;  val             4    0[COMRAM] long 
 12401 ;; Auto vars:     Size  Location     Type
 12402 ;;  sign            1    8[COMRAM] unsigned char 
 12403 ;;  arg             4   10[COMRAM] unsigned long 
 12404 ;;  exp             1    9[COMRAM] unsigned char 
 12405 ;; Return value:  Size  Location     Type
 12406 ;;                  4    0[COMRAM] unsigned char 
 12407 ;; Registers used:
 12408 ;;		wreg, status,2, status,0
 12409 ;; Tracked objects:
 12410 ;;		On entry : 0/0
 12411 ;;		On exit  : 0/0
 12412 ;;		Unchanged: 0/0
 12413 ;; Data sizes:     COMRAM   BANK0   BANK1   BANK2   BANK3   BANK4   BANK5   BANK6   BANK7
 12414 ;;      Params:         4       0       0       0       0       0       0       0       0
 12415 ;;      Locals:         6       0       0       0       0       0       0       0       0
 12416 ;;      Temps:          4       0       0       0       0       0       0       0       0
 12417 ;;      Totals:        14       0       0       0       0       0       0       0       0
 12418 ;;Total ram usage:       14 bytes
 12419 ;; Hardware stack levels used:    1
 12420 ;; This function calls:
 12421 ;;		Nothing
 12422 ;; This function is called by:
 12423 ;;		_main
 12424 ;; This function uses a non-reentrant model
 12425 ;;
 12426                           psect	text31,class=CODE,space=0,reloc=2,group=1
 12427                           	file	"/opt/microchip/xc8/v2.00/pic/sources/c99/common/xxtofl.c"
 12428                           	line	10
 12429                           global __ptext31
 12430                           __ptext31:
 12431  002CB0                     psect	text31
 12432                           	file	"/opt/microchip/xc8/v2.00/pic/sources/c99/common/xxtofl.c"
 12433                           	line	10
 12434                           	global	__size_of___xxtofl
 12435                           	__size_of___xxtofl	equ	__end_of___xxtofl-___xxtofl
 12436  0000                     	
 12437                           ___xxtofl:
 12438  002CB0                     ;incstack = 0
 12439                           	opt	stack 30
 12440                           ;___xxtofl@sign stored from wreg
 12441                           	movwf	((c:___xxtofl@sign)),c
 12442  002CB0  6E09               	line	15
 12443                           	
 12444                           l4200:
 12445  002CB2                     	movf	((c:___xxtofl@sign)),c,w
 12446  002CB2  5009               	btfsc	status,2
 12447  002CB4  B4D8               	goto	u4981
 12448  002CB6  EF5F  F016         	goto	u4980
 12449  002CBA  EF61  F016         u4981:
 12450  002CBE                     	goto	l946
 12451  002CBE  EF83  F016         u4980:
 12452  002CC2                     	
 12453                           l4202:
 12454  002CC2                     	btfsc	((c:___xxtofl@val+3)),c,7
 12455  002CC2  BE04               	goto	u4990
 12456  002CC4  EF68  F016         	goto	u4991
 12457  002CC8  EF66  F016         
 12458                           u4991:
 12459  002CCC                     	goto	l946
 12460  002CCC  EF83  F016         u4990:
 12461  002CD0                     	line	16
 12462                           	
 12463                           l4204:
 12464  002CD0                     	movff	(c:___xxtofl@val),??___xxtofl+0+0
 12465  002CD0  C001  F005         	movff	(c:___xxtofl@val+1),??___xxtofl+0+0+1
 12466  002CD4  C002  F006         	movff	(c:___xxtofl@val+2),??___xxtofl+0+0+2
 12467  002CD8  C003  F007         	movff	(c:___xxtofl@val+3),??___xxtofl+0+0+3
 12468  002CDC  C004  F008         	comf	(??___xxtofl+0+0),c
 12469  002CE0  1E05               	comf	(??___xxtofl+0+1),c
 12470  002CE2  1E06               	comf	(??___xxtofl+0+2),c
 12471  002CE4  1E07               	comf	(??___xxtofl+0+3),c
 12472  002CE6  1E08               	incf	(??___xxtofl+0+0),c
 12473  002CE8  2A05               	movlw	0
 12474  002CEA  0E00               	addwfc	(??___xxtofl+0+1),c
 12475  002CEC  2206               	addwfc	(??___xxtofl+0+2),c
 12476  002CEE  2207               	addwfc	(??___xxtofl+0+3),c
 12477  002CF0  2208               	movff	??___xxtofl+0+0,(c:___xxtofl@arg)
 12478  002CF2  C005  F00B         	movff	??___xxtofl+0+1,(c:___xxtofl@arg+1)
 12479  002CF6  C006  F00C         	movff	??___xxtofl+0+2,(c:___xxtofl@arg+2)
 12480  002CFA  C007  F00D         	movff	??___xxtofl+0+3,(c:___xxtofl@arg+3)
 12481  002CFE  C008  F00E         	line	17
 12482                           	goto	l4206
 12483  002D02  EF8D  F016         	line	18
 12484                           	
 12485                           l946:
 12486  002D06                     	line	19
 12487                           	movff	(c:___xxtofl@val),(c:___xxtofl@arg)
 12488  002D06  C001  F00B         	movff	(c:___xxtofl@val+1),(c:___xxtofl@arg+1)
 12489  002D0A  C002  F00C         	movff	(c:___xxtofl@val+2),(c:___xxtofl@arg+2)
 12490  002D0E  C003  F00D         	movff	(c:___xxtofl@val+3),(c:___xxtofl@arg+3)
 12491  002D12  C004  F00E         	goto	l4206
 12492  002D16  EF8D  F016         	line	20
 12493                           	
 12494                           l947:
 12495  002D1A                     	line	21
 12496                           	
 12497                           l4206:
 12498  002D1A                     	movf	((c:___xxtofl@val)),c,w
 12499  002D1A  5001               iorwf	((c:___xxtofl@val+1)),c,w
 12500  002D1C  1002               iorwf	((c:___xxtofl@val+2)),c,w
 12501  002D1E  1003               iorwf	((c:___xxtofl@val+3)),c,w
 12502  002D20  1004               	btfss	status,2
 12503  002D22  A4D8               	goto	u5001
 12504  002D24  EF96  F016         	goto	u5000
 12505  002D28  EF98  F016         
 12506                           u5001:
 12507  002D2C                     	goto	l4212
 12508  002D2C  EFA4  F016         u5000:
 12509  002D30                     	line	22
 12510                           	
 12511                           l4208:
 12512  002D30                     	movlw	low(normalize32(0x0))
 12513  002D30  0E00               	movwf	((c:?___xxtofl)),c
 12514  002D32  6E01               	movlw	high(normalize32(0x0))
 12515  002D34  0E00               	movwf	((c:?___xxtofl+1)),c
 12516  002D36  6E02               	movlw	low highword(normalize32(0x0))
 12517  002D38  0E00               	movwf	((c:?___xxtofl+2)),c
 12518  002D3A  6E03               	movlw	high highword(normalize32(0x0))
 12519  002D3C  0E00               	movwf	((c:?___xxtofl+3)),c
 12520  002D3E  6E04               	goto	l949
 12521  002D40  EF45  F017         	
 12522                           l4210:
 12523  002D44                     	goto	l949
 12524  002D44  EF45  F017         	
 12525                           l948:
 12526  002D48                     	line	23
 12527                           	
 12528                           l4212:
 12529  002D48                     	movlw	low(096h)
 12530  002D48  0E96               	movwf	((c:___xxtofl@exp)),c
 12531  002D4A  6E0A               	line	24
 12532                           	goto	l4216
 12533  002D4C  EFB0  F016         	
 12534                           l951:
 12535  002D50                     	line	25
 12536                           	
 12537                           l4214:
 12538  002D50                     	incf	((c:___xxtofl@exp)),c
 12539  002D50  2A0A               	line	26
 12540                           	bcf	status,0
 12541  002D52  90D8               	rrcf	((c:___xxtofl@arg+3)),c
 12542  002D54  320E               	rrcf	((c:___xxtofl@arg+2)),c
 12543  002D56  320D               	rrcf	((c:___xxtofl@arg+1)),c
 12544  002D58  320C               	rrcf	((c:___xxtofl@arg)),c
 12545  002D5A  320B               	goto	l4216
 12546  002D5C  EFB0  F016         	line	27
 12547                           	
 12548                           l950:
 12549  002D60                     	line	24
 12550                           	
 12551                           l4216:
 12552  002D60                     	movlw	0
 12553  002D60  0E00               	andwf	((c:___xxtofl@arg)),c,w
 12554  002D62  140B               	movwf	(??___xxtofl+0+0)&0ffh,c
 12555  002D64  6E05               	movlw	0
 12556  002D66  0E00               	andwf	((c:___xxtofl@arg+1)),c,w
 12557  002D68  140C               	movwf	1+(??___xxtofl+0+0)&0ffh,c
 12558  002D6A  6E06               	
 12559                           	movlw	0
 12560  002D6C  0E00               	andwf	((c:___xxtofl@arg+2)),c,w
 12561  002D6E  140D               	movwf	2+(??___xxtofl+0+0)&0ffh,c
 12562  002D70  6E07               	
 12563                           	movlw	0FEh
 12564  002D72  0EFE               	andwf	((c:___xxtofl@arg+3)),c,w
 12565  002D74  140E               	movwf	3+(??___xxtofl+0+0)&0ffh,c
 12566  002D76  6E08               	movf	(??___xxtofl+0+0),c,w
 12567  002D78  5005               iorwf	(??___xxtofl+0+1),c,w
 12568  002D7A  1006               iorwf	(??___xxtofl+0+2),c,w
 12569  002D7C  1007               iorwf	(??___xxtofl+0+3),c,w
 12570  002D7E  1008               	btfss	status,2
 12571  002D80  A4D8               	goto	u5011
 12572  002D82  EFC5  F016         	goto	u5010
 12573  002D86  EFC7  F016         
 12574                           u5011:
 12575  002D8A                     	goto	l4214
 12576  002D8A  EFA8  F016         u5010:
 12577  002D8E                     	goto	l953
 12578  002D8E  EFD7  F016         	
 12579                           l952:
 12580  002D92                     	line	28
 12581                           	goto	l953
 12582  002D92  EFD7  F016         	
 12583                           l954:
 12584  002D96                     	line	29
 12585                           	
 12586                           l4218:
 12587  002D96                     	incf	((c:___xxtofl@exp)),c
 12588  002D96  2A0A               	line	30
 12589                           	
 12590                           l4220:
 12591  002D98                     	movlw	low(01h)
 12592  002D98  0E01               	addwf	((c:___xxtofl@arg)),c
 12593  002D9A  260B               	movlw	0
 12594  002D9C  0E00               	addwfc	((c:___xxtofl@arg+1)),c
 12595  002D9E  220C               	addwfc	((c:___xxtofl@arg+2)),c
 12596  002DA0  220D               	addwfc	((c:___xxtofl@arg+3)),c
 12597  002DA2  220E               	line	31
 12598                           	
 12599                           l4222:
 12600  002DA4                     	bcf	status,0
 12601  002DA4  90D8               	rrcf	((c:___xxtofl@arg+3)),c
 12602  002DA6  320E               	rrcf	((c:___xxtofl@arg+2)),c
 12603  002DA8  320D               	rrcf	((c:___xxtofl@arg+1)),c
 12604  002DAA  320C               	rrcf	((c:___xxtofl@arg)),c
 12605  002DAC  320B               	line	32
 12606                           	
 12607                           l953:
 12608  002DAE                     	line	28
 12609                           	movlw	0
 12610  002DAE  0E00               	andwf	((c:___xxtofl@arg)),c,w
 12611  002DB0  140B               	movwf	(??___xxtofl+0+0)&0ffh,c
 12612  002DB2  6E05               	movlw	0
 12613  002DB4  0E00               	andwf	((c:___xxtofl@arg+1)),c,w
 12614  002DB6  140C               	movwf	1+(??___xxtofl+0+0)&0ffh,c
 12615  002DB8  6E06               	
 12616                           	movlw	0
 12617  002DBA  0E00               	andwf	((c:___xxtofl@arg+2)),c,w
 12618  002DBC  140D               	movwf	2+(??___xxtofl+0+0)&0ffh,c
 12619  002DBE  6E07               	
 12620                           	movlw	0FFh
 12621  002DC0  0EFF               	andwf	((c:___xxtofl@arg+3)),c,w
 12622  002DC2  140E               	movwf	3+(??___xxtofl+0+0)&0ffh,c
 12623  002DC4  6E08               	movf	(??___xxtofl+0+0),c,w
 12624  002DC6  5005               iorwf	(??___xxtofl+0+1),c,w
 12625  002DC8  1006               iorwf	(??___xxtofl+0+2),c,w
 12626  002DCA  1007               iorwf	(??___xxtofl+0+3),c,w
 12627  002DCC  1008               	btfss	status,2
 12628  002DCE  A4D8               	goto	u5021
 12629  002DD0  EFEC  F016         	goto	u5020
 12630  002DD4  EFEE  F016         
 12631                           u5021:
 12632  002DD8                     	goto	l4218
 12633  002DD8  EFCB  F016         u5020:
 12634  002DDC                     	goto	l4226
 12635  002DDC  EFFA  F016         	
 12636                           l955:
 12637  002DE0                     	line	33
 12638                           	goto	l4226
 12639  002DE0  EFFA  F016         	
 12640                           l957:
 12641  002DE4                     	line	34
 12642                           	
 12643                           l4224:
 12644  002DE4                     	decf	((c:___xxtofl@exp)),c
 12645  002DE4  060A               	line	35
 12646                           	bcf	status,0
 12647  002DE6  90D8               	rlcf	((c:___xxtofl@arg)),c
 12648  002DE8  360B               	rlcf	((c:___xxtofl@arg+1)),c
 12649  002DEA  360C               	rlcf	((c:___xxtofl@arg+2)),c
 12650  002DEC  360D               	rlcf	((c:___xxtofl@arg+3)),c
 12651  002DEE  360E               	goto	l4226
 12652  002DF0  EFFA  F016         	line	36
 12653                           	
 12654                           l956:
 12655  002DF4                     	line	33
 12656                           	
 12657                           l4226:
 12658  002DF4                     	
 12659                           	btfsc	((c:___xxtofl@arg+2)),c,(23)&7
 12660  002DF4  BE0D               	goto	u5031
 12661  002DF6  EFFF  F016         	goto	u5030
 12662  002DFA  EF01  F017         u5031:
 12663  002DFE                     	goto	l960
 12664  002DFE  EF0B  F017         u5030:
 12665  002E02                     	
 12666                           l4228:
 12667  002E02                     		movlw	02h-0
 12668  002E02  0E02               	cpfslt	((c:___xxtofl@exp)),c
 12669  002E04  600A               	goto	u5041
 12670  002E06  EF07  F017         	goto	u5040
 12671  002E0A  EF09  F017         
 12672                           u5041:
 12673  002E0E                     	goto	l4224
 12674  002E0E  EFF2  F016         u5040:
 12675  002E12                     	goto	l960
 12676  002E12  EF0B  F017         	
 12677                           l959:
 12678  002E16                     	
 12679                           l960:
 12680  002E16                     	line	37
 12681                           	
 12682                           	btfsc	((c:___xxtofl@exp)),c,(0)&7
 12683  002E16  B00A               	goto	u5051
 12684  002E18  EF10  F017         	goto	u5050
 12685  002E1C  EF12  F017         u5051:
 12686  002E20                     	goto	l4232
 12687  002E20  EF15  F017         u5050:
 12688  002E24                     	line	38
 12689                           	
 12690                           l4230:
 12691  002E24                     	bcf	(0+(23/8)+(c:___xxtofl@arg)),c,(23)&7
 12692  002E24  9E0D               	goto	l4232
 12693  002E26  EF15  F017         	
 12694                           l961:
 12695  002E2A                     	line	39
 12696                           	
 12697                           l4232:
 12698  002E2A                     	bcf status,0
 12699  002E2A  90D8               	rrcf	((c:___xxtofl@exp)),c
 12700  002E2C  320A               
 12701                           	line	40
 12702                           	
 12703                           l4234:
 12704  002E2E                     	movff	(c:___xxtofl@exp),??___xxtofl+0+0
 12705  002E2E  C00A  F005         	clrf	(??___xxtofl+0+0+1)&0ffh,c
 12706  002E32  6A06               	clrf	(??___xxtofl+0+0+2)&0ffh,c
 12707  002E34  6A07               	clrf	(??___xxtofl+0+0+3)&0ffh,c
 12708  002E36  6A08               	movff	??___xxtofl+0+0,??___xxtofl+0+3
 12709  002E38  C005  F008         	clrf	(??___xxtofl+0+2),c
 12710  002E3C  6A07               	clrf	(??___xxtofl+0+1),c
 12711  002E3E  6A06               	clrf	(??___xxtofl+0+0),c
 12712  002E40  6A05               	movf	(??___xxtofl+0+0),c,w
 12713  002E42  5005               	iorwf	((c:___xxtofl@arg)),c
 12714  002E44  120B               	movf	(??___xxtofl+0+1),c,w
 12715  002E46  5006               	iorwf	((c:___xxtofl@arg+1)),c
 12716  002E48  120C               	movf	(??___xxtofl+0+2),c,w
 12717  002E4A  5007               	iorwf	((c:___xxtofl@arg+2)),c
 12718  002E4C  120D               	movf	(??___xxtofl+0+3),c,w
 12719  002E4E  5008               	iorwf	((c:___xxtofl@arg+3)),c
 12720  002E50  120E               
 12721                           	line	41
 12722                           	
 12723                           l4236:
 12724  002E52                     	movf	((c:___xxtofl@sign)),c,w
 12725  002E52  5009               	btfsc	status,2
 12726  002E54  B4D8               	goto	u5061
 12727  002E56  EF2F  F017         	goto	u5060
 12728  002E5A  EF31  F017         u5061:
 12729  002E5E                     	goto	l4242
 12730  002E5E  EF3B  F017         u5060:
 12731  002E62                     	
 12732                           l4238:
 12733  002E62                     	btfsc	((c:___xxtofl@val+3)),c,7
 12734  002E62  BE04               	goto	u5070
 12735  002E64  EF38  F017         	goto	u5071
 12736  002E68  EF36  F017         
 12737                           u5071:
 12738  002E6C                     	goto	l4242
 12739  002E6C  EF3B  F017         u5070:
 12740  002E70                     	line	42
 12741                           	
 12742                           l4240:
 12743  002E70                     	bsf	(0+(31/8)+(c:___xxtofl@arg)),c,(31)&7
 12744  002E70  8E0E               	goto	l4242
 12745  002E72  EF3B  F017         	
 12746                           l962:
 12747  002E76                     	line	43
 12748                           	
 12749                           l4242:
 12750  002E76                     	movff	(c:___xxtofl@arg),(c:?___xxtofl)
 12751  002E76  C00B  F001         	movff	(c:___xxtofl@arg+1),(c:?___xxtofl+1)
 12752  002E7A  C00C  F002         	movff	(c:___xxtofl@arg+2),(c:?___xxtofl+2)
 12753  002E7E  C00D  F003         	movff	(c:___xxtofl@arg+3),(c:?___xxtofl+3)
 12754  002E82  C00E  F004         	goto	l949
 12755  002E86  EF45  F017         	
 12756                           l4244:
 12757  002E8A                     	line	44
 12758                           	
 12759                           l949:
 12760  002E8A                     	return	;funcret
 12761  002E8A  0012               	opt stack 0
 12762                           GLOBAL	__end_of___xxtofl
 12763                           	__end_of___xxtofl:
 12764  002E8C                     	signat	___xxtofl,8316
 12765                           	global	_Lcd_Out2
 12766                           
 12767 ;; *************** function _Lcd_Out2 *****************
 12768 ;; Defined at:
 12769 ;;		line 137 in file "./LCD.h"
 12770 ;; Parameters:    Size  Location     Type
 12771 ;;  y               1    wreg     unsigned char 
 12772 ;;  x               1    3[COMRAM] unsigned char 
 12773 ;;  buffer          2    4[COMRAM] PTR unsigned char 
 12774 ;;		 -> main@data(10), 
 12775 ;; Auto vars:     Size  Location     Type
 12776 ;;  y               1    8[COMRAM] unsigned char 
 12777 ;;  data            1    9[COMRAM] unsigned char 
 12778 ;; Return value:  Size  Location     Type
 12779 ;;                  1    wreg      void 
 12780 ;; Registers used:
 12781 ;;		wreg, fsr2l, fsr2h, status,2, status,0, cstack
 12782 ;; Tracked objects:
 12783 ;;		On entry : 0/0
 12784 ;;		On exit  : 0/0
 12785 ;;		Unchanged: 0/0
 12786 ;; Data sizes:     COMRAM   BANK0   BANK1   BANK2   BANK3   BANK4   BANK5   BANK6   BANK7
 12787 ;;      Params:         3       0       0       0       0       0       0       0       0
 12788 ;;      Locals:         2       0       0       0       0       0       0       0       0
 12789 ;;      Temps:          2       0       0       0       0       0       0       0       0
 12790 ;;      Totals:         7       0       0       0       0       0       0       0       0
 12791 ;;Total ram usage:        7 bytes
 12792 ;; Hardware stack levels used:    1
 12793 ;; Hardware stack levels required when called:    1
 12794 ;; This function calls:
 12795 ;;		_Lcd_Chr_CP
 12796 ;;		_Lcd_Cmd
 12797 ;; This function is called by:
 12798 ;;		_main
 12799 ;; This function uses a non-reentrant model
 12800 ;;
 12801                           psect	text32,class=CODE,space=0,reloc=2,group=0
 12802                           	file	"./LCD.h"
 12803                           	line	137
 12804                           global __ptext32
 12805                           __ptext32:
 12806  003D20                     psect	text32
 12807                           	file	"./LCD.h"
 12808                           	line	137
 12809                           	global	__size_of_Lcd_Out2
 12810                           	__size_of_Lcd_Out2	equ	__end_of_Lcd_Out2-_Lcd_Out2
 12811  0000                     	
 12812                           _Lcd_Out2:
 12813  003D20                     ;incstack = 0
 12814                           	opt	stack 29
 12815                           ;Lcd_Out2@y stored from wreg
 12816                           	movwf	((c:Lcd_Out2@y)),c
 12817  003D20  6E09               	line	140
 12818                           	
 12819                           l4140:
 12820  003D22                     ;./LCD.h: 137: void Lcd_Out2(unsigned char y, unsigned char x, char *buffer);./LCD.h: 13
                                 8: {;./LCD.h: 139: unsigned char data;;./LCD.h: 140: switch (y)
 12821                           	goto	l4152
 12822  003D22  EFAB  F01E         	line	142
 12823                           ;./LCD.h: 141: {;./LCD.h: 142:     case 1: data = 128 + x; break;
 12824                           	
 12825                           l74:
 12826  003D26                     	
 12827                           l4142:
 12828  003D26                     	movf	((c:Lcd_Out2@x)),c,w
 12829  003D26  5004               	addlw	low(080h)
 12830  003D28  0F80               	movwf	((c:Lcd_Out2@data)),c
 12831  003D2A  6E0A               	goto	l4154
 12832  003D2C  EFC8  F01E         	line	143
 12833                           ;./LCD.h: 143:     case 2: data = 192 + x; break;
 12834                           	
 12835                           l76:
 12836  003D30                     	
 12837                           l4144:
 12838  003D30                     	movf	((c:Lcd_Out2@x)),c,w
 12839  003D30  5004               	addlw	low(0C0h)
 12840  003D32  0FC0               	movwf	((c:Lcd_Out2@data)),c
 12841  003D34  6E0A               	goto	l4154
 12842  003D36  EFC8  F01E         	line	144
 12843                           ;./LCD.h: 144:     case 3: data = 148 + x; break;
 12844                           	
 12845                           l77:
 12846  003D3A                     	
 12847                           l4146:
 12848  003D3A                     	movf	((c:Lcd_Out2@x)),c,w
 12849  003D3A  5004               	addlw	low(094h)
 12850  003D3C  0F94               	movwf	((c:Lcd_Out2@data)),c
 12851  003D3E  6E0A               	goto	l4154
 12852  003D40  EFC8  F01E         	line	145
 12853                           ;./LCD.h: 145:     case 4: data = 212 + x; break;
 12854                           	
 12855                           l78:
 12856  003D44                     	
 12857                           l4148:
 12858  003D44                     	movf	((c:Lcd_Out2@x)),c,w
 12859  003D44  5004               	addlw	low(0D4h)
 12860  003D46  0FD4               	movwf	((c:Lcd_Out2@data)),c
 12861  003D48  6E0A               	goto	l4154
 12862  003D4A  EFC8  F01E         	line	146
 12863                           ;./LCD.h: 146:     default: break;
 12864                           	
 12865                           l79:
 12866  003D4E                     	goto	l4154
 12867  003D4E  EFC8  F01E         	line	147
 12868                           	
 12869                           l4150:
 12870  003D52                     ;./LCD.h: 147: }
 12871                           	goto	l4154
 12872  003D52  EFC8  F01E         	
 12873                           l73:
 12874  003D56                     	
 12875                           l4152:
 12876  003D56                     	movf	((c:Lcd_Out2@y)),c,w
 12877  003D56  5009               	movwf	(??_Lcd_Out2+0+0)&0ffh,c
 12878  003D58  6E07               	clrf	(??_Lcd_Out2+0+0+1)&0ffh,c
 12879  003D5A  6A08               
 12880                           	; Switch on 2 bytes has been partitioned into a top level switch of size 1, and 1 sub-s
                                 witches
 12881                           ; Switch size 1, requested type "space"
 12882                           ; Number of cases is 1, Range of values is 0 to 0
 12883                           ; switch strategies available:
 12884                           ; Name         Instructions Cycles
 12885                           ; simple_byte            4     3 (average)
 12886                           ;	Chosen strategy is simple_byte
 12887                           
 12888                           	movf ??_Lcd_Out2+0+1,c,w
 12889  003D5C  5008               	xorlw	0^0	; case 0
 12890  003D5E  0A00               	skipnz
 12891  003D60  B4D8               	goto	l4364
 12892  003D62  EFB5  F01E         	goto	l4154
 12893  003D66  EFC8  F01E         	
 12894                           l4364:
 12895  003D6A                     ; Switch size 1, requested type "space"
 12896                           ; Number of cases is 4, Range of values is 1 to 4
 12897                           ; switch strategies available:
 12898                           ; Name         Instructions Cycles
 12899                           ; simple_byte           13     7 (average)
 12900                           ;	Chosen strategy is simple_byte
 12901                           
 12902                           	movf ??_Lcd_Out2+0+0,c,w
 12903  003D6A  5007               	xorlw	1^0	; case 1
 12904  003D6C  0A01               	skipnz
 12905  003D6E  B4D8               	goto	l4142
 12906  003D70  EF93  F01E         	xorlw	2^1	; case 2
 12907  003D74  0A03               	skipnz
 12908  003D76  B4D8               	goto	l4144
 12909  003D78  EF98  F01E         	xorlw	3^2	; case 3
 12910  003D7C  0A01               	skipnz
 12911  003D7E  B4D8               	goto	l4146
 12912  003D80  EF9D  F01E         	xorlw	4^3	; case 4
 12913  003D84  0A07               	skipnz
 12914  003D86  B4D8               	goto	l4148
 12915  003D88  EFA2  F01E         	goto	l4154
 12916  003D8C  EFC8  F01E         
 12917                           	
 12918                           l75:
 12919  003D90                     	line	148
 12920                           	
 12921                           l4154:
 12922  003D90                     ;./LCD.h: 148: Lcd_Cmd(data);
 12923                           	movf	((c:Lcd_Out2@data)),c,w
 12924  003D90  500A               	
 12925                           	call	_Lcd_Cmd
 12926  003D92  EC83  F01A         	line	149
 12927                           ;./LCD.h: 149: while(*buffer)
 12928                           	goto	l4160
 12929  003D96  EFD8  F01E         	
 12930                           l81:
 12931  003D9A                     	line	151
 12932                           	
 12933                           l4156:
 12934  003D9A                     ;./LCD.h: 150: {;./LCD.h: 151:     Lcd_Chr_CP(*buffer);
 12935                           	movff	(c:Lcd_Out2@buffer),fsr2l
 12936  003D9A  C005  FFD9         	movff	(c:Lcd_Out2@buffer+1),fsr2h
 12937  003D9E  C006  FFDA         	movf	indf2,w
 12938  003DA2  50DF               	
 12939                           	call	_Lcd_Chr_CP
 12940  003DA4  ECEB  F019         	line	152
 12941                           	
 12942                           l4158:
 12943  003DA8                     ;./LCD.h: 152:     buffer++;
 12944                           	infsnz	((c:Lcd_Out2@buffer)),c
 12945  003DA8  4A05               	incf	((c:Lcd_Out2@buffer+1)),c
 12946  003DAA  2A06               	goto	l4160
 12947  003DAC  EFD8  F01E         	line	153
 12948                           ;./LCD.h: 153: }
 12949                           	
 12950                           l80:
 12951  003DB0                     	line	149
 12952                           	
 12953                           l4160:
 12954  003DB0                     ;./LCD.h: 149: while(*buffer)
 12955                           	movff	(c:Lcd_Out2@buffer),fsr2l
 12956  003DB0  C005  FFD9         	movff	(c:Lcd_Out2@buffer+1),fsr2h
 12957  003DB4  C006  FFDA         	movf	indf2,w
 12958  003DB8  50DF               	btfss	status,2
 12959  003DBA  A4D8               	goto	u4901
 12960  003DBC  EFE2  F01E         	goto	u4900
 12961  003DC0  EFE4  F01E         u4901:
 12962  003DC4                     	goto	l4156
 12963  003DC4  EFCD  F01E         u4900:
 12964  003DC8                     	goto	l83
 12965  003DC8  EFE6  F01E         	
 12966                           l82:
 12967  003DCC                     	line	155
 12968                           ;./LCD.h: 154: return;
 12969                           	
 12970                           l83:
 12971  003DCC                     	return	;funcret
 12972  003DCC  0012               	opt stack 0
 12973                           GLOBAL	__end_of_Lcd_Out2
 12974                           	__end_of_Lcd_Out2:
 12975  003DCE                     	signat	_Lcd_Out2,12409
 12976                           	global	_Lcd_Out
 12977                           
 12978 ;; *************** function _Lcd_Out *****************
 12979 ;; Defined at:
 12980 ;;		line 116 in file "./LCD.h"
 12981 ;; Parameters:    Size  Location     Type
 12982 ;;  y               1    wreg     unsigned char 
 12983 ;;  x               1    3[COMRAM] unsigned char 
 12984 ;;  buffer          2    4[COMRAM] PTR const unsigned char 
 12985 ;;		 -> STR_1(14), 
 12986 ;; Auto vars:     Size  Location     Type
 12987 ;;  y               1    8[COMRAM] unsigned char 
 12988 ;;  data            1    9[COMRAM] unsigned char 
 12989 ;; Return value:  Size  Location     Type
 12990 ;;                  1    wreg      void 
 12991 ;; Registers used:
 12992 ;;		wreg, status,2, status,0, tblptrl, tblptrh, tblptru, cstack
 12993 ;; Tracked objects:
 12994 ;;		On entry : 0/0
 12995 ;;		On exit  : 0/0
 12996 ;;		Unchanged: 0/0
 12997 ;; Data sizes:     COMRAM   BANK0   BANK1   BANK2   BANK3   BANK4   BANK5   BANK6   BANK7
 12998 ;;      Params:         3       0       0       0       0       0       0       0       0
 12999 ;;      Locals:         2       0       0       0       0       0       0       0       0
 13000 ;;      Temps:          2       0       0       0       0       0       0       0       0
 13001 ;;      Totals:         7       0       0       0       0       0       0       0       0
 13002 ;;Total ram usage:        7 bytes
 13003 ;; Hardware stack levels used:    1
 13004 ;; Hardware stack levels required when called:    1
 13005 ;; This function calls:
 13006 ;;		_Lcd_Chr_CP
 13007 ;;		_Lcd_Cmd
 13008 ;; This function is called by:
 13009 ;;		_main
 13010 ;; This function uses a non-reentrant model
 13011 ;;
 13012                           psect	text33,class=CODE,space=0,reloc=2,group=0
 13013                           	line	116
 13014                           global __ptext33
 13015                           __ptext33:
 13016  003C6C                     psect	text33
 13017                           	file	"./LCD.h"
 13018                           	line	116
 13019                           	global	__size_of_Lcd_Out
 13020                           	__size_of_Lcd_Out	equ	__end_of_Lcd_Out-_Lcd_Out
 13021  0000                     	
 13022                           _Lcd_Out:
 13023  003C6C                     ;incstack = 0
 13024                           	opt	stack 29
 13025                           ;Lcd_Out@y stored from wreg
 13026                           	movwf	((c:Lcd_Out@y)),c
 13027  003C6C  6E09               	line	119
 13028                           	
 13029                           l4114:
 13030  003C6E                     ;./LCD.h: 116: void Lcd_Out(unsigned char y, unsigned char x, const char *buffer);./LCD.
                                 h: 117: {;./LCD.h: 118: unsigned char data;;./LCD.h: 119: switch (y)
 13031                           	goto	l4126
 13032  003C6E  EF51  F01E         	line	121
 13033                           ;./LCD.h: 120: {;./LCD.h: 121:     case 1: data = 128 + x; break;
 13034                           	
 13035                           l61:
 13036  003C72                     	
 13037                           l4116:
 13038  003C72                     	movf	((c:Lcd_Out@x)),c,w
 13039  003C72  5004               	addlw	low(080h)
 13040  003C74  0F80               	movwf	((c:Lcd_Out@data)),c
 13041  003C76  6E0A               	goto	l4128
 13042  003C78  EF6E  F01E         	line	122
 13043                           ;./LCD.h: 122:     case 2: data = 192 + x; break;
 13044                           	
 13045                           l63:
 13046  003C7C                     	
 13047                           l4118:
 13048  003C7C                     	movf	((c:Lcd_Out@x)),c,w
 13049  003C7C  5004               	addlw	low(0C0h)
 13050  003C7E  0FC0               	movwf	((c:Lcd_Out@data)),c
 13051  003C80  6E0A               	goto	l4128
 13052  003C82  EF6E  F01E         	line	123
 13053                           ;./LCD.h: 123:     case 3: data = 148 + x; break;
 13054                           	
 13055                           l64:
 13056  003C86                     	
 13057                           l4120:
 13058  003C86                     	movf	((c:Lcd_Out@x)),c,w
 13059  003C86  5004               	addlw	low(094h)
 13060  003C88  0F94               	movwf	((c:Lcd_Out@data)),c
 13061  003C8A  6E0A               	goto	l4128
 13062  003C8C  EF6E  F01E         	line	124
 13063                           ;./LCD.h: 124:     case 4: data = 212 + x; break;
 13064                           	
 13065                           l65:
 13066  003C90                     	
 13067                           l4122:
 13068  003C90                     	movf	((c:Lcd_Out@x)),c,w
 13069  003C90  5004               	addlw	low(0D4h)
 13070  003C92  0FD4               	movwf	((c:Lcd_Out@data)),c
 13071  003C94  6E0A               	goto	l4128
 13072  003C96  EF6E  F01E         	line	125
 13073                           ;./LCD.h: 125:     default: break;
 13074                           	
 13075                           l66:
 13076  003C9A                     	goto	l4128
 13077  003C9A  EF6E  F01E         	line	126
 13078                           	
 13079                           l4124:
 13080  003C9E                     ;./LCD.h: 126: }
 13081                           	goto	l4128
 13082  003C9E  EF6E  F01E         	
 13083                           l60:
 13084  003CA2                     	
 13085                           l4126:
 13086  003CA2                     	movf	((c:Lcd_Out@y)),c,w
 13087  003CA2  5009               	movwf	(??_Lcd_Out+0+0)&0ffh,c
 13088  003CA4  6E07               	clrf	(??_Lcd_Out+0+0+1)&0ffh,c
 13089  003CA6  6A08               
 13090                           	; Switch on 2 bytes has been partitioned into a top level switch of size 1, and 1 sub-s
                                 witches
 13091                           ; Switch size 1, requested type "space"
 13092                           ; Number of cases is 1, Range of values is 0 to 0
 13093                           ; switch strategies available:
 13094                           ; Name         Instructions Cycles
 13095                           ; simple_byte            4     3 (average)
 13096                           ;	Chosen strategy is simple_byte
 13097                           
 13098                           	movf ??_Lcd_Out+0+1,c,w
 13099  003CA8  5008               	xorlw	0^0	; case 0
 13100  003CAA  0A00               	skipnz
 13101  003CAC  B4D8               	goto	l4366
 13102  003CAE  EF5B  F01E         	goto	l4128
 13103  003CB2  EF6E  F01E         	
 13104                           l4366:
 13105  003CB6                     ; Switch size 1, requested type "space"
 13106                           ; Number of cases is 4, Range of values is 1 to 4
 13107                           ; switch strategies available:
 13108                           ; Name         Instructions Cycles
 13109                           ; simple_byte           13     7 (average)
 13110                           ;	Chosen strategy is simple_byte
 13111                           
 13112                           	movf ??_Lcd_Out+0+0,c,w
 13113  003CB6  5007               	xorlw	1^0	; case 1
 13114  003CB8  0A01               	skipnz
 13115  003CBA  B4D8               	goto	l4116
 13116  003CBC  EF39  F01E         	xorlw	2^1	; case 2
 13117  003CC0  0A03               	skipnz
 13118  003CC2  B4D8               	goto	l4118
 13119  003CC4  EF3E  F01E         	xorlw	3^2	; case 3
 13120  003CC8  0A01               	skipnz
 13121  003CCA  B4D8               	goto	l4120
 13122  003CCC  EF43  F01E         	xorlw	4^3	; case 4
 13123  003CD0  0A07               	skipnz
 13124  003CD2  B4D8               	goto	l4122
 13125  003CD4  EF48  F01E         	goto	l4128
 13126  003CD8  EF6E  F01E         
 13127                           	
 13128                           l62:
 13129  003CDC                     	line	127
 13130                           	
 13131                           l4128:
 13132  003CDC                     ;./LCD.h: 127: Lcd_Cmd(data);
 13133                           	movf	((c:Lcd_Out@data)),c,w
 13134  003CDC  500A               	
 13135                           	call	_Lcd_Cmd
 13136  003CDE  EC83  F01A         	line	128
 13137                           ;./LCD.h: 128: while(*buffer)
 13138                           	goto	l4134
 13139  003CE2  EF7F  F01E         	
 13140                           l68:
 13141  003CE6                     	line	130
 13142                           	
 13143                           l4130:
 13144  003CE6                     ;./LCD.h: 129: {;./LCD.h: 130:     Lcd_Chr_CP(*buffer);
 13145                           	movff	(c:Lcd_Out@buffer),tblptrl
 13146  003CE6  C005  FFF6         	movff	(c:Lcd_Out@buffer+1),tblptrh
 13147  003CEA  C006  FFF7         	if	0	;tblptru may be non-zero
 13148  003CEE                     	clrf	tblptru
 13150  003CEE                     	if	0	;tblptru may be non-zero
 13151  003CEE                     	global __mediumconst
 13152                           movlw	low highword(__mediumconst)
 13155  003CEE                     	tblrd	*
 13156  003CEE  0008               	
 13157                           	movf	tablat,w
 13158  003CF0  50F5               	
 13159                           	call	_Lcd_Chr_CP
 13160  003CF2  ECEB  F019         	line	131
 13161                           	
 13162                           l4132:
 13163  003CF6                     ;./LCD.h: 131:     buffer++;
 13164                           	infsnz	((c:Lcd_Out@buffer)),c
 13165  003CF6  4A05               	incf	((c:Lcd_Out@buffer+1)),c
 13166  003CF8  2A06               	goto	l4134
 13167  003CFA  EF7F  F01E         	line	132
 13168                           ;./LCD.h: 132: }
 13169                           	
 13170                           l67:
 13171  003CFE                     	line	128
 13172                           	
 13173                           l4134:
 13174  003CFE                     ;./LCD.h: 128: while(*buffer)
 13175                           	movff	(c:Lcd_Out@buffer),tblptrl
 13176  003CFE  C005  FFF6         	movff	(c:Lcd_Out@buffer+1),tblptrh
 13177  003D02  C006  FFF7         	if	0	;tblptru may be non-zero
 13178  003D06                     	clrf	tblptru
 13180  003D06                     	if	0	;tblptru may be non-zero
 13181  003D06                     	global __mediumconst
 13182                           movlw	low highword(__mediumconst)
 13185  003D06                     	tblrd	*
 13186  003D06  0008               	
 13187                           	movf	tablat,w
 13188  003D08  50F5               	iorlw	0
 13189  003D0A  0900               	btfss	status,2
 13190  003D0C  A4D8               	goto	u4891
 13191  003D0E  EF8B  F01E         	goto	u4890
 13192  003D12  EF8D  F01E         u4891:
 13193  003D16                     	goto	l4130
 13194  003D16  EF73  F01E         u4890:
 13195  003D1A                     	goto	l70
 13196  003D1A  EF8F  F01E         	
 13197                           l69:
 13198  003D1E                     	line	134
 13199                           ;./LCD.h: 133: return;
 13200                           	
 13201                           l70:
 13202  003D1E                     	return	;funcret
 13203  003D1E  0012               	opt stack 0
 13204                           GLOBAL	__end_of_Lcd_Out
 13205                           	__end_of_Lcd_Out:
 13206  003D20                     	signat	_Lcd_Out,12409
 13207                           	global	_Lcd_Chr_CP
 13208                           
 13209 ;; *************** function _Lcd_Chr_CP *****************
 13210 ;; Defined at:
 13211 ;;		line 158 in file "./LCD.h"
 13212 ;; Parameters:    Size  Location     Type
 13213 ;;  data            1    wreg     unsigned char 
 13214 ;; Auto vars:     Size  Location     Type
 13215 ;;  data            1    2[COMRAM] unsigned char 
 13216 ;; Return value:  Size  Location     Type
 13217 ;;                  1    wreg      void 
 13218 ;; Registers used:
 13219 ;;		wreg, status,2, status,0
 13220 ;; Tracked objects:
 13221 ;;		On entry : 0/0
 13222 ;;		On exit  : 0/0
 13223 ;;		Unchanged: 0/0
 13224 ;; Data sizes:     COMRAM   BANK0   BANK1   BANK2   BANK3   BANK4   BANK5   BANK6   BANK7
 13225 ;;      Params:         0       0       0       0       0       0       0       0       0
 13226 ;;      Locals:         1       0       0       0       0       0       0       0       0
 13227 ;;      Temps:          2       0       0       0       0       0       0       0       0
 13228 ;;      Totals:         3       0       0       0       0       0       0       0       0
 13229 ;;Total ram usage:        3 bytes
 13230 ;; Hardware stack levels used:    1
 13231 ;; This function calls:
 13232 ;;		Nothing
 13233 ;; This function is called by:
 13234 ;;		_Lcd_Out
 13235 ;;		_Lcd_Out2
 13236 ;; This function uses a non-reentrant model
 13237 ;;
 13238                           psect	text34,class=CODE,space=0,reloc=2,group=0
 13239                           	line	158
 13240                           global __ptext34
 13241                           __ptext34:
 13242  0033D6                     psect	text34
 13243                           	file	"./LCD.h"
 13244                           	line	158
 13245                           	global	__size_of_Lcd_Chr_CP
 13246                           	__size_of_Lcd_Chr_CP	equ	__end_of_Lcd_Chr_CP-_Lcd_Chr_CP
 13247  0000                     	
 13248                           _Lcd_Chr_CP:
 13249  0033D6                     ;incstack = 0
 13250                           	opt	stack 29
 13251                           ;Lcd_Chr_CP@data stored from wreg
 13252                           	movwf	((c:Lcd_Chr_CP@data)),c
 13253  0033D6  6E03               	line	159
 13254                           	
 13255                           l4006:
 13256  0033D8                     ;./LCD.h: 159: PORTDbits.RD3 = 0; PORTDbits.RD1 = 1;
 13257                           	bcf	((c:3971)),c,3	;volatile
 13258  0033D8  9683               	bsf	((c:3971)),c,1	;volatile
 13259  0033DA  8283               	line	160
 13260                           	
 13261                           l4008:
 13262  0033DC                     ;./LCD.h: 160: PORTDbits.RD7 = (data & 0b10000000)>>7; PORTDbits.RD6 = (data & 0b0100000
                                 0)>>6;
 13263                           	clrf	(??_Lcd_Chr_CP+0+0)&0ffh,c
 13264  0033DC  6A01               	btfss	((c:Lcd_Chr_CP@data)),c,7
 13265  0033DE  AE03               	bra	u4835
 13266  0033E0  D001               	incf	(??_Lcd_Chr_CP+0+0)&0ffh,c
 13267  0033E2  2A01               	u4835:
 13268  0033E4                     	movlw	01h
 13269  0033E4  0E01               	andwf	(??_Lcd_Chr_CP+0+0),c
 13270  0033E6  1601               	rrcf	(??_Lcd_Chr_CP+0+0),c
 13271  0033E8  3201               	rrcf	(??_Lcd_Chr_CP+0+0),c
 13272  0033EA  3201               	movf	((c:3971)),c,w	;volatile
 13273  0033EC  5083               	xorwf	(??_Lcd_Chr_CP+0+0),c,w
 13274  0033EE  1801               	andlw	not (((1<<1)-1)<<7)
 13275  0033F0  0B7F               	xorwf	(??_Lcd_Chr_CP+0+0),c,w
 13276  0033F2  1801               	movwf	((c:3971)),c	;volatile
 13277  0033F4  6E83               	movff	(c:Lcd_Chr_CP@data),??_Lcd_Chr_CP+0+0
 13278  0033F6  C003  F001         	movlw	06h
 13279  0033FA  0E06               	movwf	(??_Lcd_Chr_CP+1+0)&0ffh,c
 13280  0033FC  6E02               u4845:
 13281  0033FE                     	bcf	status,0
 13282  0033FE  90D8               	rrcf	(??_Lcd_Chr_CP+0+0),c
 13283  003400  3201               	decfsz	(??_Lcd_Chr_CP+1+0)&0ffh,c
 13284  003402  2E02               	goto	u4845
 13285  003404  EFFF  F019         	movlw	01h
 13286  003408  0E01               	andwf	(??_Lcd_Chr_CP+0+0),c
 13287  00340A  1601               	swapf	(??_Lcd_Chr_CP+0+0),c
 13288  00340C  3A01               	rlncf	(??_Lcd_Chr_CP+0+0),c
 13289  00340E  4601               	rlncf	(??_Lcd_Chr_CP+0+0),c
 13290  003410  4601               	movf	((c:3971)),c,w	;volatile
 13291  003412  5083               	xorwf	(??_Lcd_Chr_CP+0+0),c,w
 13292  003414  1801               	andlw	not (((1<<1)-1)<<6)
 13293  003416  0BBF               	xorwf	(??_Lcd_Chr_CP+0+0),c,w
 13294  003418  1801               	movwf	((c:3971)),c	;volatile
 13295  00341A  6E83               	line	161
 13296                           ;./LCD.h: 161: PORTDbits.RD5 = (data & 0b00100000)>>5; PORTDbits.RD4 = (data & 0b0001000
                                 0)>>4;
 13297                           	movff	(c:Lcd_Chr_CP@data),??_Lcd_Chr_CP+0+0
 13298  00341C  C003  F001         	movlw	05h
 13299  003420  0E05               	movwf	(??_Lcd_Chr_CP+1+0)&0ffh,c
 13300  003422  6E02               u4855:
 13301  003424                     	bcf	status,0
 13302  003424  90D8               	rrcf	(??_Lcd_Chr_CP+0+0),c
 13303  003426  3201               	decfsz	(??_Lcd_Chr_CP+1+0)&0ffh,c
 13304  003428  2E02               	goto	u4855
 13305  00342A  EF12  F01A         	movlw	01h
 13306  00342E  0E01               	andwf	(??_Lcd_Chr_CP+0+0),c
 13307  003430  1601               	swapf	(??_Lcd_Chr_CP+0+0),c
 13308  003432  3A01               	rlncf	(??_Lcd_Chr_CP+0+0),c
 13309  003434  4601               	movf	((c:3971)),c,w	;volatile
 13310  003436  5083               	xorwf	(??_Lcd_Chr_CP+0+0),c,w
 13311  003438  1801               	andlw	not (((1<<1)-1)<<5)
 13312  00343A  0BDF               	xorwf	(??_Lcd_Chr_CP+0+0),c,w
 13313  00343C  1801               	movwf	((c:3971)),c	;volatile
 13314  00343E  6E83               	movff	(c:Lcd_Chr_CP@data),??_Lcd_Chr_CP+0+0
 13315  003440  C003  F001         	swapf	(??_Lcd_Chr_CP+0+0),c
 13316  003444  3A01               	movlw	(0ffh shr 4) & 0ffh
 13317  003446  0E0F               	andwf	(??_Lcd_Chr_CP+0+0),c
 13318  003448  1601               	movlw	01h
 13319  00344A  0E01               	andwf	(??_Lcd_Chr_CP+0+0),c
 13320  00344C  1601               	swapf	(??_Lcd_Chr_CP+0+0),c
 13321  00344E  3A01               	movf	((c:3971)),c,w	;volatile
 13322  003450  5083               	xorwf	(??_Lcd_Chr_CP+0+0),c,w
 13323  003452  1801               	andlw	not (((1<<1)-1)<<4)
 13324  003454  0BEF               	xorwf	(??_Lcd_Chr_CP+0+0),c,w
 13325  003456  1801               	movwf	((c:3971)),c	;volatile
 13326  003458  6E83               	line	162
 13327                           	
 13328                           l4010:
 13329  00345A                     ;./LCD.h: 162: _delay((unsigned long)((10)*(4000000/4000000.0)));
 13330                           	opt asmopt_push
 13331                           opt asmopt_off
 13332                           	movlw	3
 13333  00345A  0E03               u5107:
 13334  00345C                     decfsz	wreg,f
 13335  00345C  2EE8               	bra	u5107
 13336  00345E  D7FE               	nop
 13337  003460  F000               opt asmopt_pop
 13338                           
 13339                           	line	163
 13340                           	
 13341                           l4012:
 13342  003462                     ;./LCD.h: 163: PORTDbits.RD3 = 1; _delay((unsigned long)((5)*(4000000/4000000.0))); PORT
                                 Dbits.RD3 = 0;
 13343                           	bsf	((c:3971)),c,3	;volatile
 13344  003462  8683               	
 13345                           l4014:
 13346  003464                     		opt asmopt_push
 13347                           	opt asmopt_off
 13348                           	nop2	;2 cycle nop
 13349  003464  D000               	nop2	;2 cycle nop
 13350  003466  D000               	nop
 13351  003468  F000               	opt asmopt_pop
 13352                           
 13353                           	
 13354                           l4016:
 13355  00346A                     	bcf	((c:3971)),c,3	;volatile
 13356  00346A  9683               	line	164
 13357                           	
 13358                           l4018:
 13359  00346C                     ;./LCD.h: 164: PORTDbits.RD7 = (data & 0b00001000)>>3; PORTDbits.RD6 = (data & 0b0000010
                                 0)>>2;
 13360                           	movff	(c:Lcd_Chr_CP@data),??_Lcd_Chr_CP+0+0
 13361  00346C  C003  F001         	bcf	status,0
 13362  003470  90D8               	rrcf	(??_Lcd_Chr_CP+0+0),c
 13363  003472  3201               	bcf	status,0
 13364  003474  90D8               	rrcf	(??_Lcd_Chr_CP+0+0),c
 13365  003476  3201               	bcf	status,0
 13366  003478  90D8               	rrcf	(??_Lcd_Chr_CP+0+0),c
 13367  00347A  3201               
 13368                           	movlw	01h
 13369  00347C  0E01               	andwf	(??_Lcd_Chr_CP+0+0),c
 13370  00347E  1601               	rrcf	(??_Lcd_Chr_CP+0+0),c
 13371  003480  3201               	rrcf	(??_Lcd_Chr_CP+0+0),c
 13372  003482  3201               	movf	((c:3971)),c,w	;volatile
 13373  003484  5083               	xorwf	(??_Lcd_Chr_CP+0+0),c,w
 13374  003486  1801               	andlw	not (((1<<1)-1)<<7)
 13375  003488  0B7F               	xorwf	(??_Lcd_Chr_CP+0+0),c,w
 13376  00348A  1801               	movwf	((c:3971)),c	;volatile
 13377  00348C  6E83               	
 13378                           l4020:
 13379  00348E                     	movff	(c:Lcd_Chr_CP@data),??_Lcd_Chr_CP+0+0
 13380  00348E  C003  F001         	bcf	status,0
 13381  003492  90D8               	rrcf	(??_Lcd_Chr_CP+0+0),c
 13382  003494  3201               	bcf	status,0
 13383  003496  90D8               	rrcf	(??_Lcd_Chr_CP+0+0),c
 13384  003498  3201               
 13385                           	movlw	01h
 13386  00349A  0E01               	andwf	(??_Lcd_Chr_CP+0+0),c
 13387  00349C  1601               	swapf	(??_Lcd_Chr_CP+0+0),c
 13388  00349E  3A01               	rlncf	(??_Lcd_Chr_CP+0+0),c
 13389  0034A0  4601               	rlncf	(??_Lcd_Chr_CP+0+0),c
 13390  0034A2  4601               	movf	((c:3971)),c,w	;volatile
 13391  0034A4  5083               	xorwf	(??_Lcd_Chr_CP+0+0),c,w
 13392  0034A6  1801               	andlw	not (((1<<1)-1)<<6)
 13393  0034A8  0BBF               	xorwf	(??_Lcd_Chr_CP+0+0),c,w
 13394  0034AA  1801               	movwf	((c:3971)),c	;volatile
 13395  0034AC  6E83               	line	165
 13396                           	
 13397                           l4022:
 13398  0034AE                     ;./LCD.h: 165: PORTDbits.RD5 = (data & 0b00000010)>>1; PORTDbits.RD4 = (data & 0b0000000
                                 1);
 13399                           	movff	(c:Lcd_Chr_CP@data),??_Lcd_Chr_CP+0+0
 13400  0034AE  C003  F001         	bcf	status,0
 13401  0034B2  90D8               	rrcf	(??_Lcd_Chr_CP+0+0),c
 13402  0034B4  3201               
 13403                           	movlw	01h
 13404  0034B6  0E01               	andwf	(??_Lcd_Chr_CP+0+0),c
 13405  0034B8  1601               	swapf	(??_Lcd_Chr_CP+0+0),c
 13406  0034BA  3A01               	rlncf	(??_Lcd_Chr_CP+0+0),c
 13407  0034BC  4601               	movf	((c:3971)),c,w	;volatile
 13408  0034BE  5083               	xorwf	(??_Lcd_Chr_CP+0+0),c,w
 13409  0034C0  1801               	andlw	not (((1<<1)-1)<<5)
 13410  0034C2  0BDF               	xorwf	(??_Lcd_Chr_CP+0+0),c,w
 13411  0034C4  1801               	movwf	((c:3971)),c	;volatile
 13412  0034C6  6E83               	
 13413                           l4024:
 13414  0034C8                     	movff	(c:Lcd_Chr_CP@data),??_Lcd_Chr_CP+0+0
 13415  0034C8  C003  F001         	movlw	01h
 13416  0034CC  0E01               	andwf	(??_Lcd_Chr_CP+0+0),c
 13417  0034CE  1601               	swapf	(??_Lcd_Chr_CP+0+0),c
 13418  0034D0  3A01               	movf	((c:3971)),c,w	;volatile
 13419  0034D2  5083               	xorwf	(??_Lcd_Chr_CP+0+0),c,w
 13420  0034D4  1801               	andlw	not (((1<<1)-1)<<4)
 13421  0034D6  0BEF               	xorwf	(??_Lcd_Chr_CP+0+0),c,w
 13422  0034D8  1801               	movwf	((c:3971)),c	;volatile
 13423  0034DA  6E83               	line	166
 13424                           	
 13425                           l4026:
 13426  0034DC                     ;./LCD.h: 166: _delay((unsigned long)((10)*(4000000/4000000.0)));
 13427                           	opt asmopt_push
 13428                           opt asmopt_off
 13429                           	movlw	3
 13430  0034DC  0E03               u5117:
 13431  0034DE                     decfsz	wreg,f
 13432  0034DE  2EE8               	bra	u5117
 13433  0034E0  D7FE               	nop
 13434  0034E2  F000               opt asmopt_pop
 13435                           
 13436                           	line	167
 13437                           	
 13438                           l4028:
 13439  0034E4                     ;./LCD.h: 167: PORTDbits.RD3 = 1; _delay((unsigned long)((5)*(4000000/4000000.0))); PORT
                                 Dbits.RD3 = 0;
 13440                           	bsf	((c:3971)),c,3	;volatile
 13441  0034E4  8683               	
 13442                           l4030:
 13443  0034E6                     		opt asmopt_push
 13444                           	opt asmopt_off
 13445                           	nop2	;2 cycle nop
 13446  0034E6  D000               	nop2	;2 cycle nop
 13447  0034E8  D000               	nop
 13448  0034EA  F000               	opt asmopt_pop
 13449                           
 13450                           	
 13451                           l4032:
 13452  0034EC                     	bcf	((c:3971)),c,3	;volatile
 13453  0034EC  9683               	line	168
 13454                           	
 13455                           l4034:
 13456  0034EE                     ;./LCD.h: 168: _delay((unsigned long)((5)*(4000000/4000000.0))); _delay((unsigned long)(
                                 (5500)*(4000000/4000000.0)));
 13457                           		opt asmopt_push
 13458                           	opt asmopt_off
 13459                           	nop2	;2 cycle nop
 13460  0034EE  D000               	nop2	;2 cycle nop
 13461  0034F0  D000               	nop
 13462  0034F2  F000               	opt asmopt_pop
 13463                           
 13464                           	
 13465                           l4036:
 13466  0034F4                     	opt asmopt_push
 13467                           opt asmopt_off
 13468                           movlw	8
 13469  0034F4  0E08               movwf	(??_Lcd_Chr_CP+0+0)&0ffh,c,f
 13470  0034F6  6E01               	movlw	35
 13471  0034F8  0E23               u5127:
 13472  0034FA                     decfsz	wreg,f
 13473  0034FA  2EE8               	bra	u5127
 13474  0034FC  D7FE               	decfsz	(??_Lcd_Chr_CP+0+0)&0ffh,c,f
 13475  0034FE  2E01               	bra	u5127
 13476  003500  D7FC               	nop
 13477  003502  F000               opt asmopt_pop
 13478                           
 13479                           	line	169
 13480                           	
 13481                           l86:
 13482  003504                     	return	;funcret
 13483  003504  0012               	opt stack 0
 13484                           GLOBAL	__end_of_Lcd_Chr_CP
 13485                           	__end_of_Lcd_Chr_CP:
 13486  003506                     	signat	_Lcd_Chr_CP,4217
 13487                           	global	_Lcd_Init
 13488                           
 13489 ;; *************** function _Lcd_Init *****************
 13490 ;; Defined at:
 13491 ;;		line 71 in file "./LCD.h"
 13492 ;; Parameters:    Size  Location     Type
 13493 ;;		None
 13494 ;; Auto vars:     Size  Location     Type
 13495 ;;  data            1    4[COMRAM] unsigned char 
 13496 ;; Return value:  Size  Location     Type
 13497 ;;                  1    wreg      void 
 13498 ;; Registers used:
 13499 ;;		wreg, status,2, status,0, cstack
 13500 ;; Tracked objects:
 13501 ;;		On entry : 0/0
 13502 ;;		On exit  : 0/0
 13503 ;;		Unchanged: 0/0
 13504 ;; Data sizes:     COMRAM   BANK0   BANK1   BANK2   BANK3   BANK4   BANK5   BANK6   BANK7
 13505 ;;      Params:         0       0       0       0       0       0       0       0       0
 13506 ;;      Locals:         1       0       0       0       0       0       0       0       0
 13507 ;;      Temps:          1       0       0       0       0       0       0       0       0
 13508 ;;      Totals:         2       0       0       0       0       0       0       0       0
 13509 ;;Total ram usage:        2 bytes
 13510 ;; Hardware stack levels used:    1
 13511 ;; Hardware stack levels required when called:    1
 13512 ;; This function calls:
 13513 ;;		_Lcd_Cmd
 13514 ;; This function is called by:
 13515 ;;		_main
 13516 ;; This function uses a non-reentrant model
 13517 ;;
 13518                           psect	text35,class=CODE,space=0,reloc=2,group=0
 13519                           	line	71
 13520                           global __ptext35
 13521                           __ptext35:
 13522  003146                     psect	text35
 13523                           	file	"./LCD.h"
 13524                           	line	71
 13525                           	global	__size_of_Lcd_Init
 13526                           	__size_of_Lcd_Init	equ	__end_of_Lcd_Init-_Lcd_Init
 13527  0000                     	
 13528                           _Lcd_Init:
 13529  003146                     ;incstack = 0
 13530                           	opt	stack 29
 13531                           	line	73
 13532                           	
 13533                           l4046:
 13534  003146                     ;./LCD.h: 72: unsigned char data;;./LCD.h: 73: ANSELD=0;
 13535                           	movlw	low(0)
 13536  003146  0E00               	movlb	15	; () banked
 13537  003148  010F               	movwf	((3934))&0ffh	;volatile
 13538  00314A  6F5E               	line	74
 13539                           	
 13540                           l4048:; BSR set to: 15
 13541  00314C                     
 13542                           ;./LCD.h: 74: TRISDbits.TRISD7 = 0;
 13543                           	bcf	((c:3989)),c,7	;volatile
 13544  00314C  9E95               	line	75
 13545                           	
 13546                           l4050:; BSR set to: 15
 13547  00314E                     
 13548                           ;./LCD.h: 75: TRISDbits.TRISD6 = 0;
 13549                           	bcf	((c:3989)),c,6	;volatile
 13550  00314E  9C95               	line	76
 13551                           	
 13552                           l4052:; BSR set to: 15
 13553  003150                     
 13554                           ;./LCD.h: 76: TRISDbits.TRISD5 = 0;
 13555                           	bcf	((c:3989)),c,5	;volatile
 13556  003150  9A95               	line	77
 13557                           	
 13558                           l4054:; BSR set to: 15
 13559  003152                     
 13560                           ;./LCD.h: 77: TRISDbits.TRISD4 = 0;
 13561                           	bcf	((c:3989)),c,4	;volatile
 13562  003152  9895               	line	78
 13563                           	
 13564                           l4056:; BSR set to: 15
 13565  003154                     
 13566                           ;./LCD.h: 78: TRISDbits.TRISD3 = 0;
 13567                           	bcf	((c:3989)),c,3	;volatile
 13568  003154  9695               	line	79
 13569                           	
 13570                           l4058:; BSR set to: 15
 13571  003156                     
 13572                           ;./LCD.h: 79: TRISDbits.TRISD1 = 0;
 13573                           	bcf	((c:3989)),c,1	;volatile
 13574  003156  9295               	line	80
 13575                           	
 13576                           l4060:; BSR set to: 15
 13577  003158                     
 13578                           ;./LCD.h: 80: TRISDbits.TRISD2 = 0;
 13579                           	bcf	((c:3989)),c,2	;volatile
 13580  003158  9495               	line	81
 13581                           	
 13582                           l4062:; BSR set to: 15
 13583  00315A                     
 13584                           ;./LCD.h: 81: PORTDbits.RD7 = 0;
 13585                           	bcf	((c:3971)),c,7	;volatile
 13586  00315A  9E83               	line	82
 13587                           	
 13588                           l4064:; BSR set to: 15
 13589  00315C                     
 13590                           ;./LCD.h: 82: PORTDbits.RD6 = 0;
 13591                           	bcf	((c:3971)),c,6	;volatile
 13592  00315C  9C83               	line	83
 13593                           	
 13594                           l4066:; BSR set to: 15
 13595  00315E                     
 13596                           ;./LCD.h: 83: PORTDbits.RD5 = 0;
 13597                           	bcf	((c:3971)),c,5	;volatile
 13598  00315E  9A83               	line	84
 13599                           	
 13600                           l4068:; BSR set to: 15
 13601  003160                     
 13602                           ;./LCD.h: 84: PORTDbits.RD4 = 0;
 13603                           	bcf	((c:3971)),c,4	;volatile
 13604  003160  9883               	line	85
 13605                           	
 13606                           l4070:; BSR set to: 15
 13607  003162                     
 13608                           ;./LCD.h: 85: PORTDbits.RD3 = 0;
 13609                           	bcf	((c:3971)),c,3	;volatile
 13610  003162  9683               	line	86
 13611                           	
 13612                           l4072:; BSR set to: 15
 13613  003164                     
 13614                           ;./LCD.h: 86: PORTDbits.RD1 = 0;
 13615                           	bcf	((c:3971)),c,1	;volatile
 13616  003164  9283               	line	87
 13617                           	
 13618                           l4074:; BSR set to: 15
 13619  003166                     
 13620                           ;./LCD.h: 87: PORTDbits.RD2 = 0;
 13621                           	bcf	((c:3971)),c,2	;volatile
 13622  003166  9483               	line	88
 13623                           	
 13624                           l4076:; BSR set to: 15
 13625  003168                     
 13626                           ;./LCD.h: 88: _delay((unsigned long)((5500)*(4000000/4000000.0)));
 13627                           	opt asmopt_push
 13628                           opt asmopt_off
 13629                           movlw	8
 13630  003168  0E08               movwf	(??_Lcd_Init+0+0)&0ffh,c,f
 13631  00316A  6E04               	movlw	35
 13632  00316C  0E23               u5137:
 13633  00316E                     decfsz	wreg,f
 13634  00316E  2EE8               	bra	u5137
 13635  003170  D7FE               	decfsz	(??_Lcd_Init+0+0)&0ffh,c,f
 13636  003172  2E04               	bra	u5137
 13637  003174  D7FC               	nop
 13638  003176  F000               opt asmopt_pop
 13639                           
 13640                           	line	89
 13641                           	
 13642                           l4078:
 13643  003178                     ;./LCD.h: 89: _delay((unsigned long)((5500)*(4000000/4000000.0)));
 13644                           	opt asmopt_push
 13645                           opt asmopt_off
 13646                           movlw	8
 13647  003178  0E08               movwf	(??_Lcd_Init+0+0)&0ffh,c,f
 13648  00317A  6E04               	movlw	35
 13649  00317C  0E23               u5147:
 13650  00317E                     decfsz	wreg,f
 13651  00317E  2EE8               	bra	u5147
 13652  003180  D7FE               	decfsz	(??_Lcd_Init+0+0)&0ffh,c,f
 13653  003182  2E04               	bra	u5147
 13654  003184  D7FC               	nop
 13655  003186  F000               opt asmopt_pop
 13656                           
 13657                           	line	90
 13658                           	
 13659                           l4080:
 13660  003188                     ;./LCD.h: 90: _delay((unsigned long)((5500)*(4000000/4000000.0)));
 13661                           	opt asmopt_push
 13662                           opt asmopt_off
 13663                           movlw	8
 13664  003188  0E08               movwf	(??_Lcd_Init+0+0)&0ffh,c,f
 13665  00318A  6E04               	movlw	35
 13666  00318C  0E23               u5157:
 13667  00318E                     decfsz	wreg,f
 13668  00318E  2EE8               	bra	u5157
 13669  003190  D7FE               	decfsz	(??_Lcd_Init+0+0)&0ffh,c,f
 13670  003192  2E04               	bra	u5157
 13671  003194  D7FC               	nop
 13672  003196  F000               opt asmopt_pop
 13673                           
 13674                           	line	91
 13675                           	
 13676                           l4082:
 13677  003198                     ;./LCD.h: 91: _delay((unsigned long)((5500)*(4000000/4000000.0)));
 13678                           	opt asmopt_push
 13679                           opt asmopt_off
 13680                           movlw	8
 13681  003198  0E08               movwf	(??_Lcd_Init+0+0)&0ffh,c,f
 13682  00319A  6E04               	movlw	35
 13683  00319C  0E23               u5167:
 13684  00319E                     decfsz	wreg,f
 13685  00319E  2EE8               	bra	u5167
 13686  0031A0  D7FE               	decfsz	(??_Lcd_Init+0+0)&0ffh,c,f
 13687  0031A2  2E04               	bra	u5167
 13688  0031A4  D7FC               	nop
 13689  0031A6  F000               opt asmopt_pop
 13690                           
 13691                           	line	92
 13692                           	
 13693                           l4084:
 13694  0031A8                     ;./LCD.h: 92: _delay((unsigned long)((5500)*(4000000/4000000.0)));
 13695                           	opt asmopt_push
 13696                           opt asmopt_off
 13697                           movlw	8
 13698  0031A8  0E08               movwf	(??_Lcd_Init+0+0)&0ffh,c,f
 13699  0031AA  6E04               	movlw	35
 13700  0031AC  0E23               u5177:
 13701  0031AE                     decfsz	wreg,f
 13702  0031AE  2EE8               	bra	u5177
 13703  0031B0  D7FE               	decfsz	(??_Lcd_Init+0+0)&0ffh,c,f
 13704  0031B2  2E04               	bra	u5177
 13705  0031B4  D7FC               	nop
 13706  0031B6  F000               opt asmopt_pop
 13707                           
 13708                           	line	93
 13709                           	
 13710                           l4086:
 13711  0031B8                     ;./LCD.h: 93: _delay((unsigned long)((5500)*(4000000/4000000.0)));
 13712                           	opt asmopt_push
 13713                           opt asmopt_off
 13714                           movlw	8
 13715  0031B8  0E08               movwf	(??_Lcd_Init+0+0)&0ffh,c,f
 13716  0031BA  6E04               	movlw	35
 13717  0031BC  0E23               u5187:
 13718  0031BE                     decfsz	wreg,f
 13719  0031BE  2EE8               	bra	u5187
 13720  0031C0  D7FE               	decfsz	(??_Lcd_Init+0+0)&0ffh,c,f
 13721  0031C2  2E04               	bra	u5187
 13722  0031C4  D7FC               	nop
 13723  0031C6  F000               opt asmopt_pop
 13724                           
 13725                           	line	94
 13726                           ;./LCD.h: 94: for(data = 1; data < 4; data ++)
 13727                           	movlw	low(01h)
 13728  0031C8  0E01               	movwf	((c:Lcd_Init@data)),c
 13729  0031CA  6E05               	
 13730                           l4088:
 13731  0031CC                     		movlw	04h-1
 13732  0031CC  0E03               	cpfsgt	((c:Lcd_Init@data)),c
 13733  0031CE  6405               	goto	u4871
 13734  0031D0  EFEC  F018         	goto	u4870
 13735  0031D4  EFEE  F018         
 13736                           u4871:
 13737  0031D8                     	goto	l55
 13738  0031D8  EFF2  F018         u4870:
 13739  0031DC                     	goto	l56
 13740  0031DC  EF18  F019         	
 13741                           l4090:
 13742  0031E0                     	goto	l56
 13743  0031E0  EF18  F019         	
 13744                           l55:
 13745  0031E4                     	line	96
 13746                           ;./LCD.h: 95: {;./LCD.h: 96:     PORTDbits.RD7 = 0; PORTDbits.RD6 = 0; PORTDbits.RD5 = 1
                                 ; PORTDbits.RD4 = 1; PORTDbits.RD3 = 0;
 13747                           	bcf	((c:3971)),c,7	;volatile
 13748  0031E4  9E83               	bcf	((c:3971)),c,6	;volatile
 13749  0031E6  9C83               	bsf	((c:3971)),c,5	;volatile
 13750  0031E8  8A83               	bsf	((c:3971)),c,4	;volatile
 13751  0031EA  8883               	bcf	((c:3971)),c,3	;volatile
 13752  0031EC  9683               	line	97
 13753                           ;./LCD.h: 97:     PORTDbits.RD1 = 0; PORTDbits.RD7 = 0; PORTDbits.RD6 = 0; PORTDbits.RD5
                                  = 1; PORTDbits.RD4 = 1;
 13754                           	bcf	((c:3971)),c,1	;volatile
 13755  0031EE  9283               	bcf	((c:3971)),c,7	;volatile
 13756  0031F0  9E83               	bcf	((c:3971)),c,6	;volatile
 13757  0031F2  9C83               	bsf	((c:3971)),c,5	;volatile
 13758  0031F4  8A83               	bsf	((c:3971)),c,4	;volatile
 13759  0031F6  8883               	line	98
 13760                           ;./LCD.h: 98:     PORTDbits.RD3 = 1; PORTDbits.RD1 = 0;
 13761                           	bsf	((c:3971)),c,3	;volatile
 13762  0031F8  8683               	bcf	((c:3971)),c,1	;volatile
 13763  0031FA  9283               	line	99
 13764                           ;./LCD.h: 99:     _delay((unsigned long)((5)*(4000000/4000000.0)));
 13765                           		opt asmopt_push
 13766                           	opt asmopt_off
 13767                           	nop2	;2 cycle nop
 13768  0031FC  D000               	nop2	;2 cycle nop
 13769  0031FE  D000               	nop
 13770  003200  F000               	opt asmopt_pop
 13771                           
 13772                           	line	100
 13773                           ;./LCD.h: 100:     PORTDbits.RD7 = 0; PORTDbits.RD6 = 0; PORTDbits.RD5 = 1; PORTDbits.RD
                                 4 = 1; PORTDbits.RD3 = 0;
 13774                           	bcf	((c:3971)),c,7	;volatile
 13775  003202  9E83               	bcf	((c:3971)),c,6	;volatile
 13776  003204  9C83               	bsf	((c:3971)),c,5	;volatile
 13777  003206  8A83               	bsf	((c:3971)),c,4	;volatile
 13778  003208  8883               	bcf	((c:3971)),c,3	;volatile
 13779  00320A  9683               	line	101
 13780                           ;./LCD.h: 101:     PORTDbits.RD1 = 0;
 13781                           	bcf	((c:3971)),c,1	;volatile
 13782  00320C  9283               	line	102
 13783                           	
 13784                           l4092:
 13785  00320E                     ;./LCD.h: 102:     _delay((unsigned long)((5500)*(4000000/4000000.0)));
 13786                           	opt asmopt_push
 13787                           opt asmopt_off
 13788                           movlw	8
 13789  00320E  0E08               movwf	(??_Lcd_Init+0+0)&0ffh,c,f
 13790  003210  6E04               	movlw	35
 13791  003212  0E23               u5197:
 13792  003214                     decfsz	wreg,f
 13793  003214  2EE8               	bra	u5197
 13794  003216  D7FE               	decfsz	(??_Lcd_Init+0+0)&0ffh,c,f
 13795  003218  2E04               	bra	u5197
 13796  00321A  D7FC               	nop
 13797  00321C  F000               opt asmopt_pop
 13798                           
 13799                           	line	103
 13800                           	
 13801                           l4094:
 13802  00321E                     ;./LCD.h: 103: }
 13803                           	incf	((c:Lcd_Init@data)),c
 13804  00321E  2A05               		movlw	04h-1
 13805  003220  0E03               	cpfsgt	((c:Lcd_Init@data)),c
 13806  003222  6405               	goto	u4881
 13807  003224  EF16  F019         	goto	u4880
 13808  003228  EF18  F019         
 13809                           u4881:
 13810  00322C                     	goto	l55
 13811  00322C  EFF2  F018         u4880:
 13812  003230                     	
 13813                           l56:
 13814  003230                     	line	104
 13815                           ;./LCD.h: 104: PORTDbits.RD7 = 0; PORTDbits.RD6 = 0; PORTDbits.RD5 = 1; PORTDbits.RD4 = 
                                 0; PORTDbits.RD3 = 0; PORTDbits.RD1 = 0;
 13816                           	bcf	((c:3971)),c,7	;volatile
 13817  003230  9E83               	bcf	((c:3971)),c,6	;volatile
 13818  003232  9C83               	bsf	((c:3971)),c,5	;volatile
 13819  003234  8A83               	bcf	((c:3971)),c,4	;volatile
 13820  003236  9883               	bcf	((c:3971)),c,3	;volatile
 13821  003238  9683               	bcf	((c:3971)),c,1	;volatile
 13822  00323A  9283               	line	105
 13823                           ;./LCD.h: 105: PORTDbits.RD7 = 0; PORTDbits.RD6 = 0; PORTDbits.RD5 = 1; PORTDbits.RD4 = 
                                 0; PORTDbits.RD3 = 1; PORTDbits.RD1 = 0;
 13824                           	bcf	((c:3971)),c,7	;volatile
 13825  00323C  9E83               	bcf	((c:3971)),c,6	;volatile
 13826  00323E  9C83               	bsf	((c:3971)),c,5	;volatile
 13827  003240  8A83               	bcf	((c:3971)),c,4	;volatile
 13828  003242  9883               	bsf	((c:3971)),c,3	;volatile
 13829  003244  8683               	bcf	((c:3971)),c,1	;volatile
 13830  003246  9283               	line	106
 13831                           ;./LCD.h: 106: _delay((unsigned long)((5)*(4000000/4000000.0)));
 13832                           		opt asmopt_push
 13833                           	opt asmopt_off
 13834                           	nop2	;2 cycle nop
 13835  003248  D000               	nop2	;2 cycle nop
 13836  00324A  D000               	nop
 13837  00324C  F000               	opt asmopt_pop
 13838                           
 13839                           	line	107
 13840                           ;./LCD.h: 107: PORTDbits.RD7 = 0; PORTDbits.RD6 = 0; PORTDbits.RD5 = 1; PORTDbits.RD4 = 
                                 0; PORTDbits.RD3 = 0; PORTDbits.RD1 = 0;
 13841                           	bcf	((c:3971)),c,7	;volatile
 13842  00324E  9E83               	bcf	((c:3971)),c,6	;volatile
 13843  003250  9C83               	bsf	((c:3971)),c,5	;volatile
 13844  003252  8A83               	bcf	((c:3971)),c,4	;volatile
 13845  003254  9883               	bcf	((c:3971)),c,3	;volatile
 13846  003256  9683               	bcf	((c:3971)),c,1	;volatile
 13847  003258  9283               	line	108
 13848                           	
 13849                           l4096:
 13850  00325A                     ;./LCD.h: 108: _delay((unsigned long)((5500)*(4000000/4000000.0)));
 13851                           	opt asmopt_push
 13852                           opt asmopt_off
 13853                           movlw	8
 13854  00325A  0E08               movwf	(??_Lcd_Init+0+0)&0ffh,c,f
 13855  00325C  6E04               	movlw	35
 13856  00325E  0E23               u5207:
 13857  003260                     decfsz	wreg,f
 13858  003260  2EE8               	bra	u5207
 13859  003262  D7FE               	decfsz	(??_Lcd_Init+0+0)&0ffh,c,f
 13860  003264  2E04               	bra	u5207
 13861  003266  D7FC               	nop
 13862  003268  F000               opt asmopt_pop
 13863                           
 13864                           	line	109
 13865                           	
 13866                           l4098:
 13867  00326A                     ;./LCD.h: 109: data = 40; Lcd_Cmd(data);
 13868                           	movlw	low(028h)
 13869  00326A  0E28               	movwf	((c:Lcd_Init@data)),c
 13870  00326C  6E05               	
 13871                           l4100:
 13872  00326E                     	movf	((c:Lcd_Init@data)),c,w
 13873  00326E  5005               	
 13874                           	call	_Lcd_Cmd
 13875  003270  EC83  F01A         	line	110
 13876                           	
 13877                           l4102:
 13878  003274                     ;./LCD.h: 110: data = 16; Lcd_Cmd(data);
 13879                           	movlw	low(010h)
 13880  003274  0E10               	movwf	((c:Lcd_Init@data)),c
 13881  003276  6E05               	
 13882                           l4104:
 13883  003278                     	movf	((c:Lcd_Init@data)),c,w
 13884  003278  5005               	
 13885                           	call	_Lcd_Cmd
 13886  00327A  EC83  F01A         	line	111
 13887                           	
 13888                           l4106:
 13889  00327E                     ;./LCD.h: 111: data = 1; Lcd_Cmd(data);
 13890                           	movlw	low(01h)
 13891  00327E  0E01               	movwf	((c:Lcd_Init@data)),c
 13892  003280  6E05               	
 13893                           l4108:
 13894  003282                     	movf	((c:Lcd_Init@data)),c,w
 13895  003282  5005               	
 13896                           	call	_Lcd_Cmd
 13897  003284  EC83  F01A         	line	112
 13898                           	
 13899                           l4110:
 13900  003288                     ;./LCD.h: 112: data = 15; Lcd_Cmd(data);
 13901                           	movlw	low(0Fh)
 13902  003288  0E0F               	movwf	((c:Lcd_Init@data)),c
 13903  00328A  6E05               	
 13904                           l4112:
 13905  00328C                     	movf	((c:Lcd_Init@data)),c,w
 13906  00328C  5005               	
 13907                           	call	_Lcd_Cmd
 13908  00328E  EC83  F01A         	line	113
 13909                           	
 13910                           l57:
 13911  003292                     	return	;funcret
 13912  003292  0012               	opt stack 0
 13913                           GLOBAL	__end_of_Lcd_Init
 13914                           	__end_of_Lcd_Init:
 13915  003294                     	signat	_Lcd_Init,89
 13916                           	global	_Lcd_Cmd
 13917                           
 13918 ;; *************** function _Lcd_Cmd *****************
 13919 ;; Defined at:
 13920 ;;		line 172 in file "./LCD.h"
 13921 ;; Parameters:    Size  Location     Type
 13922 ;;  data            1    wreg     unsigned char 
 13923 ;; Auto vars:     Size  Location     Type
 13924 ;;  data            1    2[COMRAM] unsigned char 
 13925 ;; Return value:  Size  Location     Type
 13926 ;;                  1    wreg      void 
 13927 ;; Registers used:
 13928 ;;		wreg, status,2, status,0
 13929 ;; Tracked objects:
 13930 ;;		On entry : 0/0
 13931 ;;		On exit  : 0/0
 13932 ;;		Unchanged: 0/0
 13933 ;; Data sizes:     COMRAM   BANK0   BANK1   BANK2   BANK3   BANK4   BANK5   BANK6   BANK7
 13934 ;;      Params:         0       0       0       0       0       0       0       0       0
 13935 ;;      Locals:         1       0       0       0       0       0       0       0       0
 13936 ;;      Temps:          2       0       0       0       0       0       0       0       0
 13937 ;;      Totals:         3       0       0       0       0       0       0       0       0
 13938 ;;Total ram usage:        3 bytes
 13939 ;; Hardware stack levels used:    1
 13940 ;; This function calls:
 13941 ;;		Nothing
 13942 ;; This function is called by:
 13943 ;;		_Lcd_Init
 13944 ;;		_Lcd_Out
 13945 ;;		_Lcd_Out2
 13946 ;;		_main
 13947 ;;		_lcd_goto
 13948 ;; This function uses a non-reentrant model
 13949 ;;
 13950                           psect	text36,class=CODE,space=0,reloc=2,group=0
 13951                           	line	172
 13952                           global __ptext36
 13953                           __ptext36:
 13954  003506                     psect	text36
 13955                           	file	"./LCD.h"
 13956                           	line	172
 13957                           	global	__size_of_Lcd_Cmd
 13958                           	__size_of_Lcd_Cmd	equ	__end_of_Lcd_Cmd-_Lcd_Cmd
 13959  0000                     	
 13960                           _Lcd_Cmd:
 13961  003506                     ;incstack = 0
 13962                           	opt	stack 29
 13963                           ;Lcd_Cmd@data stored from wreg
 13964                           	movwf	((c:Lcd_Cmd@data)),c
 13965  003506  6E03               	line	173
 13966                           	
 13967                           l3976:
 13968  003508                     ;./LCD.h: 173: PORTDbits.RD3 = 0; PORTDbits.RD1 = 0;
 13969                           	bcf	((c:3971)),c,3	;volatile
 13970  003508  9683               	bcf	((c:3971)),c,1	;volatile
 13971  00350A  9283               	line	174
 13972                           	
 13973                           l3978:
 13974  00350C                     ;./LCD.h: 174: PORTDbits.RD7 = (data & 0b10000000)>>7; PORTDbits.RD6 = (data & 0b0100000
                                 0)>>6;
 13975                           	clrf	(??_Lcd_Cmd+0+0)&0ffh,c
 13976  00350C  6A01               	btfss	((c:Lcd_Cmd@data)),c,7
 13977  00350E  AE03               	bra	u4805
 13978  003510  D001               	incf	(??_Lcd_Cmd+0+0)&0ffh,c
 13979  003512  2A01               	u4805:
 13980  003514                     	movlw	01h
 13981  003514  0E01               	andwf	(??_Lcd_Cmd+0+0),c
 13982  003516  1601               	rrcf	(??_Lcd_Cmd+0+0),c
 13983  003518  3201               	rrcf	(??_Lcd_Cmd+0+0),c
 13984  00351A  3201               	movf	((c:3971)),c,w	;volatile
 13985  00351C  5083               	xorwf	(??_Lcd_Cmd+0+0),c,w
 13986  00351E  1801               	andlw	not (((1<<1)-1)<<7)
 13987  003520  0B7F               	xorwf	(??_Lcd_Cmd+0+0),c,w
 13988  003522  1801               	movwf	((c:3971)),c	;volatile
 13989  003524  6E83               	movff	(c:Lcd_Cmd@data),??_Lcd_Cmd+0+0
 13990  003526  C003  F001         	movlw	06h
 13991  00352A  0E06               	movwf	(??_Lcd_Cmd+1+0)&0ffh,c
 13992  00352C  6E02               u4815:
 13993  00352E                     	bcf	status,0
 13994  00352E  90D8               	rrcf	(??_Lcd_Cmd+0+0),c
 13995  003530  3201               	decfsz	(??_Lcd_Cmd+1+0)&0ffh,c
 13996  003532  2E02               	goto	u4815
 13997  003534  EF97  F01A         	movlw	01h
 13998  003538  0E01               	andwf	(??_Lcd_Cmd+0+0),c
 13999  00353A  1601               	swapf	(??_Lcd_Cmd+0+0),c
 14000  00353C  3A01               	rlncf	(??_Lcd_Cmd+0+0),c
 14001  00353E  4601               	rlncf	(??_Lcd_Cmd+0+0),c
 14002  003540  4601               	movf	((c:3971)),c,w	;volatile
 14003  003542  5083               	xorwf	(??_Lcd_Cmd+0+0),c,w
 14004  003544  1801               	andlw	not (((1<<1)-1)<<6)
 14005  003546  0BBF               	xorwf	(??_Lcd_Cmd+0+0),c,w
 14006  003548  1801               	movwf	((c:3971)),c	;volatile
 14007  00354A  6E83               	line	175
 14008                           ;./LCD.h: 175: PORTDbits.RD5 = (data & 0b00100000)>>5; PORTDbits.RD4 = (data & 0b0001000
                                 0)>>4;
 14009                           	movff	(c:Lcd_Cmd@data),??_Lcd_Cmd+0+0
 14010  00354C  C003  F001         	movlw	05h
 14011  003550  0E05               	movwf	(??_Lcd_Cmd+1+0)&0ffh,c
 14012  003552  6E02               u4825:
 14013  003554                     	bcf	status,0
 14014  003554  90D8               	rrcf	(??_Lcd_Cmd+0+0),c
 14015  003556  3201               	decfsz	(??_Lcd_Cmd+1+0)&0ffh,c
 14016  003558  2E02               	goto	u4825
 14017  00355A  EFAA  F01A         	movlw	01h
 14018  00355E  0E01               	andwf	(??_Lcd_Cmd+0+0),c
 14019  003560  1601               	swapf	(??_Lcd_Cmd+0+0),c
 14020  003562  3A01               	rlncf	(??_Lcd_Cmd+0+0),c
 14021  003564  4601               	movf	((c:3971)),c,w	;volatile
 14022  003566  5083               	xorwf	(??_Lcd_Cmd+0+0),c,w
 14023  003568  1801               	andlw	not (((1<<1)-1)<<5)
 14024  00356A  0BDF               	xorwf	(??_Lcd_Cmd+0+0),c,w
 14025  00356C  1801               	movwf	((c:3971)),c	;volatile
 14026  00356E  6E83               	movff	(c:Lcd_Cmd@data),??_Lcd_Cmd+0+0
 14027  003570  C003  F001         	swapf	(??_Lcd_Cmd+0+0),c
 14028  003574  3A01               	movlw	(0ffh shr 4) & 0ffh
 14029  003576  0E0F               	andwf	(??_Lcd_Cmd+0+0),c
 14030  003578  1601               	movlw	01h
 14031  00357A  0E01               	andwf	(??_Lcd_Cmd+0+0),c
 14032  00357C  1601               	swapf	(??_Lcd_Cmd+0+0),c
 14033  00357E  3A01               	movf	((c:3971)),c,w	;volatile
 14034  003580  5083               	xorwf	(??_Lcd_Cmd+0+0),c,w
 14035  003582  1801               	andlw	not (((1<<1)-1)<<4)
 14036  003584  0BEF               	xorwf	(??_Lcd_Cmd+0+0),c,w
 14037  003586  1801               	movwf	((c:3971)),c	;volatile
 14038  003588  6E83               	line	176
 14039                           	
 14040                           l3980:
 14041  00358A                     ;./LCD.h: 176: _delay((unsigned long)((10)*(4000000/4000000.0)));
 14042                           	opt asmopt_push
 14043                           opt asmopt_off
 14044                           	movlw	3
 14045  00358A  0E03               u5217:
 14046  00358C                     decfsz	wreg,f
 14047  00358C  2EE8               	bra	u5217
 14048  00358E  D7FE               	nop
 14049  003590  F000               opt asmopt_pop
 14050                           
 14051                           	line	177
 14052                           	
 14053                           l3982:
 14054  003592                     ;./LCD.h: 177: PORTDbits.RD3 = 1; _delay((unsigned long)((5)*(4000000/4000000.0))); PORT
                                 Dbits.RD3 = 0;
 14055                           	bsf	((c:3971)),c,3	;volatile
 14056  003592  8683               	
 14057                           l3984:
 14058  003594                     		opt asmopt_push
 14059                           	opt asmopt_off
 14060                           	nop2	;2 cycle nop
 14061  003594  D000               	nop2	;2 cycle nop
 14062  003596  D000               	nop
 14063  003598  F000               	opt asmopt_pop
 14064                           
 14065                           	
 14066                           l3986:
 14067  00359A                     	bcf	((c:3971)),c,3	;volatile
 14068  00359A  9683               	line	178
 14069                           	
 14070                           l3988:
 14071  00359C                     ;./LCD.h: 178: PORTDbits.RD7 = (data & 0b00001000)>>3; PORTDbits.RD6 = (data & 0b0000010
                                 0)>>2;
 14072                           	movff	(c:Lcd_Cmd@data),??_Lcd_Cmd+0+0
 14073  00359C  C003  F001         	bcf	status,0
 14074  0035A0  90D8               	rrcf	(??_Lcd_Cmd+0+0),c
 14075  0035A2  3201               	bcf	status,0
 14076  0035A4  90D8               	rrcf	(??_Lcd_Cmd+0+0),c
 14077  0035A6  3201               	bcf	status,0
 14078  0035A8  90D8               	rrcf	(??_Lcd_Cmd+0+0),c
 14079  0035AA  3201               
 14080                           	movlw	01h
 14081  0035AC  0E01               	andwf	(??_Lcd_Cmd+0+0),c
 14082  0035AE  1601               	rrcf	(??_Lcd_Cmd+0+0),c
 14083  0035B0  3201               	rrcf	(??_Lcd_Cmd+0+0),c
 14084  0035B2  3201               	movf	((c:3971)),c,w	;volatile
 14085  0035B4  5083               	xorwf	(??_Lcd_Cmd+0+0),c,w
 14086  0035B6  1801               	andlw	not (((1<<1)-1)<<7)
 14087  0035B8  0B7F               	xorwf	(??_Lcd_Cmd+0+0),c,w
 14088  0035BA  1801               	movwf	((c:3971)),c	;volatile
 14089  0035BC  6E83               	
 14090                           l3990:
 14091  0035BE                     	movff	(c:Lcd_Cmd@data),??_Lcd_Cmd+0+0
 14092  0035BE  C003  F001         	bcf	status,0
 14093  0035C2  90D8               	rrcf	(??_Lcd_Cmd+0+0),c
 14094  0035C4  3201               	bcf	status,0
 14095  0035C6  90D8               	rrcf	(??_Lcd_Cmd+0+0),c
 14096  0035C8  3201               
 14097                           	movlw	01h
 14098  0035CA  0E01               	andwf	(??_Lcd_Cmd+0+0),c
 14099  0035CC  1601               	swapf	(??_Lcd_Cmd+0+0),c
 14100  0035CE  3A01               	rlncf	(??_Lcd_Cmd+0+0),c
 14101  0035D0  4601               	rlncf	(??_Lcd_Cmd+0+0),c
 14102  0035D2  4601               	movf	((c:3971)),c,w	;volatile
 14103  0035D4  5083               	xorwf	(??_Lcd_Cmd+0+0),c,w
 14104  0035D6  1801               	andlw	not (((1<<1)-1)<<6)
 14105  0035D8  0BBF               	xorwf	(??_Lcd_Cmd+0+0),c,w
 14106  0035DA  1801               	movwf	((c:3971)),c	;volatile
 14107  0035DC  6E83               	line	179
 14108                           	
 14109                           l3992:
 14110  0035DE                     ;./LCD.h: 179: PORTDbits.RD5 = (data & 0b00000010)>>1; PORTDbits.RD4 = (data & 0b0000000
                                 1);
 14111                           	movff	(c:Lcd_Cmd@data),??_Lcd_Cmd+0+0
 14112  0035DE  C003  F001         	bcf	status,0
 14113  0035E2  90D8               	rrcf	(??_Lcd_Cmd+0+0),c
 14114  0035E4  3201               
 14115                           	movlw	01h
 14116  0035E6  0E01               	andwf	(??_Lcd_Cmd+0+0),c
 14117  0035E8  1601               	swapf	(??_Lcd_Cmd+0+0),c
 14118  0035EA  3A01               	rlncf	(??_Lcd_Cmd+0+0),c
 14119  0035EC  4601               	movf	((c:3971)),c,w	;volatile
 14120  0035EE  5083               	xorwf	(??_Lcd_Cmd+0+0),c,w
 14121  0035F0  1801               	andlw	not (((1<<1)-1)<<5)
 14122  0035F2  0BDF               	xorwf	(??_Lcd_Cmd+0+0),c,w
 14123  0035F4  1801               	movwf	((c:3971)),c	;volatile
 14124  0035F6  6E83               	
 14125                           l3994:
 14126  0035F8                     	movff	(c:Lcd_Cmd@data),??_Lcd_Cmd+0+0
 14127  0035F8  C003  F001         	movlw	01h
 14128  0035FC  0E01               	andwf	(??_Lcd_Cmd+0+0),c
 14129  0035FE  1601               	swapf	(??_Lcd_Cmd+0+0),c
 14130  003600  3A01               	movf	((c:3971)),c,w	;volatile
 14131  003602  5083               	xorwf	(??_Lcd_Cmd+0+0),c,w
 14132  003604  1801               	andlw	not (((1<<1)-1)<<4)
 14133  003606  0BEF               	xorwf	(??_Lcd_Cmd+0+0),c,w
 14134  003608  1801               	movwf	((c:3971)),c	;volatile
 14135  00360A  6E83               	line	180
 14136                           	
 14137                           l3996:
 14138  00360C                     ;./LCD.h: 180: _delay((unsigned long)((10)*(4000000/4000000.0)));;
 14139                           	opt asmopt_push
 14140                           opt asmopt_off
 14141                           	movlw	3
 14142  00360C  0E03               u5227:
 14143  00360E                     decfsz	wreg,f
 14144  00360E  2EE8               	bra	u5227
 14145  003610  D7FE               	nop
 14146  003612  F000               opt asmopt_pop
 14147                           
 14148                           	line	181
 14149                           	
 14150                           l3998:
 14151  003614                     ;./LCD.h: 181: PORTDbits.RD3 = 1; _delay((unsigned long)((5)*(4000000/4000000.0))); PORT
                                 Dbits.RD3 = 0;
 14152                           	bsf	((c:3971)),c,3	;volatile
 14153  003614  8683               	
 14154                           l4000:
 14155  003616                     		opt asmopt_push
 14156                           	opt asmopt_off
 14157                           	nop2	;2 cycle nop
 14158  003616  D000               	nop2	;2 cycle nop
 14159  003618  D000               	nop
 14160  00361A  F000               	opt asmopt_pop
 14161                           
 14162                           	
 14163                           l4002:
 14164  00361C                     	bcf	((c:3971)),c,3	;volatile
 14165  00361C  9683               	line	182
 14166                           	
 14167                           l4004:
 14168  00361E                     ;./LCD.h: 182: _delay((unsigned long)((5500)*(4000000/4000000.0)));
 14169                           	opt asmopt_push
 14170                           opt asmopt_off
 14171                           movlw	8
 14172  00361E  0E08               movwf	(??_Lcd_Cmd+0+0)&0ffh,c,f
 14173  003620  6E01               	movlw	35
 14174  003622  0E23               u5237:
 14175  003624                     decfsz	wreg,f
 14176  003624  2EE8               	bra	u5237
 14177  003626  D7FE               	decfsz	(??_Lcd_Cmd+0+0)&0ffh,c,f
 14178  003628  2E01               	bra	u5237
 14179  00362A  D7FC               	nop
 14180  00362C  F000               opt asmopt_pop
 14181                           
 14182                           	line	183
 14183                           	
 14184                           l89:
 14185  00362E                     	return	;funcret
 14186  00362E  0012               	opt stack 0
 14187                           GLOBAL	__end_of_Lcd_Cmd
 14188                           	__end_of_Lcd_Cmd:
 14189  003630                     	signat	_Lcd_Cmd,4217
 14190                           	global	_Buzzer1
 14191                           
 14192 ;; *************** function _Buzzer1 *****************
 14193 ;; Defined at:
 14194 ;;		line 85 in file "main.c"
 14195 ;; Parameters:    Size  Location     Type
 14196 ;;		None
 14197 ;; Auto vars:     Size  Location     Type
 14198 ;;		None
 14199 ;; Return value:  Size  Location     Type
 14200 ;;                  1    wreg      void 
 14201 ;; Registers used:
 14202 ;;		wreg
 14203 ;; Tracked objects:
 14204 ;;		On entry : 0/0
 14205 ;;		On exit  : 0/0
 14206 ;;		Unchanged: 0/0
 14207 ;; Data sizes:     COMRAM   BANK0   BANK1   BANK2   BANK3   BANK4   BANK5   BANK6   BANK7
 14208 ;;      Params:         0       0       0       0       0       0       0       0       0
 14209 ;;      Locals:         0       0       0       0       0       0       0       0       0
 14210 ;;      Temps:          2       0       0       0       0       0       0       0       0
 14211 ;;      Totals:         2       0       0       0       0       0       0       0       0
 14212 ;;Total ram usage:        2 bytes
 14213 ;; Hardware stack levels used:    1
 14214 ;; This function calls:
 14215 ;;		Nothing
 14216 ;; This function is called by:
 14217 ;;		_main
 14218 ;; This function uses a non-reentrant model
 14219 ;;
 14220                           psect	text37,class=CODE,space=0,reloc=2,group=0
 14221                           	file	"main.c"
 14222                           	line	85
 14223                           global __ptext37
 14224                           __ptext37:
 14225  00421C                     psect	text37
 14226                           	file	"main.c"
 14227                           	line	85
 14228                           	global	__size_of_Buzzer1
 14229                           	__size_of_Buzzer1	equ	__end_of_Buzzer1-_Buzzer1
 14230  0000                     	
 14231                           _Buzzer1:
 14232  00421C                     ;incstack = 0
 14233                           	opt	stack 30
 14234                           	line	86
 14235                           	
 14236                           l4194:
 14237  00421C                     ;main.c: 86:     LATEbits.LATE1=1;
 14238                           	bsf	((c:3981)),c,1	;volatile
 14239  00421C  828D               	line	87
 14240                           	
 14241                           l4196:
 14242  00421E                     ;main.c: 87:     _delay((unsigned long)((1000)*(4000000/4000.0)));
 14243                           	opt asmopt_push
 14244                           opt asmopt_off
 14245                           movlw  6
 14246  00421E  0E06               movwf	(??_Buzzer1+0+0+1)&0ffh,c,f
 14247  004220  6E02               movlw	19
 14248  004222  0E13               movwf	(??_Buzzer1+0+0)&0ffh,c,f
 14249  004224  6E01               	movlw	174
 14250  004226  0EAE               u5247:
 14251  004228                     decfsz	wreg,f
 14252  004228  2EE8               	bra	u5247
 14253  00422A  D7FE               	decfsz	(??_Buzzer1+0+0)&0ffh,c,f
 14254  00422C  2E01               	bra	u5247
 14255  00422E  D7FC               	decfsz	(??_Buzzer1+0+0+1)&0ffh,c,f
 14256  004230  2E02               	bra	u5247
 14257  004232  D7FA               opt asmopt_pop
 14258                           
 14259                           	line	88
 14260                           	
 14261                           l4198:
 14262  004234                     ;main.c: 88:     LATEbits.LATE1=0;
 14263                           	bcf	((c:3981)),c,1	;volatile
 14264  004234  928D               	line	89
 14265                           ;main.c: 89:     _delay((unsigned long)((1000)*(4000000/4000.0)));
 14266                           	opt asmopt_push
 14267                           opt asmopt_off
 14268                           movlw  6
 14269  004236  0E06               movwf	(??_Buzzer1+0+0+1)&0ffh,c,f
 14270  004238  6E02               movlw	19
 14271  00423A  0E13               movwf	(??_Buzzer1+0+0)&0ffh,c,f
 14272  00423C  6E01               	movlw	174
 14273  00423E  0EAE               u5257:
 14274  004240                     decfsz	wreg,f
 14275  004240  2EE8               	bra	u5257
 14276  004242  D7FE               	decfsz	(??_Buzzer1+0+0)&0ffh,c,f
 14277  004244  2E01               	bra	u5257
 14278  004246  D7FC               	decfsz	(??_Buzzer1+0+0+1)&0ffh,c,f
 14279  004248  2E02               	bra	u5257
 14280  00424A  D7FA               opt asmopt_pop
 14281                           
 14282                           	line	90
 14283                           	
 14284                           l120:
 14285  00424C                     	return	;funcret
 14286  00424C  0012               	opt stack 0
 14287                           GLOBAL	__end_of_Buzzer1
 14288                           	__end_of_Buzzer1:
 14289  00424E                     	signat	_Buzzer1,89
 14290                           	global	_ADC_Read
 14291                           
 14292 ;; *************** function _ADC_Read *****************
 14293 ;; Defined at:
 14294 ;;		line 70 in file "main.c"
 14295 ;; Parameters:    Size  Location     Type
 14296 ;;  channel         2    0[COMRAM] int 
 14297 ;; Auto vars:     Size  Location     Type
 14298 ;;  digital         2    6[COMRAM] int 
 14299 ;; Return value:  Size  Location     Type
 14300 ;;                  2    0[COMRAM] int 
 14301 ;; Registers used:
 14302 ;;		wreg, status,2, status,0
 14303 ;; Tracked objects:
 14304 ;;		On entry : 0/0
 14305 ;;		On exit  : 0/0
 14306 ;;		Unchanged: 0/0
 14307 ;; Data sizes:     COMRAM   BANK0   BANK1   BANK2   BANK3   BANK4   BANK5   BANK6   BANK7
 14308 ;;      Params:         2       0       0       0       0       0       0       0       0
 14309 ;;      Locals:         2       0       0       0       0       0       0       0       0
 14310 ;;      Temps:          4       0       0       0       0       0       0       0       0
 14311 ;;      Totals:         8       0       0       0       0       0       0       0       0
 14312 ;;Total ram usage:        8 bytes
 14313 ;; Hardware stack levels used:    1
 14314 ;; This function calls:
 14315 ;;		Nothing
 14316 ;; This function is called by:
 14317 ;;		_main
 14318 ;; This function uses a non-reentrant model
 14319 ;;
 14320                           psect	text38,class=CODE,space=0,reloc=2,group=0
 14321                           	line	70
 14322                           global __ptext38
 14323                           __ptext38:
 14324  003DCE                     psect	text38
 14325                           	file	"main.c"
 14326                           	line	70
 14327                           	global	__size_of_ADC_Read
 14328                           	__size_of_ADC_Read	equ	__end_of_ADC_Read-_ADC_Read
 14329  0000                     	
 14330                           _ADC_Read:
 14331  003DCE                     ;incstack = 0
 14332                           	opt	stack 30
 14333                           	line	73
 14334                           	
 14335                           l4170:
 14336  003DCE                     ;main.c: 70: int ADC_Read(int channel);main.c: 71: {;main.c: 72:     int digital;;main.c
                                 : 73:     ADCON0 =(ADCON0 & 0b11000011)|((channel<<2) & 0b00111100);
 14337                           	movff	(c:ADC_Read@channel),??_ADC_Read+0+0
 14338  003DCE  C001  F003         	bcf	status,0
 14339  003DD2  90D8               	rlcf	(??_ADC_Read+0+0),c
 14340  003DD4  3603               	bcf	status,0
 14341  003DD6  90D8               	rlcf	(??_ADC_Read+0+0),c
 14342  003DD8  3603               
 14343                           	movlw	03Ch
 14344  003DDA  0E3C               	andwf	(??_ADC_Read+0+0),c
 14345  003DDC  1603               	movf	((c:4034)),c,w	;volatile
 14346  003DDE  50C2               	andlw	low(0C3h)
 14347  003DE0  0BC3               	iorwf	(??_ADC_Read+0+0),c,w
 14348  003DE2  1003               	movwf	((c:4034)),c	;volatile
 14349  003DE4  6EC2               	line	76
 14350                           ;main.c: 76:     ADCON0 |= ((1<<ADON)|(1<<GO));
 14351                           	btfsc	c:(32273/8),(32273)&7	;volatile
 14352  003DE6  B2C2               	goto	u4911
 14353  003DE8  EFF8  F01E         	goto	u4910
 14354  003DEC  EFFC  F01E         u4911:
 14355  003DF0                     	clrf	(??_ADC_Read+0+0)&0ffh,c
 14356  003DF0  6A03               	incf	(??_ADC_Read+0+0)&0ffh,c
 14357  003DF2  2A03               	goto	u4928
 14358  003DF4  EFFD  F01E         u4910:
 14359  003DF8                     	clrf	(??_ADC_Read+0+0)&0ffh,c
 14360  003DF8  6A03               u4928:
 14361  003DFA                     	movlw	(01h)&0ffh
 14362  003DFA  0E01               	movwf	(??_ADC_Read+1+0)&0ffh,c
 14363  003DFC  6E04               	incf	(??_ADC_Read+0+0),c
 14364  003DFE  2A03               	goto	u4934
 14365  003E00  EF04  F01F         u4935:
 14366  003E04                     	bcf	status,0
 14367  003E04  90D8               	rlcf	((??_ADC_Read+1+0)),c
 14368  003E06  3604               u4934:
 14369  003E08                     	decfsz	(??_ADC_Read+0+0),c
 14370  003E08  2E03               	goto	u4935
 14371  003E0A  EF02  F01F         	btfsc	c:(32272/8),(32272)&7	;volatile
 14372  003E0E  B0C2               	goto	u4941
 14373  003E10  EF0C  F01F         	goto	u4940
 14374  003E14  EF10  F01F         u4941:
 14375  003E18                     	clrf	(??_ADC_Read+2+0)&0ffh,c
 14376  003E18  6A05               	incf	(??_ADC_Read+2+0)&0ffh,c
 14377  003E1A  2A05               	goto	u4958
 14378  003E1C  EF11  F01F         u4940:
 14379  003E20                     	clrf	(??_ADC_Read+2+0)&0ffh,c
 14380  003E20  6A05               u4958:
 14381  003E22                     	movlw	(01h)&0ffh
 14382  003E22  0E01               	movwf	(??_ADC_Read+3+0)&0ffh,c
 14383  003E24  6E06               	incf	(??_ADC_Read+2+0),c
 14384  003E26  2A05               	goto	u4964
 14385  003E28  EF18  F01F         u4965:
 14386  003E2C                     	bcf	status,0
 14387  003E2C  90D8               	rlcf	((??_ADC_Read+3+0)),c
 14388  003E2E  3606               u4964:
 14389  003E30                     	decfsz	(??_ADC_Read+2+0),c
 14390  003E30  2E05               	goto	u4965
 14391  003E32  EF16  F01F         	movf	((??_ADC_Read+3+0)),c,w
 14392  003E36  5006               	iorwf	((??_ADC_Read+1+0)),c,w
 14393  003E38  1004               	iorwf	((c:4034)),c	;volatile
 14394  003E3A  12C2               	line	79
 14395                           ;main.c: 79:     while(ADCON0bits.GO_nDONE==1);
 14396                           	goto	l114
 14397  003E3C  EF20  F01F         	
 14398                           l115:
 14399  003E40                     	
 14400                           l114:
 14401  003E40                     	btfsc	((c:4034)),c,1	;volatile
 14402  003E40  B2C2               	goto	u4971
 14403  003E42  EF25  F01F         	goto	u4970
 14404  003E46  EF27  F01F         u4971:
 14405  003E4A                     	goto	l114
 14406  003E4A  EF20  F01F         u4970:
 14407  003E4E                     	goto	l4172
 14408  003E4E  EF29  F01F         	
 14409                           l116:
 14410  003E52                     	line	81
 14411                           	
 14412                           l4172:
 14413  003E52                     ;main.c: 81:     digital = (ADRESH*256) | (ADRESL);
 14414                           	movf	((c:4035)),c,w	;volatile
 14415  003E52  50C3               	movff	(c:4036),??_ADC_Read+0+0	;volatile
 14416  003E54  CFC4 F003          	clrf	(??_ADC_Read+0+0+1)&0ffh,c
 14417  003E58  6A04               	movff	??_ADC_Read+0+0,??_ADC_Read+0+1
 14418  003E5A  C003  F004         	clrf	(??_ADC_Read+0+0),c
 14419  003E5E  6A03               	iorwf	(??_ADC_Read+0+0),c,w
 14420  003E60  1003               	movwf	((c:ADC_Read@digital)),c
 14421  003E62  6E07               	movf	(??_ADC_Read+0+1),c,w
 14422  003E64  5004               	movwf	1+((c:ADC_Read@digital)),c
 14423  003E66  6E08               	line	83
 14424                           	
 14425                           l4174:
 14426  003E68                     ;main.c: 83:     return(digital);
 14427                           	movff	(c:ADC_Read@digital),(c:?_ADC_Read)
 14428  003E68  C007  F001         	movff	(c:ADC_Read@digital+1),(c:?_ADC_Read+1)
 14429  003E6C  C008  F002         	goto	l117
 14430  003E70  EF3A  F01F         	
 14431                           l4176:
 14432  003E74                     	line	84
 14433                           	
 14434                           l117:
 14435  003E74                     	return	;funcret
 14436  003E74  0012               	opt stack 0
 14437                           GLOBAL	__end_of_ADC_Read
 14438                           	__end_of_ADC_Read:
 14439  003E76                     	signat	_ADC_Read,4218
 14440                           	global	_ADC_Init
 14441                           
 14442 ;; *************** function _ADC_Init *****************
 14443 ;; Defined at:
 14444 ;;		line 61 in file "main.c"
 14445 ;; Parameters:    Size  Location     Type
 14446 ;;		None
 14447 ;; Auto vars:     Size  Location     Type
 14448 ;;		None
 14449 ;; Return value:  Size  Location     Type
 14450 ;;                  1    wreg      void 
 14451 ;; Registers used:
 14452 ;;		wreg, status,2
 14453 ;; Tracked objects:
 14454 ;;		On entry : 0/0
 14455 ;;		On exit  : 0/0
 14456 ;;		Unchanged: 0/0
 14457 ;; Data sizes:     COMRAM   BANK0   BANK1   BANK2   BANK3   BANK4   BANK5   BANK6   BANK7
 14458 ;;      Params:         0       0       0       0       0       0       0       0       0
 14459 ;;      Locals:         0       0       0       0       0       0       0       0       0
 14460 ;;      Temps:          0       0       0       0       0       0       0       0       0
 14461 ;;      Totals:         0       0       0       0       0       0       0       0       0
 14462 ;;Total ram usage:        0 bytes
 14463 ;; Hardware stack levels used:    1
 14464 ;; This function calls:
 14465 ;;		Nothing
 14466 ;; This function is called by:
 14467 ;;		_main
 14468 ;; This function uses a non-reentrant model
 14469 ;;
 14470                           psect	text39,class=CODE,space=0,reloc=2,group=0
 14471                           	line	61
 14472                           global __ptext39
 14473                           __ptext39:
 14474  0042C4                     psect	text39
 14475                           	file	"main.c"
 14476                           	line	61
 14477                           	global	__size_of_ADC_Init
 14478                           	__size_of_ADC_Init	equ	__end_of_ADC_Init-_ADC_Init
 14479  0000                     	
 14480                           _ADC_Init:
 14481  0042C4                     ;incstack = 0
 14482                           	opt	stack 30
 14483                           	line	63
 14484                           	
 14485                           l4166:
 14486  0042C4                     ;main.c: 63:     TRISA = 0xff;
 14487                           	setf	((c:3986)),c	;volatile
 14488  0042C4  6892               	line	64
 14489                           	
 14490                           l4168:
 14491  0042C6                     ;main.c: 64:     ADCON1 = 0x0e;
 14492                           	movlw	low(0Eh)
 14493  0042C6  0E0E               	movwf	((c:4033)),c	;volatile
 14494  0042C8  6EC1               	line	65
 14495                           ;main.c: 65:     ADCON2 = 0x92;
 14496                           	movlw	low(092h)
 14497  0042CA  0E92               	movwf	((c:4032)),c	;volatile
 14498  0042CC  6EC0               	line	66
 14499                           ;main.c: 66:     ADRESH=0;
 14500                           	movlw	low(0)
 14501  0042CE  0E00               	movwf	((c:4036)),c	;volatile
 14502  0042D0  6EC4               	line	67
 14503                           ;main.c: 67:     ADRESL=0;
 14504                           	movlw	low(0)
 14505  0042D2  0E00               	movwf	((c:4035)),c	;volatile
 14506  0042D4  6EC3               	line	68
 14507                           	
 14508                           l111:
 14509  0042D6                     	return	;funcret
 14510  0042D6  0012               	opt stack 0
 14511                           GLOBAL	__end_of_ADC_Init
 14512                           	__end_of_ADC_Init:
 14513  0042D8                     	signat	_ADC_Init,89
 14514                           psect	smallconst
 14515                           	db 0	; dummy byte at the end
 14516  00082B  00                 	global	__smallconst
 14517                           	global	__mediumconst
 14518                           	GLOBAL	__activetblptr
 14519                           __activetblptr	EQU	2
 14520  0000                     	psect	intsave_regs,class=BIGRAM,space=1,noexec
 14521                           	PSECT	rparam,class=COMRAM,space=1,noexec
 14522                           	GLOBAL	__Lrparam
 14523                           	FNCONF	rparam,??,?
 14524                           	GLOBAL	___rparam_used
 14525                           	___rparam_used EQU 1
 14526  0000                     	GLOBAL	___param_bank
 14527                           	___param_bank EQU 0
 14528  0000                     GLOBAL	__Lparam, __Hparam
 14529                           GLOBAL	__Lrparam, __Hrparam
 14530                           __Lparam	EQU	__Lrparam
 14531  0000                     __Hparam	EQU	__Hrparam
 14532  0000                     	end


Data Sizes:
    Strings     42
    Constant    0
    Data        0
    BSS         96
    Persistent  0
    Stack       0

Auto Spaces:
    Space          Size  Autos    Used
    COMRAM           95     95      95
    BANK0           160     90     106
    BANK1           256      0      80
    BANK2           256      0       0
    BANK3           256      0       0
    BANK4           256      0       0
    BANK5           256      0       0
    BANK6           256      0       0
    BANK7           256      0       0

Pointer List with Targets:

    strncmp@_r	PTR const unsigned char  size(2) Largest target is 3
		 -> STR_14(CODE[3]), 

    strncmp@r	PTR const unsigned char  size(2) Largest target is 3
		 -> STR_14(CODE[3]), 

    strncmp@_l	PTR const unsigned char  size(2) Largest target is 3
		 -> vfpfcnvrt@ct(COMRAM[3]), 

    strncmp@l	PTR const unsigned char  size(2) Largest target is 3
		 -> vfpfcnvrt@ct(COMRAM[3]), 

    strlen@s	PTR const unsigned char  size(2) Largest target is 80
		 -> dbuf(BANK1[80]), main@data(BANK0[10]), 

    strlen@a	PTR const unsigned char  size(2) Largest target is 80
		 -> dbuf(BANK1[80]), main@data(BANK0[10]), 

    strcpy@dest	PTR unsigned char  size(2) Largest target is 80
		 -> dbuf(BANK1[80]), main@data(BANK0[10]), 

    strcpy@d	PTR unsigned char  size(2) Largest target is 80
		 -> dbuf(BANK1[80]), main@data(BANK0[10]), 

    strcpy@src	PTR const unsigned char  size(2) Largest target is 80
		 -> STR_9(CODE[4]), STR_8(CODE[4]), STR_5(CODE[4]), STR_4(CODE[4]), 
		 -> dbuf(BANK1[80]), STR_3(CODE[4]), 

    strcpy@s	PTR const unsigned char  size(2) Largest target is 80
		 -> STR_9(CODE[4]), STR_8(CODE[4]), STR_5(CODE[4]), STR_4(CODE[4]), 
		 -> dbuf(BANK1[80]), STR_3(CODE[4]), 

    strcat@src	PTR const unsigned char  size(2) Largest target is 4
		 -> STR_3(CODE[4]), 

    strcat@dest	PTR unsigned char  size(2) Largest target is 10
		 -> main@data(BANK0[10]), 

    sprintf@fmt	PTR const unsigned char  size(2) Largest target is 5
		 -> STR_2(CODE[5]), 

    sprintf@s	PTR unsigned char  size(2) Largest target is 10
		 -> main@data(BANK0[10]), 

    sprintf@ap	PTR void [1] size(2) Largest target is 2
		 -> ?_sprintf(BANK0[2]), 

    f.buffer	PTR unsigned char  size(2) Largest target is 10
		 -> main@data(BANK0[10]), 

    fputs@s	PTR const unsigned char  size(2) Largest target is 80
		 -> dbuf(BANK1[80]), 

    fputs@fp	PTR struct _IO_FILE size(2) Largest target is 7
		 -> sprintf@f(BANK0[6]), 

    S990_IO_FILE$buffer	PTR unsigned char  size(2) Largest target is 10
		 -> main@data(BANK0[10]), 

    fputc@fp.buffer	PTR unsigned char  size(2) Largest target is 10
		 -> main@data(BANK0[10]), 

    fputc@fp	PTR struct _IO_FILE size(2) Largest target is 7
		 -> sprintf@f(BANK0[6]), 

    atoi@s	PTR const unsigned char  size(2) Largest target is 5
		 -> STR_2(CODE[5]), 

    vfprintf@ap	PTR PTR void  size(2) Largest target is 2
		 -> sprintf@ap(BANK0[2]), 

    vfprintf@fp	PTR struct _IO_FILE size(2) Largest target is 7
		 -> sprintf@f(BANK0[6]), 

    vfprintf@fmt	PTR const unsigned char  size(2) Largest target is 5
		 -> STR_2(CODE[5]), 

    vfprintf@cfmt	PTR unsigned char  size(2) Largest target is 5
		 -> STR_2(CODE[5]), 

    vfpfcnvrt@fp	PTR struct _IO_FILE size(2) Largest target is 7
		 -> sprintf@f(BANK0[6]), 

    vfpfcnvrt@ap	PTR PTR void  size(2) Largest target is 2
		 -> sprintf@ap(BANK0[2]), 

    vfpfcnvrt@fmt	PTR PTR unsigned char  size(2) Largest target is 2
		 -> vfprintf@cfmt(COMRAM[2]), 

    efgtoa@fp	PTR struct _IO_FILE size(2) Largest target is 7
		 -> sprintf@f(BANK0[6]), 

    sp__strcpy	PTR unsigned char  size(2) Largest target is 80
		 -> dbuf(BANK1[80]), main@data(BANK0[10]), 

    pad@fp	PTR struct _IO_FILE size(2) Largest target is 7
		 -> sprintf@f(BANK0[6]), 

    pad@buf	PTR unsigned char  size(2) Largest target is 80
		 -> dbuf(BANK1[80]), 

    sp__strcat	PTR unsigned char  size(2) Largest target is 10
		 -> main@data(BANK0[10]), 

    Lcd_Out2@buffer	PTR unsigned char  size(2) Largest target is 10
		 -> main@data(BANK0[10]), 

    Lcd_Out@buffer	PTR const unsigned char  size(2) Largest target is 14
		 -> STR_1(CODE[14]), 


Critical Paths under _main in COMRAM

    _strcat->_strcpy
    _sprintf->_vfprintf
    _vfprintf->_vfpfcnvrt
    _vfpfcnvrt->_efgtoa
    _efgtoa->___flge
    _tolower->_isupper
    _strcpy->_strlen
    _pad->_fputs
    _fputs->_fputc
    _floorf->___fldiv
    ___flsub->___flmul
    ___flmul->___xxtofl
    ___flge->___flmul
    _atoi->_isspace
    _Lcd_Out2->_Lcd_Chr_CP
    _Lcd_Out2->_Lcd_Cmd
    _Lcd_Out->_Lcd_Chr_CP
    _Lcd_Out->_Lcd_Cmd
    _Lcd_Init->_Lcd_Cmd

Critical Paths under _main in BANK0

    _main->_sprintf
    _vfpfcnvrt->_efgtoa

Critical Paths under _main in BANK1

    None.

Critical Paths under _main in BANK2

    None.

Critical Paths under _main in BANK3

    None.

Critical Paths under _main in BANK4

    None.

Critical Paths under _main in BANK5

    None.

Critical Paths under _main in BANK6

    None.

Critical Paths under _main in BANK7

    None.

Call Graph Tables:

 ---------------------------------------------------------------------------------
 (Depth) Function   	        Calls       Base Space   Used Autos Params    Refs
 ---------------------------------------------------------------------------------
 (0) _main                                                18    18      0   35399
                                             93 COMRAM     2     2      0
                                             74 BANK0     16    16      0
                           _ADC_Init
                           _ADC_Read
                            _Buzzer1
                            _Lcd_Cmd
                           _Lcd_Init
                            _Lcd_Out
                           _Lcd_Out2
                             ___fleq
                            ___flmul
                           ___xxtofl
                            _sprintf
                             _strcat
 ---------------------------------------------------------------------------------
 (1) _strcat                                               4     0      4    1474
                                             16 COMRAM     4     0      4
                             _strcpy
                             _strlen
 ---------------------------------------------------------------------------------
 (1) _sprintf                                             18    10      8   28101
                                             56 BANK0     18    10      8
                           _vfprintf
 ---------------------------------------------------------------------------------
 (2) _vfprintf                                             8     2      6   27744
                                             85 COMRAM     8     2      6
                          _vfpfcnvrt
 ---------------------------------------------------------------------------------
 (3) _vfpfcnvrt                                           48    42      6   27372
                                             63 COMRAM    22    16      6
                               _atoi
                             _efgtoa
                              _fputc
                            _isdigit
                            _isupper
                            _strncmp
                            _tolower
 ---------------------------------------------------------------------------------
 (4) _strncmp                                             13     7      6     453
                                              0 COMRAM    13     7      6
 ---------------------------------------------------------------------------------
 (4) _efgtoa                                              68    61      7   22073
                                             51 COMRAM    12     5      7
                                              0 BANK0     56    56      0
                            ___awdiv
                            ___awmod
                            ___fladd
                            ___fldiv
                             ___fleq
                             ___flge
                            ___flmul
                            ___flneg
                            ___flsub
                            ___fltol
                      ___fpclassifyf
                             _floorf
                            _isupper
                                _pad
                             _strcpy
                            _tolower
 ---------------------------------------------------------------------------------
 (4) _tolower                                              8     6      2     944
                                              6 COMRAM     8     6      2
                            _isupper
 ---------------------------------------------------------------------------------
 (5) _isupper                                              6     4      2     465
                                              0 COMRAM     6     4      2
 ---------------------------------------------------------------------------------
 (2) _strcpy                                              10     6      4    1008
                                              6 COMRAM    10     6      4
                             _strlen (ARG)
 ---------------------------------------------------------------------------------
 (5) _pad                                                 11     5      6    3241
                                             16 COMRAM    11     5      6
                              _fputc
                              _fputs
                             _strlen
 ---------------------------------------------------------------------------------
 (2) _strlen                                               6     4      2     242
                                              0 COMRAM     6     4      2
 ---------------------------------------------------------------------------------
 (6) _fputs                                                7     3      4    1235
                                              9 COMRAM     7     3      4
                              _fputc
 ---------------------------------------------------------------------------------
 (4) _fputc                                                9     5      4     834
                                              0 COMRAM     9     5      4
                              _putch
 ---------------------------------------------------------------------------------
 (5) _putch                                                1     1      0       0
 ---------------------------------------------------------------------------------
 (5) _floorf                                              20    16      4     490
                                             25 COMRAM    20    16      4
                            ___fldiv (ARG)
 ---------------------------------------------------------------------------------
 (5) ___fpclassifyf                                       14    10      4     287
                                              0 COMRAM    14    10      4
 ---------------------------------------------------------------------------------
 (5) ___fltol                                             10     6      4     381
                                              0 COMRAM    10     6      4
 ---------------------------------------------------------------------------------
 (5) ___flsub                                              8     0      8    2889
                                             39 COMRAM     8     0      8
                            ___fladd
                            ___flmul (ARG)
 ---------------------------------------------------------------------------------
 (6) ___fladd                                             20    12      8    2414
                                              0 COMRAM    20    12      8
 ---------------------------------------------------------------------------------
 (5) ___flneg                                              4     0      4     121
                                              0 COMRAM     4     0      4
 ---------------------------------------------------------------------------------
 (5) ___flmul                                             25    17      8    2504
                                             14 COMRAM    25    17      8
                           ___xxtofl (ARG)
 ---------------------------------------------------------------------------------
 (5) ___flge                                              12     4      8     638
                                             39 COMRAM    12     4      8
                            ___flmul (ARG)
 ---------------------------------------------------------------------------------
 (5) ___fleq                                              12     4      8     798
                                              0 COMRAM    12     4      8
 ---------------------------------------------------------------------------------
 (5) ___fldiv                                             25    17      8    2007
                                              0 COMRAM    25    17      8
 ---------------------------------------------------------------------------------
 (5) ___awmod                                              6     2      4     448
                                              0 COMRAM     6     2      4
 ---------------------------------------------------------------------------------
 (5) ___awdiv                                              8     4      4     452
                                              0 COMRAM     8     4      4
 ---------------------------------------------------------------------------------
 (4) _atoi                                                15    13      2    1152
                                              7 COMRAM    15    13      2
                             ___wmul
                            _isdigit
                            _isspace
 ---------------------------------------------------------------------------------
 (5) _isspace                                              7     5      2     207
                                              0 COMRAM     7     5      2
 ---------------------------------------------------------------------------------
 (4) _isdigit                                              6     4      2     237
                                              0 COMRAM     6     4      2
 ---------------------------------------------------------------------------------
 (5) ___wmul                                               6     2      4     311
                                              0 COMRAM     6     2      4
 ---------------------------------------------------------------------------------
 (1) ___xxtofl                                            14    10      4     398
                                              0 COMRAM    14    10      4
 ---------------------------------------------------------------------------------
 (1) _Lcd_Out2                                             7     4      3     685
                                              3 COMRAM     7     4      3
                         _Lcd_Chr_CP
                            _Lcd_Cmd
 ---------------------------------------------------------------------------------
 (1) _Lcd_Out                                              7     4      3     685
                                              3 COMRAM     7     4      3
                         _Lcd_Chr_CP
                            _Lcd_Cmd
 ---------------------------------------------------------------------------------
 (2) _Lcd_Chr_CP                                           3     3      0     176
                                              0 COMRAM     3     3      0
 ---------------------------------------------------------------------------------
 (1) _Lcd_Init                                             2     2      0     314
                                              3 COMRAM     2     2      0
                            _Lcd_Cmd
 ---------------------------------------------------------------------------------
 (2) _Lcd_Cmd                                              3     3      0     176
                                              0 COMRAM     3     3      0
 ---------------------------------------------------------------------------------
 (1) _Buzzer1                                              2     2      0       0
                                              0 COMRAM     2     2      0
 ---------------------------------------------------------------------------------
 (1) _ADC_Read                                             8     6      2     121
                                              0 COMRAM     8     6      2
 ---------------------------------------------------------------------------------
 (1) _ADC_Init                                             0     0      0       0
 ---------------------------------------------------------------------------------
 Estimated maximum stack depth 6
 ---------------------------------------------------------------------------------

 Call Graph Graphs:

 _main (ROOT)
   _ADC_Init
   _ADC_Read
   _Buzzer1
   _Lcd_Cmd
   _Lcd_Init
     _Lcd_Cmd
   _Lcd_Out
     _Lcd_Chr_CP
     _Lcd_Cmd
   _Lcd_Out2
     _Lcd_Chr_CP
     _Lcd_Cmd
   ___fleq
   ___flmul
     ___xxtofl (ARG)
   ___xxtofl
   _sprintf
     _vfprintf
       _vfpfcnvrt
         _atoi
           ___wmul
           _isdigit
           _isspace
         _efgtoa
           ___awdiv
           ___awmod
           ___fladd
           ___fldiv
           ___fleq
           ___flge
             ___flmul (ARG)
               ___xxtofl (ARG)
           ___flmul
             ___xxtofl (ARG)
           ___flneg
           ___flsub
             ___fladd
             ___flmul (ARG)
               ___xxtofl (ARG)
           ___fltol
           ___fpclassifyf
           _floorf
             ___fldiv (ARG)
           _isupper
           _pad
             _fputc
               _putch
             _fputs
               _fputc
                 _putch
             _strlen
           _strcpy
             _strlen (ARG)
           _tolower
             _isupper
         _fputc
           _putch
         _isdigit
         _isupper
         _strncmp
         _tolower
           _isupper
   _strcat
     _strcpy
       _strlen (ARG)
     _strlen

 Address spaces:
Name               Size   Autos  Total    Cost      Usage
BIGRAM             7FF      0       0      21        0.0%
EEDATA             100      0       0       0        0.0%
BITBANK7           100      0       0      19        0.0%
BANK7              100      0       0      20        0.0%
BITBANK6           100      0       0      17        0.0%
BANK6              100      0       0      18        0.0%
BITBANK5           100      0       0      15        0.0%
BANK5              100      0       0      16        0.0%
BITBANK4           100      0       0      13        0.0%
BANK4              100      0       0      14        0.0%
BITBANK3           100      0       0      11        0.0%
BANK3              100      0       0      12        0.0%
BITBANK2           100      0       0       9        0.0%
BANK2              100      0       0      10        0.0%
BITBANK1           100      0       0       7        0.0%
BANK1              100      0      50       8       31.2%
BITBANK0            A0      0       0       4        0.0%
BANK0               A0     5A      6A       5       66.2%
BITCOMRAM           5F      0       0       0        0.0%
COMRAM              5F     5F      5F       1      100.0%
BITSFR_1             0      0       0     200        0.0%
SFR_1                0      0       0     200        0.0%
BITSFR               0      0       0     200        0.0%
SFR                  0      0       0     200        0.0%
STACK                0      0       0       2        0.0%
NULL                 0      0       0       0        0.0%
ABS                  0      0     119       6        0.0%
DATA                 0      0     119       3        0.0%
CODE                 0      0       0       0        0.0%


Microchip Technology PIC18 Macro Assembler V2.00 build -1524193055 
Symbol Table                                                                                   Fri Jul 12 21:51:07 2019

           ___fldiv@aexp 0019             ___fldiv@bexp 0018             ___fldiv@sign 0011  
                     l60 3CA2                       l61 3C72                       l70 3D1E  
                     l62 3CDC                       l55 31E4                       l63 3C7C  
                     l56 3230                       l64 3C86                       l80 3DB0  
                     l57 3292                       l65 3C90                       l81 3D9A  
                     l73 3D56                       l66 3C9A                       l82 3DCC  
                     l74 3D26                       l67 3CFE                       l83 3DCC  
                     l75 3D90                       l68 3CE6                       l76 3D30  
                     l69 3D1E                       l77 3D3A                       l86 3504  
                     l78 3D44                       l79 3D4E                       l89 362E  
                     _GO 007E11             ___awdiv@sign 0006      ___wmul@multiplicand 0003  
           __CFG_CP0$OFF 000000             __CFG_CP1$OFF 000000             __CFG_CP2$OFF 000000  
           __CFG_CP3$OFF 000000                      l111 42D6                      l120 424C  
                    l200 0CA4                      l104 32CE                      l105 33CA  
                    l114 3E40                      l210 0D7C                      l202 0CCA  
                    l106 33CE                      l115 3E40                      l211 0D70  
                    l107 33D2                      l116 3E52                      l220 0E4C  
                    l212 0D78                      l204 0CD6                      l108 33D2  
                    l117 3E74                      l221 0F68                      l213 0DC2  
                    l205 0D04                      l230 10C6                      l222 0FE4  
                    l231 1174                      l223 103E                      l215 0DBA  
                    l207 0CF4                      l240 132E                      l232 1218  
                    l224 103A                      l216 0E20                      l161 3B26  
                    l241 1524                      l233 11BA                      l217 0DFE  
                    l209 0D00                      l162 3B4E                      l242 1392  
                    l234 11E2                      l226 10A2                      l218 0E1C  
                    l170 0902                      l163 3B32                      l251 14E2  
                    l243 13F8                      l235 11BE                      l219 0F46  
                    l164 3B6C                      l244 139E                      l236 11F8  
                    l228 10AA                      l180 0962                      l172 08BA  
                    l260 1FA2                      l165 3B94                      l157 3B04  
                    l253 14EE                      l245 1428                      l229 12B4  
                    l261 1C74                      l166 3BB0                      l238 12F2  
                    l190 0A72                      l182 0978                      l174 08D8  
                    l270 1C6C                      l262 1BB2                      l159 3B1E  
                    l255 14AC                      l247 144C                      l239 12F6  
                    l191 0AC0                      l183 09C6                      l271 1D1C  
                    l263 1C70                      l520 38F8                      l512 385C  
                    l192 0C60                      l184 154C                      l176 08E4  
                    l280 1E78                      l272 1D18                      l264 1BE4  
                    l521 3918                      l513 387A                      l257 14C2  
                    l249 1458                      l193 0B88                      l185 0AF6  
                    l177 09FC                      l169 0884                      l281 1EEE  
                    l273 1DB2                      l265 1BD2                      l522 3924  
                    l514 38FC                      l530 3A78                      l194 0B4A  
                    l186 0AA2                      l178 09A8                      l282 1F84  
                    l274 1FE0                      l291 42A0                      l515 38A8  
                    l531 3A7C                      l195 0BE2                      l275 1F2E  
                    l267 1C2E                      l516 389C                      l532 3A9E  
                    l196 0C26                      l188 0A5C                      l276 1EBE  
                    l517 38BA                      l533 3AAE                      l525 3A26  
                    l197 0BE6                      l269 1C56                      l285 3F9E  
                    l518 38BE                      l534 3ACE                      l526 3A40  
                    l550 3C6A                      l198 0C5C                      l278 1E50  
                    l286 3F74                      l519 38E8                      l535 3ADA  
                    l527 3AB2                      l199 0CDA                      l287 3FBA  
                    l528 3A66                      l544 3BF4                      l560 2FEE  
                    l288 3FC2                      l529 3A5A                      l545 3C36  
                    l561 2FF2                      l553 2ECE                      l554 2F10  
                    l810 15C0                      l547 3C60                      l555 2F5C  
                    l811 15DE                      l556 2FA4                      l900 2036  
                    l564 418E                      l820 1768                      l812 15F8  
                    l549 3C66                      l901 2050                      l565 41A2  
                    l821 1726                      l813 1636                      l558 2FE8  
                    l910 22CC                      l902 2070                      l830 17EC  
                    l822 1740                      l814 162C                      l590 309C  
                    l911 229E                      l903 20AA                      l831 17F4  
                    l823 1748                      l815 164A                      l807 156E  
                    l591 30A0                      l920 23CE                      l912 22B8  
                    l904 20A4                      l840 192E                      l832 1808  
                    l824 175C                      l816 16B2                      l808 15AC  
                    l592 30B4                      l921 2436                      l913 22DE  
                    l905 20BA                      l833 197C                      l841 1944  
                    l825 177E                      l817 1672                      l809 15A2  
                    l593 310C                      l922 2400                      l914 2340  
                    l906 20F6                      l850 1A34                      l842 194C  
                    l834 18BE                      l826 181C                      l818 1722  
                    l594 30E0                      l923 2432                      l915 2326  
                    l851 1A30                      l843 1962                      l835 18BA  
                    l827 17B4                      l819 177E                      l595 30F4  
                    l587 3022                      l924 2428                      l916 2340  
                    l908 20DE                      l852 1A88                      l844 1978  
                    l836 18CE                      l828 1AD0                      l596 30E4  
                    l588 3144                      l917 233C                      l909 244E  
                    l845 19C6                      l837 190C                      l829 1818  
                    l861 4162                      l597 3108                      l589 30B8  
                    l950 2D60                      l870 2516                      l918 23A0  
                    l854 1A5C                      l846 19AC                      l838 1966  
                    l598 3130                      l951 2D50                      l871 2534  
                    l919 239C                      l855 1A84                      l847 19C6  
                    l839 1910                      l960 2E16                      l952 2D92  
                    l880 26A2                      l872 257E                      l864 2470  
                    l856 1A9C                      l848 19C2                      l961 2E2A  
                    l953 2DAE                      l881 26BE                      l873 286E  
                    l865 24AE                      l857 1AA2                      l849 1A38  
                    l962 2E76                      l954 2D96                      l946 2D06  
                    l890 27C4                      l882 26F0                      l874 25B6  
                    l866 24A4                      l858 1ABC                      l955 2DE0  
                    l947 2D1A                      l891 27C0                      l883 26C2  
                    l875 268E                      l867 24C2                      l971 36CE  
                    l956 2DF4                      l948 2D48                      l980 2ABE  
                    l892 27F8                      l884 26DC                      l876 2616  
                    l868 24E2                      l972 373C                      l957 2DE4  
                    l949 2E8A                      l981 2AB6                      l893 2832  
                    l885 2702                      l877 2658                      l869 2520  
                    l973 3730                      l990 2B60                      l894 284A  
                    l886 2764                      l878 264A                      l959 2E16  
                    l991 2B6C                      l983 2B26                      l895 2850  
                    l887 274A                      l879 268C                      l967 36D6  
                    l992 2BA8                      l888 2764                      l993 2BFC  
                    l985 2B46                      l889 2760                      l969 36C2  
                    l994 2BAC                      l898 2002                      l987 2B1C  
                    l899 203C                      l996 2C3E                      l988 2B5C  
                    l989 2B74                      l998 2C5E                      l999 2C74  
           __CFG_CPB$OFF 000000             __CFG_CPD$OFF 000000                      _pad 3ADC  
           ___awmod@sign 0006                      wreg 000FE8             ___flmul@aexp 0020  
           ___flmul@bexp 0021             ___flmul@sign 001B             ___flmul@temp 0026  
           ___flmul@prod 0022              main@digital 00B4             __CFG_LVP$OFF 000000  
           ___fltol@exp1 000A                     l1001 2CA2                     l1010 2AA0  
                   l1003 2CAE                     l1011 29F8                     l1020 421A  
                   l1004 2CAE                     l1012 2988                     l1100 3EEC  
                   l1013 29D4                     l1014 2A8C                     l1102 3EB0  
                   l1015 2A48                     l1016 2A88                     l1104 3EC8  
                   l1017 2A84                     l1009 28FA                     l1105 3EF4  
                   l1042 3958                     l1034 41DE                     l1027 4070  
                   l1028 407A                     l1044 394E                     l1045 39FE  
                   l1046 39FA                     l1054 40F4                     l1055 40DA  
                   l3000 368E                     l1048 39B0                     l1056 4118  
                   l1080 3F5C                     l1064 4020                     l1049 3A02  
                   l1057 4118                     l3010 36E8                     l3002 36B6  
                   l1090 3838                     l1074 4276                     l1067 42D8  
                   l1083 4090                     l1091 378E                     l3100 2502  
                   l3012 372C                     l3004 36C2                     l1084 4088  
                   l3020 3F0E                     l1092 377C                     l1085 40AC  
                   l1077 3F0E                     l3110 254A                     l3102 2516  
                   l3014 3730                     l3006 36D2                     l1086 40CC  
                   l1078 3F0A                     l3030 3EE8                     l3022 3E76  
                   l1094 3800                     l1079 3F5C                     l1095 3804  
                   l4000 3616                     l3200 2850                     l3112 255A  
                   l3120 257E                     l3104 2518                     l3016 373C  
                   l3008 36D6                     l3040 2908                     l3032 2870  
                   l3024 3EB0                     l1089 3778                     l4002 361C  
                   l4010 345A                     l3202 2856                     l3130 25DE  
                   l3122 258E                     l3114 2562                     l3106 2520  
                   l3210 1FEE                     l3050 2A34                     l3042 2974  
                   l3034 2890                     l3018 3EF6                     l3026 3EC8  
                   l4004 361E                     l4100 326E                     l4020 348E  
                   l4012 3462                     l3060 41E0                     l3204 285A  
                   l3140 2626                     l3132 25EE                     l3124 259E  
                   l3116 2566                     l3108 2534                     l3300 22E2  
                   l3220 2036                     l3212 1FFC                     l3052 2A48  
                   l3044 2988                     l3036 28E6                     l3028 3EDA  
                   l4110 3288                     l4102 3274                     l4030 34E6  
                   l4022 34AE                     l4014 3464                     l4006 33D8  
                   l3062 421A                     l3206 286E                     l3150 2678  
                   l3142 263A                     l3134 25FE                     l3126 25B2  
                   l3118 257A                     l3070 2450                     l3310 235C  
                   l3302 22F0                     l3230 206A                     l3222 203C  
                   l3214 2002                     l3054 2A70                     l3046 29C4  
                   l3038 28FA                     l4112 328C                     l4104 3278  
                   l4032 34EC                     l4024 34C8                     l4016 346A  
                   l4008 33DC                     l4120 3C86                     l4200 2CB2  
                   l3064 4278                     l3400 3A40                     l3160 26CC  
                   l3152 268C                     l3144 2648                     l3136 260E  
                   l3128 25B6                     l3080 2490                     l3072 245C  
                   l3320 23CE                     l3312 236A                     l3304 231E  
                   l3240 20AA                     l3232 2070                     l3224 2050  
                   l3216 2012                     l3208 1FE2                     l3056 2A8C  
                   l3048 29F8                     l4040 3F66                     l4106 327E  
                   l4050 314E                     l4034 34EE                     l4026 34DC  
                   l4018 346C                     l4130 3CE6                     l4122 3C90  
                   l4114 3C6E                     l4210 2D44                     l4202 2CC2  
                   l3066 4294                     l3410 3A92                     l3402 3A52  
                   l3170 2714                     l3162 26DA                     l3154 26A2  
                   l3146 2658                     l3138 2616                     l3090 24C8  
                   l3082 24A4                     l3074 246A                     l3330 2428  
                   l3322 23E8                     l3314 2394                     l3306 2334  
                   l3250 2102                     l3242 20CA                     l3234 2080  
                   l3226 2056                     l3218 2022                     l3058 2AA0  
                   l4042 3F74                     l4108 3282                     l4060 3158  
                   l4052 3150                     l4036 34F4                     l4028 34E4  
                   l4132 3CF6                     l4124 3C9E                     l4116 3C72  
                   l4140 3D22                     l4220 2D98                     l4212 2D48  
                   l4204 2CD0                     l3068 42A0                     l3420 3ACE  
                   l3412 3A9E                     l3404 3A5A                     l3180 278E  
                   l3172 2742                     l3156 26B8                     l3164 26F0  
                   l3148 2676                     l3092 24CE                     l3084 24A6  
                   l3076 2470                     l3324 2404                     l3332 2436  
                   l3308 2350                     l3316 23A0                     l3260 2152  
                   l3252 210C                     l3244 20DE                     l3236 2090  
                   l3228 205C                     l3340 412A                     l3500 30DC  
                   l4044 3F9E                     l4300 33C2                     l4070 3162  
                   l4062 315A                     l4054 3152                     l4046 3146  
                   l4134 3CFE                     l4118 3C7C                     l4126 3CA2  
                   l4150 3D52                     l4142 3D26                     l4230 2E24  
                   l4222 2DA4                     l4214 2D50                     l4206 2D1A  
                   l3350 3854                     l3422 3ADA                     l3414 3AA4  
                   l3406 3A66                     l3190 2812                     l3182 27B8  
                   l3174 2758                     l3166 2702                     l3158 26C2  
                   l3094 24DC                     l3078 2480                     l3086 24AE  
                   l3430 3C22                     l3334 243A                     l3326 2414  
                   l3318 23BA                     l3270 2194                     l3262 215E  
                   l3254 2122                     l3246 20F2                     l3238 20A4  
                   l3342 4162                     l3510 3130                     l3502 30E4  
                   l4038 3F5E                     l4080 3188                     l4072 3164  
                   l4064 315C                     l4056 3154                     l4048 314C  
                   l4128 3CDC                     l4160 3DB0                     l4144 3D30  
                   l4152 3D56                     l4240 2E70                     l4232 2E2A  
                   l4224 2DE4                     l4216 2D60                     l4208 2D30  
                   l3520 4068                     l3360 3882                     l3352 385C  
                   l3344 383A                     l3408 3A7C                     l3416 3AB2  
                   l3192 2832                     l3176 2774                     l3184 27C4  
                   l3168 2706                     l3096 24E2                     l3088 24C2  
                   l3432 3C36                     l3424 3BB2                     l3440 2E8C  
                   l3336 244E                     l3328 2422                     l3280 21F6  
                   l3272 21A4                     l3264 216C                     l3256 212E  
                   l3248 20F6                     l2800 15F2                     l3512 3144  
                   l3504 30F4                     l3600 0B7E                     l4170 3DCE  
                   l4090 31E0                     l4082 3198                     l4074 3166  
                   l4066 315E                     l4058 3156                     l4146 3D3A  
                   l4154 3D90                     l4242 2E76                     l4234 2E2E  
                   l4226 2DF4                     l4218 2D96                     l3522 4070  
                   l3514 4022                     l3370 38C4                     l3362 3894  
                   l3354 386A                     l3346 383E                     l3418 3AC2  
                   l3194 2836                     l3186 27DE                     l3178 2780  
                   l3098 24F2                     l3434 3C5A                     l3426 3BE0  
                   l3450 2F1E                     l3442 2EBA                     l3290 229E  
                   l3282 2212                     l3274 21BE                     l3266 2178  
                   l3258 2146                     l2810 162E                     l2802 15F8  
                   l3338 411A                     l3506 310C                     l3602 0B88  
                   l3610 0C60                     l3530 0846                     l4172 3E52  
                   l4092 320E                     l4084 31A8                     l4076 3168  
                   l4068 3160                     l4156 3D9A                     l4148 3D44  
                   l4244 2E8A                     l4236 2E52                     l4228 2E02  
                   l3524 407A                     l3516 4026                     l3372 38DA  
                   l3364 389C                     l3380 38FC                     l3356 3872  
                   l3348 384C                     l3196 2844                     l3188 27F8  
                   l3436 3C60                     l3428 3BF4                     l3460 2FF2  
                   l3452 2F5C                     l3444 2ECE                     l3292 22A8  
                   l3284 223C                     l3276 21CE                     l3268 2188  
                   l2900 1898                     l2820 1672                     l2804 1608  
                   l2812 1636                     l3508 311C                     l2740 394E  
                   l3700 112A                     l3620 0CA4                     l3612 0C70  
                   l3604 0BE6                     l3540 0896                     l3532 0854  
                   l4180 3FD6                     l4166 42C4                     l4174 3E68  
                   l4094 321E                     l4086 31B8                     l4078 3178  
                   l4158 3DA8                     l4238 2E62                     l3518 403A  
                   l3382 390C                     l3374 38E2                     l3366 38A8  
                   l3358 387A                     l3390 3A08                     l3198 284A  
                   l3438 3C6A                     l3454 2F6A                     l3446 2EFC  
                   l3294 22B6                     l3286 2272                     l3278 21EA  
                   l3462 4164                     l2910 18F4                     l2902 189A  
                   l2830 1686                     l2822 1676                     l2814 164A  
                   l2806 1618                     l3470 2FF4                     l2742 3958  
                   l2750 40CE                     l3702 113A                     l3710 1174  
                   l3630 0D04                     l3622 0CBE                     l3614 0C74  
                   l3606 0C1A                     l3550 08E4                     l3542 08A8  
                   l3534 085C                     l3526 082C                     l4182 3FDE  
                   l4190 424E                     l4270 329C                     l4168 42C6  
                   l4176 3E74                     l4096 325A                     l4088 31CC  
                   l3384 3918                     l3376 38E8                     l3368 38BE  
                   l3392 3A16                     l3456 2FE2                     l3448 2F10  
                   l3296 22CC                     l3288 2280                     l3464 417A  
                   l2920 192E                     l2912 1908                     l2904 18AA  
                   l2840 169A                     l2832 168A                     l2824 167A  
                   l2816 165C                     l2808 162C                     l3480 304E  
                   l3472 300A                     l2744 3976                     l2736 3926  
                   l2752 40DA                     l2760 4088                     l3800 1468  
                   l3720 11AE                     l3712 1186                     l3704 114C  
                   l3632 0D16                     l3640 0D7C                     l3616 0C86  
                   l3624 0CDA                     l3608 0C26                     l3560 0962  
                   l3552 08F4                     l3544 08BA                     l3536 0884  
                   l3528 0836                     l4184 3FE6                     l4192 4276  
                   l4280 32B0                     l4272 32A0                     l4194 421C  
                   l4098 326A                     l4362 2B92                     l3386 3924  
                   l3378 38EE                     l3394 3A1E                     l3458 2FE8  
                   l3298 22DE                     l3466 418E                     l2922 193C  
                   l2914 1910                     l2930 1966                     l2906 18BE  
                   l2842 169E                     l2834 168E                     l2826 167E  
                   l2818 166A                     l2850 16B2                     l3490 3098  
                   l3482 305E                     l3474 301E                     l2746 39B0  
                   l2738 3938                     l2754 40EC                     l2762 4090  
                   l2770 41DE                     l3810 14D6                     l3802 146E  
                   l3722 11BE                     l3714 1194                     l3730 11E2  
                   l3706 115E                     l3650 0DC2                     l3642 0D84  
                   l3634 0D32                     l3626 0CE8                     l3618 0C98  
                   l3570 09D0                     l3562 0978                     l3554 08F8  
                   l3546 08CC                     l3538 088E                     l4186 400A  
                   l4178 3FC4                     l4290 332E                     l4282 32B2  
                   l4274 32A6                     l4266 3294                     l4196 421E  
                   l4364 3D6A                     l3396 3A26                     l3388 3A04  
                   l3468 41A2                     l2940 19BA                     l2924 1944  
                   l2916 191A                     l2908 18E4                     l2932 197C  
                   l2860 1734                     l2852 16B6                     l2844 16A2  
                   l2836 1692                     l2828 1682                     l2780 157E  
                   l2772 154E                     l3492 30A0                     l3484 3062  
                   l3476 3022                     l2748 3A02                     l2756 40F4  
                   l2764 40AC                     l3812 14E2                     l3804 1474  
                   l3820 1524                     l3740 1270                     l3732 11F8  
                   l3724 11CE                     l3716 11A4                     l3708 116C  
                   l3652 0DD4                     l3660 0E20                     l3644 0D96  
                   l3636 0D68                     l3628 0CF4                     l3580 0A72  
                   l3572 09F8                     l3564 098C                     l3548 08D8  
                   l3556 0902                     l3900 1B54                     l4188 4020  
                   l4292 3354                     l4284 32C4                     l4276 32AA  
                   l4268 3298                     l4198 4234                     l4366 3CB6  
                   l3830 2AC2                     l3398 3A34                     l2942 19D6  
                   l2950 1A38                     l2934 1980                     l2926 194C  
                   l2918 1928                     l2870 1766                     l2862 1740  
                   l2854 16EE                     l2846 16A6                     l2838 1696  
                   l2790 15C0                     l2782 158E                     l2774 155A  
                   l3494 30AA                     l3486 3070                     l3478 304C  
                   l2766 40CC                     l2758 407C                     l3822 154C  
                   l3814 14EE                     l3806 14AC                     l3750 12F6  
                   l3742 12A4                     l3734 120A                     l3726 11D2  
                   l3718 11A8                     l3670 0F08                     l3662 0E28  
                   l3654 0DE2                     l3646 0DA8                     l3638 0D70  
                   l3590 0AF2                     l3582 0A86                     l3566 09A8  
                   l3558 0928                     l3574 09FC                     l3910 1C2E  
                   l3902 1B78                     l4294 3368                     l4286 32CE  
                   l4278 32AE                     ?_pad 0011                     l3840 2B46  
                   l3832 2ADE                     l3824 2AA2                     l2960 1A96  
                   l2952 1A48                     l2944 19E2                     l2936 198E  
                   l2928 195C                     l2880 17C4                     l2872 178C  
                   l2864 1748                     l2856 170A                     l2848 16AA  
                   l2792 15C6                     l2784 15A2                     l2776 1568  
                   l3488 3084                     l3496 30B8                     l2768 41A4  
                   l3816 14FE                     l3808 14C2                     l3760 133E  
                   l3752 1308                     l3744 12AC                     l3736 120E  
                   l3728 11D8                     l3680 0FCE                     l3672 0F3C  
                   l3664 0E38                     l3656 0DFE                     l3648 0DBA  
                   l3584 0AA2                     l3576 0A22                     l3592 0AF6  
                   l3568 09C6                     l3920 1CD4                     l3912 1C56  
                   l3904 1BB2                     l4296 337A                     l4288 32E2  
                   l3850 2BF4                     l3842 2B60                     l3834 2B14  
                   l3826 2AB6                     l2970 1ABC                     l2962 1A9C  
                   l2954 1A5C                     l2946 19F0                     l2938 19A4  
                   l2890 1802                     l2882 17D2                     l2874 179C  
                   l2866 1756                     l2858 171A                     l2794 15D8  
                   l2786 15A4                     l2778 156E                     l3498 30C8  
                   l3818 1504                     l3770 137E                     l3762 1350  
                   l3754 1316                     l3738 1218                     l3746 12B4  
                   l3690 1072                     l3682 0FE4                     l3666 0E4C  
                   l3674 0F46                     l3658 0E10                     l3594 0B10  
                   l3586 0AC0                     l3578 0A5C                     l3930 1D52  
                   l3922 1CE4                     l3906 1BD2                     l3914 1C74  
                   l4298 3390                     l3860 2C86                     l3852 2BFC  
                   l3844 2B6C                     l3836 2B1C                     l3828 2ABE  
                   l2972 1AD0                     l2964 1AA2                     l2956 1A7C  
                   l2948 1A2A                     l2892 1808                     l2884 17E0  
                   l2876 17B0                     l2868 175C                     l2796 15DE  
                   l2788 15AC                     l2980 3B12                     l3780 13CA  
                   l3772 1386                     l3764 1358                     l3756 1326  
                   l3748 12D2                     l3692 1082                     l3684 1016  
                   l3676 0F68                     l3668 0EB0                     l3596 0B46  
                   l3588 0ACA                     l3940 1E50                     l3932 1D82  
                   l3924 1D1C                     l3916 1C94                     l3908 1BE4  
                   l3854 2C3E                     l3846 2B74                     l3838 2B26  
                   l2966 1AA8                     l2958 1A88                     l2894 1812  
                   l2886 17EC                     l2878 17B4                     l2798 15E4  
                   l2990 3B7C                     l2982 3B1E                     l2974 3ADC  
                   l3790 1428                     l3782 13E6                     l3774 1392  
                   l3766 1368                     l3758 132E                     l3694 1096  
                   l3686 1026                     l3678 0F9C                     l3598 0B4A  
                   l3870 3774                     l3950 1F2A                     l3942 1E78  
                   l3934 1DAE                     l3926 1D2E                     l3918 1CA4  
                   l3856 2C5E                     l3848 2BAC                     l2968 1AB6  
                   l2888 17F4                     l2896 181C                     l2992 3B94  
                   l2984 3B32                     l2976 3AEC                     l3792 142E  
                   l3784 13EE                     l3776 139E                     l3768 1370  
                   l3696 10A2                     l3688 103E                     l3880 37D4  
                   l3872 377C                     l3960 1F80                     l3944 1E8A  
                   l3952 1F2E                     l3928 1D44                     l3936 1DB2  
                   l3858 2C74                     l2898 1842                     l2994 3BB0  
                   l2986 3B46                     l2978 3B04                     l3794 1440  
                   l3778 13A4                     l3786 13F8                     l3698 10C6  
                   l3882 3804                     l3874 378E                     l3866 373E  
                   l3970 1FC6                     l3954 1F52                     l3962 1F84  
                   l3946 1EBE                     l3938 1DE0                     l3890 1B04  
                   l3980 358A                     l2996 3630                     l2988 3B4E  
                   l3796 144C                     l3788 140A                     l3884 3838  
                   l3876 37A6                     l3868 3768                     l3972 1FD4  
                   l3964 1F92                     l3956 1F60                     l3948 1EFE  
                   l3892 1B16                     l3990 35BE                     l3982 3592  
                   l2998 3650                     l3798 1458                     l3878 37C2  
                   l3974 1FE0                     l3966 1F9E                     l3958 1F74  
                   l3894 1B1A                     l3886 1AD2                     l3992 35DE  
                   l3984 3594                     l3976 3508                     l3896 1B3E  
                   l3888 1AF6                     l3968 1FA2                     l3994 35F8  
                   l3986 359A                     l3978 350C                     l3898 1B46  
                   l3996 360C                     l3988 359C                     l3998 3614  
                   _ADON 007E10                     STR_1 0801                     STR_2 080F  
                   STR_3 0824                     STR_4 0814                     STR_5 081C  
                   STR_8 0818                     STR_9 0820                     u3000 1A96  
                   u3001 1A92                     u3010 1AB6                     u3011 1AB2  
                   u3020 3AEC                     u3021 3AE8                     u3110 3722  
                   u3030 3B12                     u3111 371C                     u3031 3B0E  
                   u4000 403A                     u3120 3724                     u3200 2908  
                   u3040 3B6C                     u4001 4036                     u3105 36FA  
                   u3201 2904                     u3041 3B68                     u4010 4068  
                   u3050 3B7C                     u3130 3F46                     u4011 4064  
                   u3051 3B78                     u3300 246A                     u3060 3670  
                   u3220 2974                     u3140 3F58                     u4100 0A22  
                   u4020 0854                     u3301 2466                     u3221 2970  
                   u3141 3F54                     u4101 0A1E                     u4021 0850  
                   u3310 2480                     u3070 368E                     u3230 29A8  
                   u3150 3EA6                     u4110 0A50                     u4030 08A8  
                   u3311 247C                     u3071 368A                     u3215 291C  
                   u3151 3EA0                     u4111 0A4A                     u4031 08A4  
                   u5000 2D30                     u3400 2676                     u3320 2490  
                   u3080 36B6                     u3240 29C4                     u3216 2926  
                   u2600 40A8                     u3160 3EA8                     u4200 0CE8  
                   u4120 0A52                     u4040 08B6                     u5001 2D2C  
                   u3401 2672                     u3321 248C                     u3081 36B2  
                   u3065 3666                     u3241 29C0                     u3217 2936  
                   u2601 40A4                     u3137 3F3C                     u4201 0CE4  
                   u4041 08B2                     u5010 2D8E                     u3410 269E  
                   u3330 24DC                     u3090 36E8                     u3250 2A18  
                   u2610 41D4                     u3170 3EDA                     u4210 0D16  
                   u4130 0A86                     u4050 08CC                     u5011 2D8A  
                   u3411 269A                     u3331 24D8                     u3091 36E4  
                   u3235 299E                     u2611 41CE                     u3171 3ED6  
                   u4211 0D12                     u4131 0A82                     u4051 08C8  
                   u5020 2DDC                     u3500 27DE                     u3420 26B8  
                   u3340 24F2                     u2700 165C                     u3260 2A34  
                   u3180 28B8                     u2620 41D6                     u4300 0F64  
                   u4220 0D32                     u4140 0B42                     u4060 0928  
                   u5021 2DD8                     u3501 27DA                     u3421 26B4  
                   u3341 24EE                     u2701 1658                     u3261 2A30  
                   u4301 0F60                     u4221 0D2E                     u4141 0B3E  
                   u4061 0924                     u5030 2E02                     u3510 2812  
                   u3430 26DA                     u3350 2502                     u2710 166A  
                   u2630 1568                     u3270 2A70                     u3190 28E6  
                   u2550 3938                     u4310 0FCE                     u4230 0D68  
                   u4150 0BDE                     u4070 0956                     u5031 2DFE  
                   u3511 280E                     u3431 26D6                     u3351 24FE  
                   u2711 1666                     u2631 1564                     u3271 2A6C  
                   u3255 2A0E                     u3191 28E2                     u2551 3934  
                   u4311 0FCA                     u4231 0D64                     u4151 0BDA  
                   u4071 0950                     u5040 2E12                     u3280 4210  
                   u3520 2844                     u3440 26FE                     u3360 254A  
                   u3600 20DA                     u2800 17D2                     u2720 16EE  
                   u2640 157E                     u2560 394A                     u4400 1194  
                   u4320 1016                     u4240 0D96                     u4160 0C58  
                   u4080 0958                     u5041 2E0E                     u3281 420A  
                   u3521 2840                     u3441 26FA                     u3361 2546  
                   u3601 20D6                     u2801 17CE                     u2721 16EA  
                   u2641 157A                     u3185 28AE                     u2561 3946  
                   u4401 1190                     u4321 1012                     u4241 0D92  
                   u4161 0C54                     u5050 2E24                     u3290 4212  
                   u3450 2714                     u3370 258E                     u3610 225C  
                   u3530 1FFC                     u2810 17E0                     u2730 1706  
                   u2650 158E                     u2570 3976                     u4410 11F4  
                   u4330 1026                     u4250 0DA8                     u4170 0C86  
                   u4090 098C                     u5107 345C                     u5051 2E20  
                   u3451 2710                     u3371 258A                     u3531 1FF8  
                   u2811 17DC                     u2731 1700                     u2651 158A  
                   u2571 3972                     u4411 11F0                     u4331 1022  
                   u4251 0DA4                     u4171 0C82                     u4091 0988  
                   u5060 2E62                     u3460 2742                     u3380 2626  
                   u3700 23E8                     u3620 22B6                     u3540 2012  
                   u2900 1974                     u2820 1802                     u2740 1708  
                   u2660 15D8                     u2580 39AC                     u4500 1440  
                   u4420 12D2                     u4340 1096                     u4260 0DB6  
                   u4180 0C98                     u5117 34DE                     u5061 2E5E  
                   u3461 273E                     u3381 2622                     u3701 23E4  
                   u3621 22B2                     u3541 200E                     u2901 1970  
                   u2821 17FE                     u2661 15D4                     u2581 39A8  
                   u4501 143C                     u4421 12CE                     u4341 1092  
                   u4261 0DB2                     u4181 0C94                     u5070 2E70  
                   u3470 2758                     u3390 2648                     u3710 2422  
                   u3630 22DA                     u3550 2022                     u2910 198E  
                   u2830 1842                     u2750 1734                     u2670 15F2  
                   u2590 4114                     u4510 14A2                     u4430 12EE  
                   u4350 113A                     u4270 0DD4                     u4190 0CBE  
                   u5207 3260                     u5127 34FA                     u5071 2E6C  
                   u3471 2754                     u3391 2644                     u3711 241E  
                   u3631 22D6                     u3615 2252                     u3551 201E  
                   u2911 198A                     u2831 183E                     u2751 1730  
                   u2671 15EE                     u2591 4110                     u4511 149C  
                   u4431 12EA                     u4351 1136                     u4271 0DD0  
                   u4191 0CBA                     u4600 2C86                     u3720 384C  
                   u3800 3A52                     u3480 2774                     u3640 22F0  
                   u3560 206A                     u2920 19A4                     u2840 18AA  
                   u2760 1756                     u2680 1608                     u4520 14A4  
                   u4440 1308                     u4360 114C                     u4280 0DE2  
                   u5080 33C2                     u5217 358C                     u5137 316E  
                   u4601 2C82                     u3721 3848                     u3801 3A4E  
                   u3481 2770                     u3641 22EC                     u3561 2066  
                   u2921 19A0                     u2841 18A6                     u2761 1752  
                   u2681 1604                     u4441 1304                     u4361 1148  
                   u4281 0DDE                     u5081 33BE                     u3730 386A  
                   u3810 3A74                     u3490 278E                     u3650 231E  
                   u3570 2080                     u2930 19BA                     u2850 18E4  
                   u2770 177A                     u2690 1618                     u4530 14D6  
                   u4450 1316                     u4370 115E                     u4290 0E10  
                   u4610 3768                     u5227 360E                     u5147 317E  
                   u3731 3866                     u3811 3A70                     u3491 278A  
                   u3651 231A                     u3571 207C                     u2931 19B6  
                   u2851 18E0                     u2771 1776                     u2691 1614  
                   u4531 14D2                     u4451 1312                     u4371 115A  
                   u4291 0E0C                     u4611 3764                     u4540 2ADE  
                   u3740 3894                     u3820 3A92                     u3900 2F6A  
                   u3660 2334                     u3580 2090                     u2940 19D6  
                   u2860 18F4                     u2780 178C                     u4460 1350  
                   u4380 116C                     u4620 37A6                     u4700 1C26  
                   u5237 3624                     u5157 318E                     u4541 2ADA  
                   u3741 3890                     u3821 3A8E                     u3901 2F66  
                   u3661 2330                     u3581 208C                     u2941 19D2  
                   u2861 18F0                     u2781 1788                     u4461 134C  
                   u4381 1168                     u4621 37A2                     u4550 2B14  
                   u3750 38B6                     u3830 3AC2                     u3910 2FE2  
                   u3670 2350                     u3590 20CA                     u2950 19F0  
                   u2870 1928                     u2790 179C                     u4470 137E  
                   u4390 1186                     u4630 37C2                     u4710 1C68  
                   u5247 4228                     u5167 319E                     u4551 2B10  
                   u3751 38B2                     u3831 3ABE                     u3911 2FDE  
                   u3671 234C                     u3591 20C6                     u2951 19EC  
                   u2871 1924                     u2791 1798                     u4471 137A  
                   u4391 1182                     u4631 37BE                     u4711 1C64  
                   u4560 2B58                     u3760 38DA                     u3840 3BE0  
                   u3680 236A                     u3920 417A                     u2960 1A2A  
                   u2880 193C                     u4480 140A                     u4640 37D4  
                   u4720 1CA4                     u5257 4240                     u5177 31AE  
                   u4561 2B54                     u3761 38D6                     u3841 3BDC  
                   u3681 2366                     u3921 4176                     u2961 1A26  
                   u2881 1938                     u4481 1406                     u4641 37D0  
                   u4721 1CA0                     u5097 3384                     u4570 2C34  
                   u3770 390C                     u3850 3C22                     u3690 23BA  
                   u2970 1A48                     u2890 195C                     u3930 300A  
                   u4490 1424                     u4650 37FC                     u4730 1CE4  
                   u5187 31BE                     u4571 2C2E                     u3771 3908  
                   u3851 3C1E                     u3691 23B6                     u2971 1A44  
                   u2891 1958                     u3931 3006                     u4491 1420  
                   u4651 37F8                     u4731 1CE0                     u4900 3DC8  
                   u4580 2C36                     u3780 3A16                     u3860 3C5A  
                   u2980 1A58                     u3940 3042                     u4740 1D2E  
                   u4660 1AF6                     u4805 3514                     u5197 3214  
                   u4901 3DC4                     u3781 3A12                     u3861 3C56  
                   u2981 1A54                     u4741 1D2A                     u4661 1AF2  
                   u4910 3DF8                     u4590 2C70                     u3790 3A34  
                   u3870 2EBA                     u2990 1A7C                     u3950 3070  
                   u4750 1DE0                     u4670 1B3E                     u4911 3DF0  
                   u4815 352E                     u4591 2C6C                     u3791 3A30  
                   u3871 2EB6                     u2991 1A78                     u3951 306C  
                   u4751 1DDC                     u4671 1B3A                     u3880 2EFC  
                   u3960 3084                     u4760 1E46                     u4680 1B78  
                   u4825 3554                     u3881 2EF8                     u3961 3080  
                   u3945 3038                     u4761 1E40                     u4681 1B74  
                   u3890 2F1E                     u3970 30C8                     u4770 1E48  
                   u4690 1C24                     u4835 33E4                     u3891 2F1A  
                   u3971 30C4                     u4691 1C1E                     u4940 3E20  
                   u3980 3104                     u4780 1E8A                     u4860 3FBA  
                   u4941 3E18                     u4845 33FE                     u3981 3100  
                   u4781 1E86                     u4861 3FB6                     u4934 3E08  
                   u4870 31DC                     u3990 311C                     u4790 1F52  
                   u4935 3E04                     u4871 31D8                     u4855 3424  
                   u3991 3118                     u4791 1F4E                     u4928 3DFA  
                   u4880 3230                     u4881 322C                     u4970 3E4E  
                   u4890 3D1A                     u4971 3E4A                     u4891 3D16  
                   u4964 3E30                     u4980 2CC2                     u4965 3E2C  
                   u4981 2CBE                     u4958 3E22                     u4990 2CD0  
                   u4991 2CCC                     _dbuf 0100                     _atoi 2AA2  
                   _main 3294                     _prec 00C6                     _nout 00C2  
                   pad@i 0018                     pad@p 0015                     fsr1h 000FE2  
                   fsr2h 000FDA                     indf1 000FE7                     indf2 000FDF  
                   fsr1l 000FE1                     pad@w 001A                     fsr2l 000FD9  
          __CFG_BORV$190 000000         __end_of_ADC_Init 42D8         __end_of_ADC_Read 3E76  
          ___fpclassifyf 3630                     prodh 000FF4                     prodl 000FF3  
                   start 0000            __CFG_IESO$OFF 000000          ___fldiv@new_exp 0012  
            main@voltage 00B6          __end_of_Lcd_Cmd 3630             _tolower$1069 000D  
        __end_of_Lcd_Out 3D20            __CFG_MCLRE$ON 000000             ___param_bank 000000  
             _Lcd_Chr_CP 33D6          __end_of_Buzzer1 424E                    ??_pad 0017  
         Lcd_Out2@buffer 0005            ___fltol@sign1 0009                    ?_atoi 0008  
        __end_of___fladd 1AD2                    ?_main 0001          __end_of___fldiv 2870  
        __end_of___awdiv 3926          __end_of___flneg 41A4                    STR_12 0828  
                  STR_14 0828          __end_of___awmod 3ADC          __end_of___flmul 2450  
        __end_of___flsub 4164          __end_of___fltol 3146          ___awdiv@divisor 0003  
        ___awdiv@counter 0005             vfpfcnvrt@fmt 0042                    _PORTA 000F80  
                  _TRISA 000F92            __CFG_WRT0$OFF 000000            __CFG_WRT1$OFF 000000  
          __CFG_WRT2$OFF 000000            __CFG_WRT3$OFF 000000           __CFG_EBTR0$OFF 000000  
         __CFG_FCMEN$OFF 000000           __CFG_EBTR1$OFF 000000           __CFG_EBTR2$OFF 000000  
         __CFG_EBTR3$OFF 000000            __CFG_WRTB$OFF 000000            __CFG_WRTC$OFF 000000  
          __CFG_WRTD$OFF 000000           __CFG_EBTRB$OFF 000000                    _flags 00C8  
                  _fputc 3926                    _fputs 40CE          __end_of_isdigit 421C  
                  atoi@n 0015                    pad@fp 0011                    atoi@s 0008  
                  _width 00C4                    _putch 42D8          __end_of_isspace 407C  
        __end_of_isupper 41E0                    tablat 000FF5                    status 000FD8  
         __CFG_T3CMX$RC0 000000          __end_of_sprintf 4022           ?___fpclassifyf 0001  
        __end_of_tolower 3EF6          __end_of_strncmp 383A           __CFG_ICPRT$OFF 000000  
         __CFG_PBADEN$ON 000000         __end_of_Lcd_Init 3294         __end_of_Lcd_Out2 3DCE  
        __initialization 42A2             __end_of_atoi 2CB0             __end_of_main 33D6  
                 ??_atoi 000A                   ??_main 005E            __activetblptr 000002  
         __CFG_SDOMX$RB3 000000          __CFG_CCP2MX$RC1 000000                   _ADCON0 000FC2  
                 _ADCON1 000FC1                   _ADCON2 000FC0                   ?_fputc 0001  
                 ?_fputs 000A                   _ADRESH 000FC4                   _ADRESL 000FC3  
       ___awdiv@dividend 0001                   _ANSELA 000F5B                   ?_putch 0001  
                 _ANSELD 000F5E           __CFG_WDTEN$OFF 000000                   _OSCCON 000FD3  
              ??_Lcd_Cmd 0001                ??_Lcd_Out 0007         __end_of___xxtofl 2E8C  
              ??_Buzzer1 0001           __CFG_XINST$OFF 000000             vfprintf@cfmt 005C  
                 ___flge 2E8C                   ___fleq 3BB2              ?_Lcd_Chr_CP 0001  
              ??___fladd 0009                   ___wmul 4278                ??___fldiv 0009  
              ??___awdiv 0005                ??___flneg 0005           __CFG_STVREN$ON 000000  
              ??___awmod 0005                ??___flmul 0017                ??___flsub 0030  
              ??___fltol 0005                   _efgtoa 082C          ADC_Read@channel 0001  
                 _floorf 2870          ADC_Read@digital 0007                   clear_0 42A8  
                 clear_1 42B4         ___awdiv@quotient 0007          ___awmod@divisor 0003  
        ___awmod@counter 0005                   pad@buf 0013                   _strcat 424E  
                 _strcpy 3EF6                   _strlen 407C                   fputc@c 0001  
                 fputs@c 000E                   fputs@i 000F                   fputs@s 000A  
              ??_isdigit 0003          ___fpclassifyf@e 0009                ?_ADC_Init 0001  
        ___fpclassifyf@u 000B                ?_ADC_Read 0001          ___fpclassifyf@x 0001  
           __mediumconst 0000                ??_isspace 0003                   tblptrh 000FF7  
              ??_isupper 0003                   tblptrl 000FF6                   tblptru 000FF8  
                 putch@c 0001         __end_of_vfprintf 3FC4                ??_sprintf 005E  
              ??_tolower 0009                ??_strncmp 0007               ___flge@ff1 0028  
             ___flge@ff2 002C          ??___fpclassifyf 0005     __CFG_LS48MHZ$SYS24X4 000000  
           ___xxtofl@arg 000B             ___xxtofl@exp 000A             ___xxtofl@val 0001  
             ___fleq@ff1 0001               ___fleq@ff2 0005               __accesstop 0060  
__end_of__initialization 42BA               ___flneg@f1 0001            ___rparam_used 000001  
             ___fltol@f1 0001           __pcstackCOMRAM 0001            __end_of_fputc 3A04  
          __end_of_fputs 411A            __end_of_putch 42DA          __CFG_PCLKEN$OFF 000000  
             ??_ADC_Init 0001               ??_ADC_Read 0003                ?_Lcd_Init 0001  
              ?_Lcd_Out2 0004                  ??_fputc 0005                  ??_fputs 000E  
    __size_of_Lcd_Chr_CP 0130                  ??_putch 0001               __pbssBANK0 00BA  
             __pbssBANK1 0100               _efgtoa$451 0068               _efgtoa$445 0064  
             _efgtoa$446 0066               _efgtoa$455 006A               _efgtoa$456 006C  
             _efgtoa$457 006E        __CFG_PLLSEL$PLL4X 000000                  ?___flge 0028  
                ?___fleq 0001                  ?___wmul 0001                  ?_efgtoa 0034  
                ?_floorf 001A                  ?_strcat 0011                  ?_strcpy 0007  
                ?_strlen 0001                ?___xxtofl 0001       __size_of_vfpfcnvrt 0510  
             ??_Lcd_Init 0004               ??_Lcd_Out2 0007                  _Lcd_Cmd 3506  
                _Lcd_Out 3C6C                  _Buzzer1 421C                  __Hparam 0000  
                __Lparam 0000          __size_of___flge 0168          __size_of___fleq 00BA  
                ___fladd 154E                  ___fldiv 2450                  ___awdiv 383A  
                ___flneg 4164                  ___awmod 3A04                  ___flmul 1FE2  
                ___flsub 411A                  ___fltol 2FF4          __size_of___wmul 002A  
              ?_vfprintf 0056             __psmallconst 0800          __size_of_efgtoa 0D22  
        __size_of_floorf 0232                  __pcinit 42A2                  __ramtop 0800  
                __ptext0 3294                  __ptext1 424E                  __ptext2 3FC4  
                __ptext3 3F5E                  __ptext4 1AD2                  __ptext5 373E  
                __ptext6 082C                  __ptext7 3E76                  __ptext8 41A4  
                __ptext9 3EF6          __size_of_strcat 002A          __size_of_strcpy 0068  
        __size_of_strlen 0052             __size_of_pad 00D6                  _isdigit 41E0  
             ??___xxtofl 0005         ___awmod@dividend 0001                  _isspace 4022  
                _isupper 41A4                  efgtoa@c 003A                  efgtoa@d 0078  
                efgtoa@e 0090                  efgtoa@f 0036                  efgtoa@g 008C  
                efgtoa@h 0082                  efgtoa@i 008A                  efgtoa@l 0086  
                efgtoa@m 0074                  efgtoa@n 0092                  efgtoa@p 007C  
                efgtoa@t 0070                  efgtoa@u 0094                  efgtoa@w 007F  
                atoi@neg 000E                  _sprintf 3FC4                  _tolower 3E76  
                _strncmp 373E     end_of_initialization 42BA                  floorf@e 0028  
                floorf@m 0024                  floorf@u 002A                  floorf@x 001A  
                fputc@fp 0003            __Lmediumconst 0000                  fputs@fp 000C  
      __end_of_vfpfcnvrt 1FE2               efgtoa@mode 0081               efgtoa@sign 007A  
           ??_Lcd_Chr_CP 0001                Lcd_Out2@x 0004                Lcd_Out2@y 0009  
                postdec2 000FDD                  postinc0 000FEE                  postinc1 000FE6  
                postinc2 000FDE               ??_vfprintf 005C                  strcpy@d 000F  
                strlen@a 0005                  strcpy@s 000D                  strlen@s 0001  
              _PORTDbits 000F83              ___fladd@grs 0014            ___xxtofl@sign 0009  
              _TRISDbits 000F95                _TRISEbits 000F96              ___fldiv@grs 0014  
            ___fldiv@rem 000D        __size_of_ADC_Init 0014        __size_of_ADC_Read 00A8  
     __end_of_Lcd_Chr_CP 3506              ___flmul@grs 001C           __end_of___flge 2FF4  
         __end_of___fleq 3C6C              vfpfcnvrt@ap 0044              vfpfcnvrt@ct 0052  
            vfpfcnvrt@fp 0040           __end_of___wmul 42A2           __end_of_efgtoa 154E  
         __end_of_floorf 2AA2               floorf@F520 00BA           __end_of_strcat 4278  
         __end_of_strcpy 3F5E           __end_of_strlen 40CE      start_initialization 42A2  
            __end_of_pad 3BB2            Lcd_Out@buffer 0005        __size_of_Lcd_Init 014E  
      __size_of_Lcd_Out2 00AE          __CFG_nLPBOR$OFF 000000    __end_of___fpclassifyf 373E  
            vfprintf@fmt 0058                 ??___flge 0030                 ??___fleq 0009  
               ??___wmul 0005                 ??_efgtoa 003B                 ??_floorf 001E  
               ??_strcat 0015                 ??_strcpy 000B                 ??_strlen 0003  
              ___fladd@a 0005                ___fladd@b 0001                ___fldiv@a 0005  
              ___fldiv@b 0001                ___flmul@a 0013                ___flmul@b 000F  
              ___flsub@a 002C                ___flsub@b 0028            __pcstackBANK0 0060  
        __CFG_nPWRTEN$ON 000000        __size_of___xxtofl 01DC                 ?_Lcd_Cmd 0001  
               ?_Lcd_Out 0004                 ?_Buzzer1 0001                 ?___fladd 0001  
               ?___fldiv 0001                 ?___awdiv 0001                 ?___flneg 0001  
               ?___awmod 0001                 ?___flmul 000F                 ?___flsub 0028  
               ?___fltol 0001        __size_of_vfprintf 0066              __smallconst 0800  
               ?_isdigit 0001                 _ADC_Init 42C4                 _ADC_Read 3DCE  
               ?_isspace 0001                 ?_isupper 0001                 ?_sprintf 0098  
               ?_tolower 0007           __size_of_fputc 00DE           __size_of_fputs 004C  
               ?_strncmp 0001           __size_of_putch 0002           ___wmul@product 0005  
               _LATEbits 000F8D                 Lcd_Out@x 0004         __CFG_WDTPS$32768 000000  
               Lcd_Out@y 0009                _vfpfcnvrt 1AD2             Lcd_Init@data 0005  
             _ADCON0bits 000FC2        ___wmul@multiplier 0001        __CFG_CFGPLLEN$OFF 000000  
           Lcd_Out2@data 000A                 _Lcd_Init 3146                 _Lcd_Out2 3D20  
             vfpfcnvrt@c 0055               vfpfcnvrt@f 004E         __size_of_Lcd_Cmd 012A  
       __size_of_Lcd_Out 00B4                 __Hrparam 0000         __size_of_Buzzer1 0032  
             vfprintf@ap 005A                 __Lrparam 0000               vfprintf@fp 0056  
     __CFG_BOREN$SBORDIS 000000         __size_of___fladd 0584         __size_of___fldiv 0420  
       __size_of___awdiv 00EC         __size_of___flneg 0040         __size_of___awmod 00D8  
       __size_of___flmul 046E         __size_of___flsub 004A         __size_of___fltol 0152  
             ?_vfpfcnvrt 0040               _ANSELEbits 000F5F       ___fpclassifyf@F459 00BE  
             sprintf@fmt 009A               sprintf@ret 00A0                 ___xxtofl 2CB0  
             strcat@dest 0011                 _atoi$946 0010                 _atoi$947 0014  
               _atoi$948 0012         __size_of_isdigit 003C           Lcd_Chr_CP@data 0003  
       __size_of_isspace 005A                 __ptext10 3ADC                 __ptext11 407C  
               __ptext20 4164                 __ptext12 40CE                 __ptext21 1FE2  
               __ptext13 3926                 __ptext30 4278                 __ptext22 2E8C  
               __ptext14 42D8                 __ptext31 2CB0                 __ptext23 3BB2  
               __ptext15 2870                 __ptext32 3D20                 __ptext24 2450  
               __ptext16 3630                 __ptext33 3C6C                 __ptext25 3A04  
               __ptext17 2FF4                 __ptext34 33D6                 __ptext26 383A  
               __ptext18 411A                 __ptext35 3146                 __ptext27 2AA2  
               __ptext19 154E                 __ptext36 3506                 __ptext28 4022  
               __ptext37 421C                 __ptext29 41E0                 __ptext38 3DCE  
               __ptext39 42C4         __size_of_isupper 003C         __size_of_sprintf 005E  
       __size_of_tolower 0080               strcpy@dest 0007         __size_of_strncmp 00FC  
            Lcd_Cmd@data 0003            __size_of_atoi 020E            __size_of_main 0142  
               efgtoa@fp 0034                 efgtoa@ne 0076                 efgtoa@pp 0072  
               efgtoa@ou 0060                 _vfprintf 3F5E                 main@data 00AA  
            _isspace$977 0007              Lcd_Out@data 000A                 isdigit@c 0001  
              sprintf@ap 00A2                strcat@src 0013                 isspace@c 0001  
              strcpy@src 0009                 isupper@c 0001                strncmp@_l 0001  
              strncmp@_r 0003              efgtoa@nmode 007E     __CFG_CPUDIV$NOCLKDIV 000000  
            ??_vfpfcnvrt 0046            _vfpfcnvrt$471 004A            _vfpfcnvrt$475 004C  
               sprintf@f 00A4                 tolower@c 0007                 sprintf@s 0098  
 __size_of___fpclassifyf 010E                 strncmp@l 000A                 strncmp@n 0005  
               strncmp@r 000C            ___fladd@signs 0011       __CFG_FOSC$INTOSCIO 000000  
           ___fladd@aexp 0012             ___fladd@bexp 0013  
